
========================================================================

** ELF Header Information

    File Name: c:\Users\32000\Desktop\workspace\Lx\04Class\LxProject\06_Project\MDK-ARM\06_Project\06_Project.axf

    Machine class: ELFCLASS32 (32-bit)
    Data encoding: ELFDATA2LSB (Little endian)
    Header version: EV_CURRENT (Current version)
    Operating System ABI: none
    ABI Version: 0
    File Type: ET_EXEC (Executable) (2)
    Machine: EM_ARM (ARM)

    Image Entry point: 0x08000199
    Flags: EF_ARM_HASENTRY (0x05000002)

    ARM ELF revision: 5 (ABI version 2)

    Conforms to Base float procedure-call standard

    Built with
    Component: ARM Compiler 5.06 update 7 (build 960) Tool: armasm [4d35fa]
    Component: ARM Compiler 5.06 update 7 (build 960) Tool: armlink [4d3601]

    Header size: 52 bytes (0x34)
    Program header entry size: 32 bytes (0x20)
    Section header entry size: 40 bytes (0x28)

    Program header entries: 1
    Section header entries: 16

    Program header offset: 843492 (0x000cdee4)
    Section header offset: 843524 (0x000cdf04)

    Section header string table index: 15

========================================================================

** Program header #0 (PT_LOAD) [PF_X + PF_W + PF_R + PF_ARM_ENTRY]
    Size : 39616 bytes (19544 bytes in file)
    Virtual address: 0x08000000 (Alignment 8)


========================================================================

** Section #1 'ER_IROM1' (SHT_PROGBITS) [SHF_ALLOC + SHF_EXECINSTR]
    Size   : 19344 bytes (alignment 4)
    Address: 0x08000000

    $d.realdata
    RESET
    __Vectors
        0x08000000:    20004f30    0O.     DCD    536891184
        0x08000004:    08000271    q...    DCD    134218353
        0x08000008:    08001799    ....    DCD    134223769
        0x0800000c:    08001653    S...    DCD    134223443
        0x08000010:    08001795    ....    DCD    134223765
        0x08000014:    080003cd    ....    DCD    134218701
        0x08000018:    08001da1    ....    DCD    134225313
        0x0800001c:    00000000    ....    DCD    0
        0x08000020:    00000000    ....    DCD    0
        0x08000024:    00000000    ....    DCD    0
        0x08000028:    00000000    ....    DCD    0
        0x0800002c:    080001b1    ....    DCD    134218161
        0x08000030:    080003d1    ....    DCD    134218705
        0x08000034:    00000000    ....    DCD    0
        0x08000038:    0800020d    ....    DCD    134218253
        0x0800003c:    0800183d    =...    DCD    134223933
        0x08000040:    0800028b    ....    DCD    134218379
        0x08000044:    0800028b    ....    DCD    134218379
        0x08000048:    0800028b    ....    DCD    134218379
        0x0800004c:    0800028b    ....    DCD    134218379
        0x08000050:    0800028b    ....    DCD    134218379
        0x08000054:    0800028b    ....    DCD    134218379
        0x08000058:    0800028b    ....    DCD    134218379
        0x0800005c:    0800028b    ....    DCD    134218379
        0x08000060:    0800028b    ....    DCD    134218379
        0x08000064:    0800028b    ....    DCD    134218379
        0x08000068:    0800028b    ....    DCD    134218379
        0x0800006c:    0800028b    ....    DCD    134218379
        0x08000070:    0800028b    ....    DCD    134218379
        0x08000074:    0800028b    ....    DCD    134218379
        0x08000078:    0800028b    ....    DCD    134218379
        0x0800007c:    0800028b    ....    DCD    134218379
        0x08000080:    0800028b    ....    DCD    134218379
        0x08000084:    0800028b    ....    DCD    134218379
        0x08000088:    0800028b    ....    DCD    134218379
        0x0800008c:    00000000    ....    DCD    0
        0x08000090:    00000000    ....    DCD    0
        0x08000094:    00000000    ....    DCD    0
        0x08000098:    00000000    ....    DCD    0
        0x0800009c:    0800028b    ....    DCD    134218379
        0x080000a0:    0800028b    ....    DCD    134218379
        0x080000a4:    08001921    !...    DCD    134224161
        0x080000a8:    0800028b    ....    DCD    134218379
        0x080000ac:    0800028b    ....    DCD    134218379
        0x080000b0:    0800028b    ....    DCD    134218379
        0x080000b4:    0800028b    ....    DCD    134218379
        0x080000b8:    0800028b    ....    DCD    134218379
        0x080000bc:    0800028b    ....    DCD    134218379
        0x080000c0:    0800028b    ....    DCD    134218379
        0x080000c4:    0800028b    ....    DCD    134218379
        0x080000c8:    0800028b    ....    DCD    134218379
        0x080000cc:    0800028b    ....    DCD    134218379
        0x080000d0:    0800028b    ....    DCD    134218379
        0x080000d4:    0800028b    ....    DCD    134218379
        0x080000d8:    0800028b    ....    DCD    134218379
        0x080000dc:    00000000    ....    DCD    0
        0x080000e0:    0800028b    ....    DCD    134218379
        0x080000e4:    0800028b    ....    DCD    134218379
        0x080000e8:    0800028b    ....    DCD    134218379
        0x080000ec:    00000000    ....    DCD    0
        0x080000f0:    00000000    ....    DCD    0
        0x080000f4:    00000000    ....    DCD    0
        0x080000f8:    00000000    ....    DCD    0
        0x080000fc:    0800028b    ....    DCD    134218379
        0x08000100:    00000000    ....    DCD    0
        0x08000104:    0800028b    ....    DCD    134218379
        0x08000108:    0800028b    ....    DCD    134218379
        0x0800010c:    0800028b    ....    DCD    134218379
        0x08000110:    00000000    ....    DCD    0
        0x08000114:    00000000    ....    DCD    0
        0x08000118:    00000000    ....    DCD    0
        0x0800011c:    00000000    ....    DCD    0
        0x08000120:    0800028b    ....    DCD    134218379
        0x08000124:    0800028b    ....    DCD    134218379
        0x08000128:    0800028b    ....    DCD    134218379
        0x0800012c:    0800028b    ....    DCD    134218379
        0x08000130:    0800028b    ....    DCD    134218379
        0x08000134:    00000000    ....    DCD    0
        0x08000138:    00000000    ....    DCD    0
        0x0800013c:    00000000    ....    DCD    0
        0x08000140:    00000000    ....    DCD    0
        0x08000144:    00000000    ....    DCD    0
        0x08000148:    00000000    ....    DCD    0
        0x0800014c:    0800028b    ....    DCD    134218379
        0x08000150:    0800028b    ....    DCD    134218379
        0x08000154:    0800028b    ....    DCD    134218379
        0x08000158:    0800028b    ....    DCD    134218379
        0x0800015c:    0800028b    ....    DCD    134218379
        0x08000160:    0800028b    ....    DCD    134218379
        0x08000164:    0800028b    ....    DCD    134218379
        0x08000168:    00000000    ....    DCD    0
        0x0800016c:    00000000    ....    DCD    0
        0x08000170:    00000000    ....    DCD    0
        0x08000174:    00000000    ....    DCD    0
        0x08000178:    00000000    ....    DCD    0
        0x0800017c:    00000000    ....    DCD    0
        0x08000180:    00000000    ....    DCD    0
        0x08000184:    0800028b    ....    DCD    134218379
        0x08000188:    00000000    ....    DCD    0
        0x0800018c:    00000000    ....    DCD    0
        0x08000190:    0800028b    ....    DCD    134218379
        0x08000194:    0800028b    ....    DCD    134218379
    $t
    .ARM.Collect$$$$00000000
    .ARM.Collect$$$$00000001
    __Vectors_End
    __main
    _main_stk
        0x08000198:    f8dfd010    ....    LDR      sp,__lit__00000000 ; [0x80001ac] = 0x20004f30
    .ARM.Collect$$$$00000004
    _main_scatterload
        0x0800019c:    f000f904    ....    BL       __scatterload ; 0x80003a8
    .ARM.Collect$$$$00000008
    .ARM.Collect$$$$0000000A
    .ARM.Collect$$$$0000000B
    __main_after_scatterload
    _main_clock
    _main_cpp_init
    _main_init
        0x080001a0:    4800        .H      LDR      r0,[pc,#0] ; [0x80001a4] = 0x80028a9
        0x080001a2:    4700        .G      BX       r0
    $d
        0x080001a4:    080028a9    .(..    DCD    134228137
    $t
    .ARM.Collect$$$$0000000E
    __rt_lib_shutdown_fini
        0x080001a8:    f3af8000    ....    NOP.W    
    $d
    .ARM.Collect$$$$00002712
    __lit__00000000
    .ARM.Collect$$$$0000000F
    .ARM.Collect$$$$00000011
    __rt_final_cpp
    __rt_final_exit
        0x080001ac:    20004f30    0O.     DCD    536891184
    $t
    .emb_text
    $v0
    SVC_Handler
        0x080001b0:    4b2c        ,K      LDR      r3,[pc,#176] ; [0x8000264] = 0x20000014
        0x080001b2:    6819        .h      LDR      r1,[r3,#0]
        0x080001b4:    6808        .h      LDR      r0,[r1,#0]
        0x080001b6:    e8b04ff0    ...O    LDM      r0!,{r4-r11,lr}
        0x080001ba:    f3808809    ....    MSR      PSP,r0
        0x080001be:    f3bf8f6f    ..o.    ISB      
        0x080001c2:    f04f0000    O...    MOV      r0,#0
        0x080001c6:    f3808811    ....    MSR      BASEPRI,r0
        0x080001ca:    4770        pG      BX       lr
    $d
        0x080001cc:    00000000    ....    DCD    0
    $t
    __asm___6_port_c_39a90d8d__prvStartFirstTask
        0x080001d0:    4808        .H      LDR      r0,[pc,#32] ; [0x80001f4] = 0xe000ed08
        0x080001d2:    6800        .h      LDR      r0,[r0,#0]
        0x080001d4:    6800        .h      LDR      r0,[r0,#0]
        0x080001d6:    f3808808    ....    MSR      MSP,r0
        0x080001da:    f04f0000    O...    MOV      r0,#0
        0x080001de:    f3808814    ....    MSR      CONTROL,r0
        0x080001e2:    b662        b.      CPSIE    i
        0x080001e4:    b661        a.      CPSIE    f
        0x080001e6:    f3bf8f4f    ..O.    DSB      
        0x080001ea:    f3bf8f6f    ..o.    ISB      
        0x080001ee:    df00        ..      SVC      #0x0 ; formerly SWI
        0x080001f0:    bf00        ..      NOP      
        0x080001f2:    bf00        ..      NOP      
    $d
        0x080001f4:    e000ed08    ....    DCD    3758157064
    $t
    __asm___6_port_c_39a90d8d__prvEnableVFP
        0x080001f8:    f8df000c    ....    LDR.W    r0,[pc,#12] ; [0x8000208] = 0xe000ed88
        0x080001fc:    6801        .h      LDR      r1,[r0,#0]
        0x080001fe:    f4410170    A.p.    ORR      r1,r1,#0xf00000
        0x08000202:    6001        .`      STR      r1,[r0,#0]
        0x08000204:    4770        pG      BX       lr
        0x08000206:    bf00        ..      NOP      
    $d
        0x08000208:    e000ed88    ....    DCD    3758157192
    $t
    PendSV_Handler
        0x0800020c:    f3ef8009    ....    MRS      r0,PSP
        0x08000210:    f3bf8f6f    ..o.    ISB      
        0x08000214:    4b13        .K      LDR      r3,[pc,#76] ; [0x8000264] = 0x20000014
        0x08000216:    681a        .h      LDR      r2,[r3,#0]
        0x08000218:    f01e0f10    ....    TST      lr,#0x10
        0x0800021c:    bf08        ..      IT       EQ
        0x0800021e:    ed208a10     ...    VSTMDBEQ r0!,{s16-s31}
        0x08000222:    e9204ff0     ..O    STMDB    r0!,{r4-r11,lr}
        0x08000226:    6010        .`      STR      r0,[r2,#0]
        0x08000228:    b409        ..      PUSH     {r0,r3}
        0x0800022a:    f04f0050    O.P.    MOV      r0,#0x50
        0x0800022e:    f3808811    ....    MSR      BASEPRI,r0
        0x08000232:    f3bf8f4f    ..O.    DSB      
        0x08000236:    f3bf8f6f    ..o.    ISB      
        0x0800023a:    f003fd43    ..C.    BL       vTaskSwitchContext ; 0x8003cc4
        0x0800023e:    f04f0000    O...    MOV      r0,#0
        0x08000242:    f3808811    ....    MSR      BASEPRI,r0
        0x08000246:    bc09        ..      POP      {r0,r3}
        0x08000248:    6819        .h      LDR      r1,[r3,#0]
        0x0800024a:    6808        .h      LDR      r0,[r1,#0]
        0x0800024c:    e8b04ff0    ...O    LDM      r0!,{r4-r11,lr}
        0x08000250:    f01e0f10    ....    TST      lr,#0x10
        0x08000254:    bf08        ..      IT       EQ
        0x08000256:    ecb08a10    ....    VLDMEQ   r0!,{s16-s31}
        0x0800025a:    f3808809    ....    MSR      PSP,r0
        0x0800025e:    f3bf8f6f    ..o.    ISB      
        0x08000262:    4770        pG      BX       lr
    $d
        0x08000264:    20000014    ...     DCD    536870932
    $t
    vPortGetIPSR
        0x08000268:    f3ef8005    ....    MRS      r0,IPSR
        0x0800026c:    4770        pG      BX       lr
        0x0800026e:    0000        ..      MOVS     r0,r0
    .text
    $v0
    Reset_Handler
        0x08000270:    4806        .H      LDR      r0,[pc,#24] ; [0x800028c] = 0x800190d
        0x08000272:    4780        .G      BLX      r0
        0x08000274:    4806        .H      LDR      r0,[pc,#24] ; [0x8000290] = 0x8000199
        0x08000276:    4700        .G      BX       r0
        0x08000278:    e7fe        ..      B        0x8000278 ; Reset_Handler + 8
        0x0800027a:    e7fe        ..      B        0x800027a ; Reset_Handler + 10
        0x0800027c:    e7fe        ..      B        0x800027c ; Reset_Handler + 12
        0x0800027e:    e7fe        ..      B        0x800027e ; Reset_Handler + 14
        0x08000280:    e7fe        ..      B        0x8000280 ; Reset_Handler + 16
        0x08000282:    e7fe        ..      B        0x8000282 ; Reset_Handler + 18
        0x08000284:    e7fe        ..      B        0x8000284 ; Reset_Handler + 20
        0x08000286:    e7fe        ..      B        0x8000286 ; Reset_Handler + 22
        0x08000288:    e7fe        ..      B        0x8000288 ; Reset_Handler + 24
    ADC_IRQHandler
    DMA1_Stream0_IRQHandler
    DMA1_Stream1_IRQHandler
    DMA1_Stream2_IRQHandler
    DMA1_Stream3_IRQHandler
    DMA1_Stream4_IRQHandler
    DMA1_Stream5_IRQHandler
    DMA1_Stream6_IRQHandler
    DMA1_Stream7_IRQHandler
    DMA2_Stream0_IRQHandler
    DMA2_Stream1_IRQHandler
    DMA2_Stream2_IRQHandler
    DMA2_Stream3_IRQHandler
    DMA2_Stream4_IRQHandler
    DMA2_Stream5_IRQHandler
    DMA2_Stream6_IRQHandler
    DMA2_Stream7_IRQHandler
    EXTI0_IRQHandler
    EXTI15_10_IRQHandler
    EXTI1_IRQHandler
    EXTI2_IRQHandler
    EXTI3_IRQHandler
    EXTI4_IRQHandler
    EXTI9_5_IRQHandler
    FLASH_IRQHandler
    FPU_IRQHandler
    I2C1_ER_IRQHandler
    I2C1_EV_IRQHandler
    I2C2_ER_IRQHandler
    I2C2_EV_IRQHandler
    I2C3_ER_IRQHandler
    I2C3_EV_IRQHandler
    OTG_FS_IRQHandler
    OTG_FS_WKUP_IRQHandler
    PVD_IRQHandler
    RCC_IRQHandler
    RTC_Alarm_IRQHandler
    RTC_WKUP_IRQHandler
    SDIO_IRQHandler
    SPI1_IRQHandler
    SPI2_IRQHandler
    SPI3_IRQHandler
    SPI4_IRQHandler
    SPI5_IRQHandler
    TAMP_STAMP_IRQHandler
    TIM1_BRK_TIM9_IRQHandler
    TIM1_CC_IRQHandler
    TIM1_TRG_COM_TIM11_IRQHandler
    TIM2_IRQHandler
    TIM3_IRQHandler
    TIM4_IRQHandler
    TIM5_IRQHandler
    USART1_IRQHandler
    USART2_IRQHandler
    USART6_IRQHandler
    WWDG_IRQHandler
        0x0800028a:    e7fe        ..      B        ADC_IRQHandler ; 0x800028a
    $d
        0x0800028c:    0800190d    ....    DCD    134224141
        0x08000290:    08000199    ....    DCD    134218137
    $t
    .text
    __aeabi_uldivmod
        0x08000294:    e92d5ff0    -.._    PUSH     {r4-r12,lr}
        0x08000298:    4605        .F      MOV      r5,r0
        0x0800029a:    2000        .       MOVS     r0,#0
        0x0800029c:    4692        .F      MOV      r10,r2
        0x0800029e:    469b        .F      MOV      r11,r3
        0x080002a0:    4688        .F      MOV      r8,r1
        0x080002a2:    4606        .F      MOV      r6,r0
        0x080002a4:    4681        .F      MOV      r9,r0
        0x080002a6:    2440        @$      MOVS     r4,#0x40
        0x080002a8:    e01b        ..      B        0x80002e2 ; __aeabi_uldivmod + 78
        0x080002aa:    4628        (F      MOV      r0,r5
        0x080002ac:    4641        AF      MOV      r1,r8
        0x080002ae:    4647        GF      MOV      r7,r8
        0x080002b0:    4622        "F      MOV      r2,r4
        0x080002b2:    f000f869    ..i.    BL       __aeabi_llsr ; 0x8000388
        0x080002b6:    4653        SF      MOV      r3,r10
        0x080002b8:    465a        ZF      MOV      r2,r11
        0x080002ba:    1ac0        ..      SUBS     r0,r0,r3
        0x080002bc:    4191        .A      SBCS     r1,r1,r2
        0x080002be:    d310        ..      BCC      0x80002e2 ; __aeabi_uldivmod + 78
        0x080002c0:    4611        .F      MOV      r1,r2
        0x080002c2:    4618        .F      MOV      r0,r3
        0x080002c4:    4622        "F      MOV      r2,r4
        0x080002c6:    f000f850    ..P.    BL       __aeabi_llsl ; 0x800036a
        0x080002ca:    1a2d        -.      SUBS     r5,r5,r0
        0x080002cc:    eb670801    g...    SBC      r8,r7,r1
        0x080002d0:    464f        OF      MOV      r7,r9
        0x080002d2:    4622        "F      MOV      r2,r4
        0x080002d4:    2001        .       MOVS     r0,#1
        0x080002d6:    2100        .!      MOVS     r1,#0
        0x080002d8:    f000f847    ..G.    BL       __aeabi_llsl ; 0x800036a
        0x080002dc:    eb170900    ....    ADDS     r9,r7,r0
        0x080002e0:    414e        NA      ADCS     r6,r6,r1
        0x080002e2:    1e20         .      SUBS     r0,r4,#0
        0x080002e4:    f1a40401    ....    SUB      r4,r4,#1
        0x080002e8:    dcdf        ..      BGT      0x80002aa ; __aeabi_uldivmod + 22
        0x080002ea:    4648        HF      MOV      r0,r9
        0x080002ec:    4631        1F      MOV      r1,r6
        0x080002ee:    462a        *F      MOV      r2,r5
        0x080002f0:    4643        CF      MOV      r3,r8
        0x080002f2:    e8bd9ff0    ....    POP      {r4-r12,pc}
    .text
    __aeabi_memcpy
    __aeabi_memcpy4
    __aeabi_memcpy8
        0x080002f6:    ea400301    @...    ORR      r3,r0,r1
        0x080002fa:    079b        ..      LSLS     r3,r3,#30
        0x080002fc:    d003        ..      BEQ      0x8000306 ; __aeabi_memcpy + 16
        0x080002fe:    e009        ..      B        0x8000314 ; __aeabi_memcpy + 30
        0x08000300:    c908        ..      LDM      r1!,{r3}
        0x08000302:    1f12        ..      SUBS     r2,r2,#4
        0x08000304:    c008        ..      STM      r0!,{r3}
        0x08000306:    2a04        .*      CMP      r2,#4
        0x08000308:    d2fa        ..      BCS      0x8000300 ; __aeabi_memcpy + 10
        0x0800030a:    e003        ..      B        0x8000314 ; __aeabi_memcpy + 30
        0x0800030c:    f8113b01    ...;    LDRB     r3,[r1],#1
        0x08000310:    f8003b01    ...;    STRB     r3,[r0],#1
        0x08000314:    1e52        R.      SUBS     r2,r2,#1
        0x08000316:    d2f9        ..      BCS      0x800030c ; __aeabi_memcpy + 22
        0x08000318:    4770        pG      BX       lr
    .text
    __aeabi_memset
    __aeabi_memset4
    __aeabi_memset8
        0x0800031a:    b2d2        ..      UXTB     r2,r2
        0x0800031c:    e001        ..      B        0x8000322 ; __aeabi_memset + 8
        0x0800031e:    f8002b01    ...+    STRB     r2,[r0],#1
        0x08000322:    1e49        I.      SUBS     r1,r1,#1
        0x08000324:    d2fb        ..      BCS      0x800031e ; __aeabi_memset + 4
        0x08000326:    4770        pG      BX       lr
    __aeabi_memclr
    __aeabi_memclr4
    __aeabi_memclr8
        0x08000328:    2200        ."      MOVS     r2,#0
        0x0800032a:    e7f6        ..      B        __aeabi_memset ; 0x800031a
    memset
        0x0800032c:    b510        ..      PUSH     {r4,lr}
        0x0800032e:    4613        .F      MOV      r3,r2
        0x08000330:    460a        .F      MOV      r2,r1
        0x08000332:    4604        .F      MOV      r4,r0
        0x08000334:    4619        .F      MOV      r1,r3
        0x08000336:    f7fffff0    ....    BL       __aeabi_memset ; 0x800031a
        0x0800033a:    4620         F      MOV      r0,r4
        0x0800033c:    bd10        ..      POP      {r4,pc}
    .text
    __aeabi_uidiv
    __aeabi_uidivmod
        0x0800033e:    b530        0.      PUSH     {r4,r5,lr}
        0x08000340:    460b        .F      MOV      r3,r1
        0x08000342:    4601        .F      MOV      r1,r0
        0x08000344:    2000        .       MOVS     r0,#0
        0x08000346:    2220         "      MOVS     r2,#0x20
        0x08000348:    2401        .$      MOVS     r4,#1
        0x0800034a:    e009        ..      B        0x8000360 ; __aeabi_uidiv + 34
        0x0800034c:    fa21f502    !...    LSR      r5,r1,r2
        0x08000350:    429d        .B      CMP      r5,r3
        0x08000352:    d305        ..      BCC      0x8000360 ; __aeabi_uidiv + 34
        0x08000354:    fa03f502    ....    LSL      r5,r3,r2
        0x08000358:    1b49        I.      SUBS     r1,r1,r5
        0x0800035a:    fa04f502    ....    LSL      r5,r4,r2
        0x0800035e:    4428        (D      ADD      r0,r0,r5
        0x08000360:    1e15        ..      SUBS     r5,r2,#0
        0x08000362:    f1a20201    ....    SUB      r2,r2,#1
        0x08000366:    dcf1        ..      BGT      0x800034c ; __aeabi_uidiv + 14
        0x08000368:    bd30        0.      POP      {r4,r5,pc}
    .text
    __aeabi_llsl
    _ll_shift_l
        0x0800036a:    2a20         *      CMP      r2,#0x20
        0x0800036c:    db04        ..      BLT      0x8000378 ; __aeabi_llsl + 14
        0x0800036e:    3a20         :      SUBS     r2,r2,#0x20
        0x08000370:    fa00f102    ....    LSL      r1,r0,r2
        0x08000374:    2000        .       MOVS     r0,#0
        0x08000376:    4770        pG      BX       lr
        0x08000378:    4091        .@      LSLS     r1,r1,r2
        0x0800037a:    f1c20320    .. .    RSB      r3,r2,#0x20
        0x0800037e:    fa20f303     ...    LSR      r3,r0,r3
        0x08000382:    4319        .C      ORRS     r1,r1,r3
        0x08000384:    4090        .@      LSLS     r0,r0,r2
        0x08000386:    4770        pG      BX       lr
    .text
    __aeabi_llsr
    _ll_ushift_r
        0x08000388:    2a20         *      CMP      r2,#0x20
        0x0800038a:    db04        ..      BLT      0x8000396 ; __aeabi_llsr + 14
        0x0800038c:    3a20         :      SUBS     r2,r2,#0x20
        0x0800038e:    fa21f002    !...    LSR      r0,r1,r2
        0x08000392:    2100        .!      MOVS     r1,#0
        0x08000394:    4770        pG      BX       lr
        0x08000396:    fa21f302    !...    LSR      r3,r1,r2
        0x0800039a:    40d0        .@      LSRS     r0,r0,r2
        0x0800039c:    f1c20220    .. .    RSB      r2,r2,#0x20
        0x080003a0:    4091        .@      LSLS     r1,r1,r2
        0x080003a2:    4308        .C      ORRS     r0,r0,r1
        0x080003a4:    4619        .F      MOV      r1,r3
        0x080003a6:    4770        pG      BX       lr
    .text
    __scatterload
    __scatterload_rt2
        0x080003a8:    4c06        .L      LDR      r4,[pc,#24] ; [0x80003c4] = 0x8004b70
        0x080003aa:    4d07        .M      LDR      r5,[pc,#28] ; [0x80003c8] = 0x8004b90
        0x080003ac:    e006        ..      B        0x80003bc ; __scatterload + 20
        0x080003ae:    68e0        .h      LDR      r0,[r4,#0xc]
        0x080003b0:    f0400301    @...    ORR      r3,r0,#1
        0x080003b4:    e8940007    ....    LDM      r4,{r0-r2}
        0x080003b8:    4798        .G      BLX      r3
        0x080003ba:    3410        .4      ADDS     r4,r4,#0x10
        0x080003bc:    42ac        .B      CMP      r4,r5
        0x080003be:    d3f6        ..      BCC      0x80003ae ; __scatterload + 6
        0x080003c0:    f7fffeee    ....    BL       __main_after_scatterload ; 0x80001a0
    $d
        0x080003c4:    08004b70    pK..    DCD    134237040
        0x080003c8:    08004b90    .K..    DCD    134237072
    $t
    i.BusFault_Handler
    BusFault_Handler
        0x080003cc:    bf00        ..      NOP      
        0x080003ce:    e7fe        ..      B        0x80003ce ; BusFault_Handler + 2
    i.DebugMon_Handler
    DebugMon_Handler
        0x080003d0:    4770        pG      BX       lr
    i.Error_Handler
    Error_Handler
        0x080003d2:    b672        r.      CPSID    i
        0x080003d4:    bf00        ..      NOP      
        0x080003d6:    e7fe        ..      B        0x80003d6 ; Error_Handler + 4
    i.HAL_GPIO_Init
    HAL_GPIO_Init
        0x080003d8:    b5f8        ..      PUSH     {r3-r7,lr}
        0x080003da:    4602        .F      MOV      r2,r0
        0x080003dc:    460b        .F      MOV      r3,r1
        0x080003de:    2500        .%      MOVS     r5,#0
        0x080003e0:    2400        .$      MOVS     r4,#0
        0x080003e2:    2000        .       MOVS     r0,#0
        0x080003e4:    2100        .!      MOVS     r1,#0
        0x080003e6:    e0c7        ..      B        0x8000578 ; HAL_GPIO_Init + 416
        0x080003e8:    2601        .&      MOVS     r6,#1
        0x080003ea:    fa06f501    ....    LSL      r5,r6,r1
        0x080003ee:    681e        .h      LDR      r6,[r3,#0]
        0x080003f0:    ea060405    ....    AND      r4,r6,r5
        0x080003f4:    42ac        .B      CMP      r4,r5
        0x080003f6:    d174        t.      BNE      0x80004e2 ; HAL_GPIO_Init + 266
        0x080003f8:    791e        .y      LDRB     r6,[r3,#4]
        0x080003fa:    f0060603    ....    AND      r6,r6,#3
        0x080003fe:    2e01        ..      CMP      r6,#1
        0x08000400:    d004        ..      BEQ      0x800040c ; HAL_GPIO_Init + 52
        0x08000402:    791e        .y      LDRB     r6,[r3,#4]
        0x08000404:    f0060603    ....    AND      r6,r6,#3
        0x08000408:    2e02        ..      CMP      r6,#2
        0x0800040a:    d113        ..      BNE      0x8000434 ; HAL_GPIO_Init + 92
        0x0800040c:    6890        .h      LDR      r0,[r2,#8]
        0x0800040e:    004f        O.      LSLS     r7,r1,#1
        0x08000410:    2603        .&      MOVS     r6,#3
        0x08000412:    40be        .@      LSLS     r6,r6,r7
        0x08000414:    43b0        .C      BICS     r0,r0,r6
        0x08000416:    004f        O.      LSLS     r7,r1,#1
        0x08000418:    68de        .h      LDR      r6,[r3,#0xc]
        0x0800041a:    40be        .@      LSLS     r6,r6,r7
        0x0800041c:    4330        0C      ORRS     r0,r0,r6
        0x0800041e:    6090        .`      STR      r0,[r2,#8]
        0x08000420:    6850        Ph      LDR      r0,[r2,#4]
        0x08000422:    2601        .&      MOVS     r6,#1
        0x08000424:    408e        .@      LSLS     r6,r6,r1
        0x08000426:    43b0        .C      BICS     r0,r0,r6
        0x08000428:    791e        .y      LDRB     r6,[r3,#4]
        0x0800042a:    f3c61600    ....    UBFX     r6,r6,#4,#1
        0x0800042e:    408e        .@      LSLS     r6,r6,r1
        0x08000430:    4330        0C      ORRS     r0,r0,r6
        0x08000432:    6050        P`      STR      r0,[r2,#4]
        0x08000434:    791e        .y      LDRB     r6,[r3,#4]
        0x08000436:    f0060603    ....    AND      r6,r6,#3
        0x0800043a:    2e03        ..      CMP      r6,#3
        0x0800043c:    d009        ..      BEQ      0x8000452 ; HAL_GPIO_Init + 122
        0x0800043e:    68d0        .h      LDR      r0,[r2,#0xc]
        0x08000440:    004f        O.      LSLS     r7,r1,#1
        0x08000442:    2603        .&      MOVS     r6,#3
        0x08000444:    40be        .@      LSLS     r6,r6,r7
        0x08000446:    43b0        .C      BICS     r0,r0,r6
        0x08000448:    004f        O.      LSLS     r7,r1,#1
        0x0800044a:    689e        .h      LDR      r6,[r3,#8]
        0x0800044c:    40be        .@      LSLS     r6,r6,r7
        0x0800044e:    4330        0C      ORRS     r0,r0,r6
        0x08000450:    60d0        .`      STR      r0,[r2,#0xc]
        0x08000452:    791e        .y      LDRB     r6,[r3,#4]
        0x08000454:    f0060603    ....    AND      r6,r6,#3
        0x08000458:    2e02        ..      CMP      r6,#2
        0x0800045a:    d113        ..      BNE      0x8000484 ; HAL_GPIO_Init + 172
        0x0800045c:    08cf        ..      LSRS     r7,r1,#3
        0x0800045e:    f1020620    .. .    ADD      r6,r2,#0x20
        0x08000462:    f8560027    V.'.    LDR      r0,[r6,r7,LSL #2]
        0x08000466:    074e        N.      LSLS     r6,r1,#29
        0x08000468:    0ef7        ..      LSRS     r7,r6,#27
        0x0800046a:    260f        .&      MOVS     r6,#0xf
        0x0800046c:    40be        .@      LSLS     r6,r6,r7
        0x0800046e:    43b0        .C      BICS     r0,r0,r6
        0x08000470:    074f        O.      LSLS     r7,r1,#29
        0x08000472:    0eff        ..      LSRS     r7,r7,#27
        0x08000474:    691e        .i      LDR      r6,[r3,#0x10]
        0x08000476:    40be        .@      LSLS     r6,r6,r7
        0x08000478:    4330        0C      ORRS     r0,r0,r6
        0x0800047a:    08cf        ..      LSRS     r7,r1,#3
        0x0800047c:    f1020620    .. .    ADD      r6,r2,#0x20
        0x08000480:    f8460027    F.'.    STR      r0,[r6,r7,LSL #2]
        0x08000484:    6810        .h      LDR      r0,[r2,#0]
        0x08000486:    004f        O.      LSLS     r7,r1,#1
        0x08000488:    2603        .&      MOVS     r6,#3
        0x0800048a:    40be        .@      LSLS     r6,r6,r7
        0x0800048c:    43b0        .C      BICS     r0,r0,r6
        0x0800048e:    791e        .y      LDRB     r6,[r3,#4]
        0x08000490:    f0060603    ....    AND      r6,r6,#3
        0x08000494:    004f        O.      LSLS     r7,r1,#1
        0x08000496:    40be        .@      LSLS     r6,r6,r7
        0x08000498:    4330        0C      ORRS     r0,r0,r6
        0x0800049a:    6010        .`      STR      r0,[r2,#0]
        0x0800049c:    685e        ^h      LDR      r6,[r3,#4]
        0x0800049e:    f4063640    ..@6    AND      r6,r6,#0x30000
        0x080004a2:    2e00        ..      CMP      r6,#0
        0x080004a4:    d067        g.      BEQ      0x8000576 ; HAL_GPIO_Init + 414
        0x080004a6:    bf00        ..      NOP      
        0x080004a8:    2600        .&      MOVS     r6,#0
        0x080004aa:    9600        ..      STR      r6,[sp,#0]
        0x080004ac:    4e34        4N      LDR      r6,[pc,#208] ; [0x8000580] = 0x40023844
        0x080004ae:    6836        6h      LDR      r6,[r6,#0]
        0x080004b0:    f4464680    F..F    ORR      r6,r6,#0x4000
        0x080004b4:    4f32        2O      LDR      r7,[pc,#200] ; [0x8000580] = 0x40023844
        0x080004b6:    603e        >`      STR      r6,[r7,#0]
        0x080004b8:    463e        >F      MOV      r6,r7
        0x080004ba:    6836        6h      LDR      r6,[r6,#0]
        0x080004bc:    f4064680    ...F    AND      r6,r6,#0x4000
        0x080004c0:    9600        ..      STR      r6,[sp,#0]
        0x080004c2:    bf00        ..      NOP      
        0x080004c4:    bf00        ..      NOP      
        0x080004c6:    4e2f        /N      LDR      r6,[pc,#188] ; [0x8000584] = 0x40013808
        0x080004c8:    088f        ..      LSRS     r7,r1,#2
        0x080004ca:    f8560027    V.'.    LDR      r0,[r6,r7,LSL #2]
        0x080004ce:    078e        ..      LSLS     r6,r1,#30
        0x080004d0:    0f37        7.      LSRS     r7,r6,#28
        0x080004d2:    260f        .&      MOVS     r6,#0xf
        0x080004d4:    40be        .@      LSLS     r6,r6,r7
        0x080004d6:    43b0        .C      BICS     r0,r0,r6
        0x080004d8:    4e2b        +N      LDR      r6,[pc,#172] ; [0x8000588] = 0x40020000
        0x080004da:    42b2        .B      CMP      r2,r6
        0x080004dc:    d102        ..      BNE      0x80004e4 ; HAL_GPIO_Init + 268
        0x080004de:    2600        .&      MOVS     r6,#0
        0x080004e0:    e015        ..      B        0x800050e ; HAL_GPIO_Init + 310
        0x080004e2:    e048        H.      B        0x8000576 ; HAL_GPIO_Init + 414
        0x080004e4:    4e29        )N      LDR      r6,[pc,#164] ; [0x800058c] = 0x40020400
        0x080004e6:    42b2        .B      CMP      r2,r6
        0x080004e8:    d101        ..      BNE      0x80004ee ; HAL_GPIO_Init + 278
        0x080004ea:    2601        .&      MOVS     r6,#1
        0x080004ec:    e00f        ..      B        0x800050e ; HAL_GPIO_Init + 310
        0x080004ee:    4e28        (N      LDR      r6,[pc,#160] ; [0x8000590] = 0x40020800
        0x080004f0:    42b2        .B      CMP      r2,r6
        0x080004f2:    d101        ..      BNE      0x80004f8 ; HAL_GPIO_Init + 288
        0x080004f4:    2602        .&      MOVS     r6,#2
        0x080004f6:    e00a        ..      B        0x800050e ; HAL_GPIO_Init + 310
        0x080004f8:    4e26        &N      LDR      r6,[pc,#152] ; [0x8000594] = 0x40020c00
        0x080004fa:    42b2        .B      CMP      r2,r6
        0x080004fc:    d101        ..      BNE      0x8000502 ; HAL_GPIO_Init + 298
        0x080004fe:    2603        .&      MOVS     r6,#3
        0x08000500:    e005        ..      B        0x800050e ; HAL_GPIO_Init + 310
        0x08000502:    4e25        %N      LDR      r6,[pc,#148] ; [0x8000598] = 0x40021000
        0x08000504:    42b2        .B      CMP      r2,r6
        0x08000506:    d101        ..      BNE      0x800050c ; HAL_GPIO_Init + 308
        0x08000508:    2604        .&      MOVS     r6,#4
        0x0800050a:    e000        ..      B        0x800050e ; HAL_GPIO_Init + 310
        0x0800050c:    2607        .&      MOVS     r6,#7
        0x0800050e:    078f        ..      LSLS     r7,r1,#30
        0x08000510:    0f3f        ?.      LSRS     r7,r7,#28
        0x08000512:    40be        .@      LSLS     r6,r6,r7
        0x08000514:    4330        0C      ORRS     r0,r0,r6
        0x08000516:    4e1b        .N      LDR      r6,[pc,#108] ; [0x8000584] = 0x40013808
        0x08000518:    088f        ..      LSRS     r7,r1,#2
        0x0800051a:    f8460027    F.'.    STR      r0,[r6,r7,LSL #2]
        0x0800051e:    4e1f        .N      LDR      r6,[pc,#124] ; [0x800059c] = 0x40013c08
        0x08000520:    6830        0h      LDR      r0,[r6,#0]
        0x08000522:    43a0        .C      BICS     r0,r0,r4
        0x08000524:    685e        ^h      LDR      r6,[r3,#4]
        0x08000526:    f4061680    ....    AND      r6,r6,#0x100000
        0x0800052a:    b106        ..      CBZ      r6,0x800052e ; HAL_GPIO_Init + 342
        0x0800052c:    4320         C      ORRS     r0,r0,r4
        0x0800052e:    4e1b        .N      LDR      r6,[pc,#108] ; [0x800059c] = 0x40013c08
        0x08000530:    6030        0`      STR      r0,[r6,#0]
        0x08000532:    1d36        6.      ADDS     r6,r6,#4
        0x08000534:    6830        0h      LDR      r0,[r6,#0]
        0x08000536:    43a0        .C      BICS     r0,r0,r4
        0x08000538:    685e        ^h      LDR      r6,[r3,#4]
        0x0800053a:    f4061600    ....    AND      r6,r6,#0x200000
        0x0800053e:    b106        ..      CBZ      r6,0x8000542 ; HAL_GPIO_Init + 362
        0x08000540:    4320         C      ORRS     r0,r0,r4
        0x08000542:    4e16        .N      LDR      r6,[pc,#88] ; [0x800059c] = 0x40013c08
        0x08000544:    1d36        6.      ADDS     r6,r6,#4
        0x08000546:    6030        0`      STR      r0,[r6,#0]
        0x08000548:    4e14        .N      LDR      r6,[pc,#80] ; [0x800059c] = 0x40013c08
        0x0800054a:    1f36        6.      SUBS     r6,r6,#4
        0x0800054c:    6830        0h      LDR      r0,[r6,#0]
        0x0800054e:    43a0        .C      BICS     r0,r0,r4
        0x08000550:    685e        ^h      LDR      r6,[r3,#4]
        0x08000552:    f4063600    ...6    AND      r6,r6,#0x20000
        0x08000556:    b106        ..      CBZ      r6,0x800055a ; HAL_GPIO_Init + 386
        0x08000558:    4320         C      ORRS     r0,r0,r4
        0x0800055a:    4e10        .N      LDR      r6,[pc,#64] ; [0x800059c] = 0x40013c08
        0x0800055c:    1f36        6.      SUBS     r6,r6,#4
        0x0800055e:    6030        0`      STR      r0,[r6,#0]
        0x08000560:    1f36        6.      SUBS     r6,r6,#4
        0x08000562:    6830        0h      LDR      r0,[r6,#0]
        0x08000564:    43a0        .C      BICS     r0,r0,r4
        0x08000566:    685e        ^h      LDR      r6,[r3,#4]
        0x08000568:    f4063680    ...6    AND      r6,r6,#0x10000
        0x0800056c:    b106        ..      CBZ      r6,0x8000570 ; HAL_GPIO_Init + 408
        0x0800056e:    4320         C      ORRS     r0,r0,r4
        0x08000570:    4e0a        .N      LDR      r6,[pc,#40] ; [0x800059c] = 0x40013c08
        0x08000572:    3e08        .>      SUBS     r6,r6,#8
        0x08000574:    6030        0`      STR      r0,[r6,#0]
        0x08000576:    1c49        I.      ADDS     r1,r1,#1
        0x08000578:    2910        .)      CMP      r1,#0x10
        0x0800057a:    f4ffaf35    ..5.    BCC      0x80003e8 ; HAL_GPIO_Init + 16
        0x0800057e:    bdf8        ..      POP      {r3-r7,pc}
    $d
        0x08000580:    40023844    D8.@    DCD    1073887300
        0x08000584:    40013808    .8.@    DCD    1073821704
        0x08000588:    40020000    ...@    DCD    1073872896
        0x0800058c:    40020400    ...@    DCD    1073873920
        0x08000590:    40020800    ...@    DCD    1073874944
        0x08000594:    40020c00    ...@    DCD    1073875968
        0x08000598:    40021000    ...@    DCD    1073876992
        0x0800059c:    40013c08    .<.@    DCD    1073822728
    $t
    i.HAL_GPIO_WritePin
    HAL_GPIO_WritePin
        0x080005a0:    b10a        ..      CBZ      r2,0x80005a6 ; HAL_GPIO_WritePin + 6
        0x080005a2:    6181        .a      STR      r1,[r0,#0x18]
        0x080005a4:    e001        ..      B        0x80005aa ; HAL_GPIO_WritePin + 10
        0x080005a6:    040b        ..      LSLS     r3,r1,#16
        0x080005a8:    6183        .a      STR      r3,[r0,#0x18]
        0x080005aa:    4770        pG      BX       lr
    i.HAL_GetTick
    HAL_GetTick
        0x080005ac:    4801        .H      LDR      r0,[pc,#4] ; [0x80005b4] = 0x20000004
        0x080005ae:    6800        .h      LDR      r0,[r0,#0]
        0x080005b0:    4770        pG      BX       lr
    $d
        0x080005b2:    0000        ..      DCW    0
        0x080005b4:    20000004    ...     DCD    536870916
    $t
    i.HAL_IncTick
    HAL_IncTick
        0x080005b8:    4803        .H      LDR      r0,[pc,#12] ; [0x80005c8] = 0x20000004
        0x080005ba:    6800        .h      LDR      r0,[r0,#0]
        0x080005bc:    4903        .I      LDR      r1,[pc,#12] ; [0x80005cc] = 0x2000000c
        0x080005be:    7809        .x      LDRB     r1,[r1,#0]
        0x080005c0:    4408        .D      ADD      r0,r0,r1
        0x080005c2:    4901        .I      LDR      r1,[pc,#4] ; [0x80005c8] = 0x20000004
        0x080005c4:    6008        .`      STR      r0,[r1,#0]
        0x080005c6:    4770        pG      BX       lr
    $d
        0x080005c8:    20000004    ...     DCD    536870916
        0x080005cc:    2000000c    ...     DCD    536870924
    $t
    i.HAL_Init
    HAL_Init
        0x080005d0:    b510        ..      PUSH     {r4,lr}
        0x080005d2:    480d        .H      LDR      r0,[pc,#52] ; [0x8000608] = 0x40023c00
        0x080005d4:    6800        .h      LDR      r0,[r0,#0]
        0x080005d6:    f4407000    @..p    ORR      r0,r0,#0x200
        0x080005da:    490b        .I      LDR      r1,[pc,#44] ; [0x8000608] = 0x40023c00
        0x080005dc:    6008        .`      STR      r0,[r1,#0]
        0x080005de:    4608        .F      MOV      r0,r1
        0x080005e0:    6800        .h      LDR      r0,[r0,#0]
        0x080005e2:    f4406080    @..`    ORR      r0,r0,#0x400
        0x080005e6:    6008        .`      STR      r0,[r1,#0]
        0x080005e8:    4608        .F      MOV      r0,r1
        0x080005ea:    6800        .h      LDR      r0,[r0,#0]
        0x080005ec:    f4407080    @..p    ORR      r0,r0,#0x100
        0x080005f0:    6008        .`      STR      r0,[r1,#0]
        0x080005f2:    2003        .       MOVS     r0,#3
        0x080005f4:    f000f8d6    ....    BL       HAL_NVIC_SetPriorityGrouping ; 0x80007a4
        0x080005f8:    200f        .       MOVS     r0,#0xf
        0x080005fa:    f000f807    ....    BL       HAL_InitTick ; 0x800060c
        0x080005fe:    f000f855    ..U.    BL       HAL_MspInit ; 0x80006ac
        0x08000602:    2000        .       MOVS     r0,#0
        0x08000604:    bd10        ..      POP      {r4,pc}
    $d
        0x08000606:    0000        ..      DCW    0
        0x08000608:    40023c00    .<.@    DCD    1073888256
    $t
    i.HAL_InitTick
    HAL_InitTick
        0x0800060c:    b5f0        ..      PUSH     {r4-r7,lr}
        0x0800060e:    b087        ..      SUB      sp,sp,#0x1c
        0x08000610:    4604        .F      MOV      r4,r0
        0x08000612:    2600        .&      MOVS     r6,#0
        0x08000614:    2700        .'      MOVS     r7,#0
        0x08000616:    bf00        ..      NOP      
        0x08000618:    2000        .       MOVS     r0,#0
        0x0800061a:    9000        ..      STR      r0,[sp,#0]
        0x0800061c:    481e        .H      LDR      r0,[pc,#120] ; [0x8000698] = 0x40023844
        0x0800061e:    6800        .h      LDR      r0,[r0,#0]
        0x08000620:    f0400001    @...    ORR      r0,r0,#1
        0x08000624:    491c        .I      LDR      r1,[pc,#112] ; [0x8000698] = 0x40023844
        0x08000626:    6008        .`      STR      r0,[r1,#0]
        0x08000628:    4608        .F      MOV      r0,r1
        0x0800062a:    6800        .h      LDR      r0,[r0,#0]
        0x0800062c:    f0000001    ....    AND      r0,r0,#1
        0x08000630:    9000        ..      STR      r0,[sp,#0]
        0x08000632:    bf00        ..      NOP      
        0x08000634:    bf00        ..      NOP      
        0x08000636:    a901        ..      ADD      r1,sp,#4
        0x08000638:    a802        ..      ADD      r0,sp,#8
        0x0800063a:    f000fa65    ..e.    BL       HAL_RCC_GetClockConfig ; 0x8000b08
        0x0800063e:    f000fa9b    ....    BL       HAL_RCC_GetPCLK2Freq ; 0x8000b78
        0x08000642:    4606        .F      MOV      r6,r0
        0x08000644:    4815        .H      LDR      r0,[pc,#84] ; [0x800069c] = 0xf4240
        0x08000646:    fbb6f0f0    ....    UDIV     r0,r6,r0
        0x0800064a:    1e47        G.      SUBS     r7,r0,#1
        0x0800064c:    4814        .H      LDR      r0,[pc,#80] ; [0x80006a0] = 0x40010000
        0x0800064e:    4915        .I      LDR      r1,[pc,#84] ; [0x80006a4] = 0x20000130
        0x08000650:    6008        .`      STR      r0,[r1,#0]
        0x08000652:    f24031e7    @..1    MOV      r1,#0x3e7
        0x08000656:    4813        .H      LDR      r0,[pc,#76] ; [0x80006a4] = 0x20000130
        0x08000658:    60c1        .`      STR      r1,[r0,#0xc]
        0x0800065a:    6047        G`      STR      r7,[r0,#4]
        0x0800065c:    2100        .!      MOVS     r1,#0
        0x0800065e:    6101        .a      STR      r1,[r0,#0x10]
        0x08000660:    6081        .`      STR      r1,[r0,#8]
        0x08000662:    6181        .a      STR      r1,[r0,#0x18]
        0x08000664:    f000fdd4    ....    BL       HAL_TIM_Base_Init ; 0x8001210
        0x08000668:    4605        .F      MOV      r5,r0
        0x0800066a:    b995        ..      CBNZ     r5,0x8000692 ; HAL_InitTick + 134
        0x0800066c:    480d        .H      LDR      r0,[pc,#52] ; [0x80006a4] = 0x20000130
        0x0800066e:    f000fe03    ....    BL       HAL_TIM_Base_Start_IT ; 0x8001278
        0x08000672:    4605        .F      MOV      r5,r0
        0x08000674:    b96d        m.      CBNZ     r5,0x8000692 ; HAL_InitTick + 134
        0x08000676:    2019        .       MOVS     r0,#0x19
        0x08000678:    f000f842    ..B.    BL       HAL_NVIC_EnableIRQ ; 0x8000700
        0x0800067c:    2c10        .,      CMP      r4,#0x10
        0x0800067e:    d207        ..      BCS      0x8000690 ; HAL_InitTick + 132
        0x08000680:    2200        ."      MOVS     r2,#0
        0x08000682:    4621        !F      MOV      r1,r4
        0x08000684:    2019        .       MOVS     r0,#0x19
        0x08000686:    f000f84f    ..O.    BL       HAL_NVIC_SetPriority ; 0x8000728
        0x0800068a:    4807        .H      LDR      r0,[pc,#28] ; [0x80006a8] = 0x20000008
        0x0800068c:    6004        .`      STR      r4,[r0,#0]
        0x0800068e:    e000        ..      B        0x8000692 ; HAL_InitTick + 134
        0x08000690:    2501        .%      MOVS     r5,#1
        0x08000692:    4628        (F      MOV      r0,r5
        0x08000694:    b007        ..      ADD      sp,sp,#0x1c
        0x08000696:    bdf0        ..      POP      {r4-r7,pc}
    $d
        0x08000698:    40023844    D8.@    DCD    1073887300
        0x0800069c:    000f4240    @B..    DCD    1000000
        0x080006a0:    40010000    ...@    DCD    1073807360
        0x080006a4:    20000130    0..     DCD    536871216
        0x080006a8:    20000008    ...     DCD    536870920
    $t
    i.HAL_MspInit
    HAL_MspInit
        0x080006ac:    b508        ..      PUSH     {r3,lr}
        0x080006ae:    bf00        ..      NOP      
        0x080006b0:    2000        .       MOVS     r0,#0
        0x080006b2:    9000        ..      STR      r0,[sp,#0]
        0x080006b4:    4811        .H      LDR      r0,[pc,#68] ; [0x80006fc] = 0x40023844
        0x080006b6:    6800        .h      LDR      r0,[r0,#0]
        0x080006b8:    f4404080    @..@    ORR      r0,r0,#0x4000
        0x080006bc:    490f        .I      LDR      r1,[pc,#60] ; [0x80006fc] = 0x40023844
        0x080006be:    6008        .`      STR      r0,[r1,#0]
        0x080006c0:    4608        .F      MOV      r0,r1
        0x080006c2:    6800        .h      LDR      r0,[r0,#0]
        0x080006c4:    f4004080    ...@    AND      r0,r0,#0x4000
        0x080006c8:    9000        ..      STR      r0,[sp,#0]
        0x080006ca:    bf00        ..      NOP      
        0x080006cc:    bf00        ..      NOP      
        0x080006ce:    bf00        ..      NOP      
        0x080006d0:    2000        .       MOVS     r0,#0
        0x080006d2:    9000        ..      STR      r0,[sp,#0]
        0x080006d4:    1f08        ..      SUBS     r0,r1,#4
        0x080006d6:    6800        .h      LDR      r0,[r0,#0]
        0x080006d8:    f0405080    @..P    ORR      r0,r0,#0x10000000
        0x080006dc:    1f09        ..      SUBS     r1,r1,#4
        0x080006de:    6008        .`      STR      r0,[r1,#0]
        0x080006e0:    4608        .F      MOV      r0,r1
        0x080006e2:    6800        .h      LDR      r0,[r0,#0]
        0x080006e4:    f0005080    ...P    AND      r0,r0,#0x10000000
        0x080006e8:    9000        ..      STR      r0,[sp,#0]
        0x080006ea:    bf00        ..      NOP      
        0x080006ec:    bf00        ..      NOP      
        0x080006ee:    2200        ."      MOVS     r2,#0
        0x080006f0:    210f        .!      MOVS     r1,#0xf
        0x080006f2:    1e90        ..      SUBS     r0,r2,#2
        0x080006f4:    f000f818    ....    BL       HAL_NVIC_SetPriority ; 0x8000728
        0x080006f8:    bd08        ..      POP      {r3,pc}
    $d
        0x080006fa:    0000        ..      DCW    0
        0x080006fc:    40023844    D8.@    DCD    1073887300
    $t
    i.HAL_NVIC_EnableIRQ
    HAL_NVIC_EnableIRQ
        0x08000700:    4601        .F      MOV      r1,r0
        0x08000702:    4608        .F      MOV      r0,r1
        0x08000704:    2800        .(      CMP      r0,#0
        0x08000706:    db0d        ..      BLT      0x8000724 ; HAL_NVIC_EnableIRQ + 36
        0x08000708:    bf00        ..      NOP      
        0x0800070a:    bf00        ..      NOP      
        0x0800070c:    f000031f    ....    AND      r3,r0,#0x1f
        0x08000710:    2201        ."      MOVS     r2,#1
        0x08000712:    409a        .@      LSLS     r2,r2,r3
        0x08000714:    0943        C.      LSRS     r3,r0,#5
        0x08000716:    009b        ..      LSLS     r3,r3,#2
        0x08000718:    f10323e0    ...#    ADD      r3,r3,#0xe000e000
        0x0800071c:    f8c32100    ...!    STR      r2,[r3,#0x100]
        0x08000720:    bf00        ..      NOP      
        0x08000722:    bf00        ..      NOP      
        0x08000724:    bf00        ..      NOP      
        0x08000726:    4770        pG      BX       lr
    i.HAL_NVIC_SetPriority
    HAL_NVIC_SetPriority
        0x08000728:    e92d5ff0    -.._    PUSH     {r4-r12,lr}
        0x0800072c:    4680        .F      MOV      r8,r0
        0x0800072e:    460d        .F      MOV      r5,r1
        0x08000730:    4616        .F      MOV      r6,r2
        0x08000732:    2700        .'      MOVS     r7,#0
        0x08000734:    f001fb46    ..F.    BL       __NVIC_GetPriorityGrouping ; 0x8001dc4
        0x08000738:    4607        .F      MOV      r7,r0
        0x0800073a:    4639        9F      MOV      r1,r7
        0x0800073c:    462a        *F      MOV      r2,r5
        0x0800073e:    4633        3F      MOV      r3,r6
        0x08000740:    f0010007    ....    AND      r0,r1,#7
        0x08000744:    f1c00a07    ....    RSB      r10,r0,#7
        0x08000748:    f1ba0f04    ....    CMP      r10,#4
        0x0800074c:    d902        ..      BLS      0x8000754 ; HAL_NVIC_SetPriority + 44
        0x0800074e:    f04f0a04    O...    MOV      r10,#4
        0x08000752:    e001        ..      B        0x8000758 ; HAL_NVIC_SetPriority + 48
        0x08000754:    f1c00a07    ....    RSB      r10,r0,#7
        0x08000758:    46d1        .F      MOV      r9,r10
        0x0800075a:    f1000a04    ....    ADD      r10,r0,#4
        0x0800075e:    f1ba0f07    ....    CMP      r10,#7
        0x08000762:    d202        ..      BCS      0x800076a ; HAL_NVIC_SetPriority + 66
        0x08000764:    f04f0a00    O...    MOV      r10,#0
        0x08000768:    e001        ..      B        0x800076e ; HAL_NVIC_SetPriority + 70
        0x0800076a:    f1a00a03    ....    SUB      r10,r0,#3
        0x0800076e:    46d4        .F      MOV      r12,r10
        0x08000770:    f04f0a01    O...    MOV      r10,#1
        0x08000774:    fa0afa09    ....    LSL      r10,r10,r9
        0x08000778:    f1aa0a01    ....    SUB      r10,r10,#1
        0x0800077c:    ea0a0a02    ....    AND      r10,r10,r2
        0x08000780:    fa0afa0c    ....    LSL      r10,r10,r12
        0x08000784:    f04f0b01    O...    MOV      r11,#1
        0x08000788:    fa0bfb0c    ....    LSL      r11,r11,r12
        0x0800078c:    f1ab0b01    ....    SUB      r11,r11,#1
        0x08000790:    ea0b0b03    ....    AND      r11,r11,r3
        0x08000794:    ea4a040b    J...    ORR      r4,r10,r11
        0x08000798:    4621        !F      MOV      r1,r4
        0x0800079a:    4640        @F      MOV      r0,r8
        0x0800079c:    f001fb1a    ....    BL       __NVIC_SetPriority ; 0x8001dd4
        0x080007a0:    e8bd9ff0    ....    POP      {r4-r12,pc}
    i.HAL_NVIC_SetPriorityGrouping
    HAL_NVIC_SetPriorityGrouping
        0x080007a4:    bf00        ..      NOP      
        0x080007a6:    f0000207    ....    AND      r2,r0,#7
        0x080007aa:    4b06        .K      LDR      r3,[pc,#24] ; [0x80007c4] = 0xe000ed0c
        0x080007ac:    6819        .h      LDR      r1,[r3,#0]
        0x080007ae:    f64f03ff    O...    MOV      r3,#0xf8ff
        0x080007b2:    4019        .@      ANDS     r1,r1,r3
        0x080007b4:    4b04        .K      LDR      r3,[pc,#16] ; [0x80007c8] = 0x5fa0000
        0x080007b6:    430b        .C      ORRS     r3,r3,r1
        0x080007b8:    ea432102    C..!    ORR      r1,r3,r2,LSL #8
        0x080007bc:    4b01        .K      LDR      r3,[pc,#4] ; [0x80007c4] = 0xe000ed0c
        0x080007be:    6019        .`      STR      r1,[r3,#0]
        0x080007c0:    bf00        ..      NOP      
        0x080007c2:    4770        pG      BX       lr
    $d
        0x080007c4:    e000ed0c    ....    DCD    3758157068
        0x080007c8:    05fa0000    ....    DCD    100270080
    $t
    i.HAL_RCCEx_PeriphCLKConfig
    HAL_RCCEx_PeriphCLKConfig
        0x080007cc:    b5f8        ..      PUSH     {r3-r7,lr}
        0x080007ce:    4604        .F      MOV      r4,r0
        0x080007d0:    2500        .%      MOVS     r5,#0
        0x080007d2:    2600        .&      MOVS     r6,#0
        0x080007d4:    7820         x      LDRB     r0,[r4,#0]
        0x080007d6:    f0000001    ....    AND      r0,r0,#1
        0x080007da:    b920         .      CBNZ     r0,0x80007e6 ; HAL_RCCEx_PeriphCLKConfig + 26
        0x080007dc:    7820         x      LDRB     r0,[r4,#0]
        0x080007de:    f0000004    ....    AND      r0,r0,#4
        0x080007e2:    2804        .(      CMP      r0,#4
        0x080007e4:    d131        1.      BNE      0x800084a ; HAL_RCCEx_PeriphCLKConfig + 126
        0x080007e6:    2000        .       MOVS     r0,#0
        0x080007e8:    4960        `I      LDR      r1,[pc,#384] ; [0x800096c] = 0x42470000
        0x080007ea:    6688        .f      STR      r0,[r1,#0x68]
        0x080007ec:    f7fffede    ....    BL       HAL_GetTick ; 0x80005ac
        0x080007f0:    4605        .F      MOV      r5,r0
        0x080007f2:    e006        ..      B        0x8000802 ; HAL_RCCEx_PeriphCLKConfig + 54
        0x080007f4:    f7fffeda    ....    BL       HAL_GetTick ; 0x80005ac
        0x080007f8:    1b40        @.      SUBS     r0,r0,r5
        0x080007fa:    2802        .(      CMP      r0,#2
        0x080007fc:    d901        ..      BLS      0x8000802 ; HAL_RCCEx_PeriphCLKConfig + 54
        0x080007fe:    2003        .       MOVS     r0,#3
        0x08000800:    bdf8        ..      POP      {r3-r7,pc}
        0x08000802:    485b        [H      LDR      r0,[pc,#364] ; [0x8000970] = 0x40023800
        0x08000804:    6800        .h      LDR      r0,[r0,#0]
        0x08000806:    f3c060c0    ...`    UBFX     r0,r0,#27,#1
        0x0800080a:    2800        .(      CMP      r0,#0
        0x0800080c:    d1f2        ..      BNE      0x80007f4 ; HAL_RCCEx_PeriphCLKConfig + 40
        0x0800080e:    e9d41001    ....    LDRD     r1,r0,[r4,#4]
        0x08000812:    ea411180    A...    ORR      r1,r1,r0,LSL #6
        0x08000816:    7b20         {      LDRB     r0,[r4,#0xc]
        0x08000818:    ea417000    A..p    ORR      r0,r1,r0,LSL #28
        0x0800081c:    4954        TI      LDR      r1,[pc,#336] ; [0x8000970] = 0x40023800
        0x0800081e:    3184        .1      ADDS     r1,r1,#0x84
        0x08000820:    6008        .`      STR      r0,[r1,#0]
        0x08000822:    2001        .       MOVS     r0,#1
        0x08000824:    4951        QI      LDR      r1,[pc,#324] ; [0x800096c] = 0x42470000
        0x08000826:    6688        .f      STR      r0,[r1,#0x68]
        0x08000828:    f7fffec0    ....    BL       HAL_GetTick ; 0x80005ac
        0x0800082c:    4605        .F      MOV      r5,r0
        0x0800082e:    e006        ..      B        0x800083e ; HAL_RCCEx_PeriphCLKConfig + 114
        0x08000830:    f7fffebc    ....    BL       HAL_GetTick ; 0x80005ac
        0x08000834:    1b40        @.      SUBS     r0,r0,r5
        0x08000836:    2802        .(      CMP      r0,#2
        0x08000838:    d901        ..      BLS      0x800083e ; HAL_RCCEx_PeriphCLKConfig + 114
        0x0800083a:    2003        .       MOVS     r0,#3
        0x0800083c:    e7e0        ..      B        0x8000800 ; HAL_RCCEx_PeriphCLKConfig + 52
        0x0800083e:    484c        LH      LDR      r0,[pc,#304] ; [0x8000970] = 0x40023800
        0x08000840:    6800        .h      LDR      r0,[r0,#0]
        0x08000842:    f3c060c0    ...`    UBFX     r0,r0,#27,#1
        0x08000846:    2800        .(      CMP      r0,#0
        0x08000848:    d0f2        ..      BEQ      0x8000830 ; HAL_RCCEx_PeriphCLKConfig + 100
        0x0800084a:    7820         x      LDRB     r0,[r4,#0]
        0x0800084c:    f0000002    ....    AND      r0,r0,#2
        0x08000850:    2802        .(      CMP      r0,#2
        0x08000852:    d17d        }.      BNE      0x8000950 ; HAL_RCCEx_PeriphCLKConfig + 388
        0x08000854:    bf00        ..      NOP      
        0x08000856:    2000        .       MOVS     r0,#0
        0x08000858:    9000        ..      STR      r0,[sp,#0]
        0x0800085a:    4845        EH      LDR      r0,[pc,#276] ; [0x8000970] = 0x40023800
        0x0800085c:    3040        @0      ADDS     r0,r0,#0x40
        0x0800085e:    6800        .h      LDR      r0,[r0,#0]
        0x08000860:    f0405080    @..P    ORR      r0,r0,#0x10000000
        0x08000864:    4942        BI      LDR      r1,[pc,#264] ; [0x8000970] = 0x40023800
        0x08000866:    3140        @1      ADDS     r1,r1,#0x40
        0x08000868:    6008        .`      STR      r0,[r1,#0]
        0x0800086a:    4608        .F      MOV      r0,r1
        0x0800086c:    6800        .h      LDR      r0,[r0,#0]
        0x0800086e:    f0005080    ...P    AND      r0,r0,#0x10000000
        0x08000872:    9000        ..      STR      r0,[sp,#0]
        0x08000874:    bf00        ..      NOP      
        0x08000876:    bf00        ..      NOP      
        0x08000878:    483e        >H      LDR      r0,[pc,#248] ; [0x8000974] = 0x40007000
        0x0800087a:    6800        .h      LDR      r0,[r0,#0]
        0x0800087c:    f4407080    @..p    ORR      r0,r0,#0x100
        0x08000880:    493c        <I      LDR      r1,[pc,#240] ; [0x8000974] = 0x40007000
        0x08000882:    6008        .`      STR      r0,[r1,#0]
        0x08000884:    f7fffe92    ....    BL       HAL_GetTick ; 0x80005ac
        0x08000888:    4605        .F      MOV      r5,r0
        0x0800088a:    e006        ..      B        0x800089a ; HAL_RCCEx_PeriphCLKConfig + 206
        0x0800088c:    f7fffe8e    ....    BL       HAL_GetTick ; 0x80005ac
        0x08000890:    1b40        @.      SUBS     r0,r0,r5
        0x08000892:    2802        .(      CMP      r0,#2
        0x08000894:    d901        ..      BLS      0x800089a ; HAL_RCCEx_PeriphCLKConfig + 206
        0x08000896:    2003        .       MOVS     r0,#3
        0x08000898:    e7b2        ..      B        0x8000800 ; HAL_RCCEx_PeriphCLKConfig + 52
        0x0800089a:    4836        6H      LDR      r0,[pc,#216] ; [0x8000974] = 0x40007000
        0x0800089c:    6800        .h      LDR      r0,[r0,#0]
        0x0800089e:    f4007080    ...p    AND      r0,r0,#0x100
        0x080008a2:    2800        .(      CMP      r0,#0
        0x080008a4:    d0f2        ..      BEQ      0x800088c ; HAL_RCCEx_PeriphCLKConfig + 192
        0x080008a6:    4832        2H      LDR      r0,[pc,#200] ; [0x8000970] = 0x40023800
        0x080008a8:    3070        p0      ADDS     r0,r0,#0x70
        0x080008aa:    6800        .h      LDR      r0,[r0,#0]
        0x080008ac:    f4007640    ..@v    AND      r6,r0,#0x300
        0x080008b0:    b34e        N.      CBZ      r6,0x8000906 ; HAL_RCCEx_PeriphCLKConfig + 314
        0x080008b2:    8a20         .      LDRH     r0,[r4,#0x10]
        0x080008b4:    f4007040    ..@p    AND      r0,r0,#0x300
        0x080008b8:    42b0        .B      CMP      r0,r6
        0x080008ba:    d024        $.      BEQ      0x8000906 ; HAL_RCCEx_PeriphCLKConfig + 314
        0x080008bc:    482c        ,H      LDR      r0,[pc,#176] ; [0x8000970] = 0x40023800
        0x080008be:    3070        p0      ADDS     r0,r0,#0x70
        0x080008c0:    6800        .h      LDR      r0,[r0,#0]
        0x080008c2:    f4207640     .@v    BIC      r6,r0,#0x300
        0x080008c6:    2001        .       MOVS     r0,#1
        0x080008c8:    492b        +I      LDR      r1,[pc,#172] ; [0x8000978] = 0x42470e40
        0x080008ca:    6008        .`      STR      r0,[r1,#0]
        0x080008cc:    2000        .       MOVS     r0,#0
        0x080008ce:    6008        .`      STR      r0,[r1,#0]
        0x080008d0:    4827        'H      LDR      r0,[pc,#156] ; [0x8000970] = 0x40023800
        0x080008d2:    3070        p0      ADDS     r0,r0,#0x70
        0x080008d4:    6006        .`      STR      r6,[r0,#0]
        0x080008d6:    6800        .h      LDR      r0,[r0,#0]
        0x080008d8:    f0000001    ....    AND      r0,r0,#1
        0x080008dc:    b198        ..      CBZ      r0,0x8000906 ; HAL_RCCEx_PeriphCLKConfig + 314
        0x080008de:    f7fffe65    ..e.    BL       HAL_GetTick ; 0x80005ac
        0x080008e2:    4605        .F      MOV      r5,r0
        0x080008e4:    e008        ..      B        0x80008f8 ; HAL_RCCEx_PeriphCLKConfig + 300
        0x080008e6:    f7fffe61    ..a.    BL       HAL_GetTick ; 0x80005ac
        0x080008ea:    1b40        @.      SUBS     r0,r0,r5
        0x080008ec:    f2413188    A..1    MOV      r1,#0x1388
        0x080008f0:    4288        .B      CMP      r0,r1
        0x080008f2:    d901        ..      BLS      0x80008f8 ; HAL_RCCEx_PeriphCLKConfig + 300
        0x080008f4:    2003        .       MOVS     r0,#3
        0x080008f6:    e783        ..      B        0x8000800 ; HAL_RCCEx_PeriphCLKConfig + 52
        0x080008f8:    481d        .H      LDR      r0,[pc,#116] ; [0x8000970] = 0x40023800
        0x080008fa:    3070        p0      ADDS     r0,r0,#0x70
        0x080008fc:    6800        .h      LDR      r0,[r0,#0]
        0x080008fe:    f3c00040    ..@.    UBFX     r0,r0,#1,#1
        0x08000902:    2800        .(      CMP      r0,#0
        0x08000904:    d0ef        ..      BEQ      0x80008e6 ; HAL_RCCEx_PeriphCLKConfig + 282
        0x08000906:    bf00        ..      NOP      
        0x08000908:    8a20         .      LDRH     r0,[r4,#0x10]
        0x0800090a:    f4007040    ..@p    AND      r0,r0,#0x300
        0x0800090e:    f5b07f40    ..@.    CMP      r0,#0x300
        0x08000912:    d10c        ..      BNE      0x800092e ; HAL_RCCEx_PeriphCLKConfig + 354
        0x08000914:    4816        .H      LDR      r0,[pc,#88] ; [0x8000970] = 0x40023800
        0x08000916:    3008        .0      ADDS     r0,r0,#8
        0x08000918:    6800        .h      LDR      r0,[r0,#0]
        0x0800091a:    f42010f8     ...    BIC      r0,r0,#0x1f0000
        0x0800091e:    4a17        .J      LDR      r2,[pc,#92] ; [0x800097c] = 0xffffcff
        0x08000920:    6921        !i      LDR      r1,[r4,#0x10]
        0x08000922:    4011        .@      ANDS     r1,r1,r2
        0x08000924:    4308        .C      ORRS     r0,r0,r1
        0x08000926:    4912        .I      LDR      r1,[pc,#72] ; [0x8000970] = 0x40023800
        0x08000928:    3108        .1      ADDS     r1,r1,#8
        0x0800092a:    6008        .`      STR      r0,[r1,#0]
        0x0800092c:    e007        ..      B        0x800093e ; HAL_RCCEx_PeriphCLKConfig + 370
        0x0800092e:    4810        .H      LDR      r0,[pc,#64] ; [0x8000970] = 0x40023800
        0x08000930:    3008        .0      ADDS     r0,r0,#8
        0x08000932:    6800        .h      LDR      r0,[r0,#0]
        0x08000934:    f42010f8     ...    BIC      r0,r0,#0x1f0000
        0x08000938:    490d        .I      LDR      r1,[pc,#52] ; [0x8000970] = 0x40023800
        0x0800093a:    3108        .1      ADDS     r1,r1,#8
        0x0800093c:    6008        .`      STR      r0,[r1,#0]
        0x0800093e:    480c        .H      LDR      r0,[pc,#48] ; [0x8000970] = 0x40023800
        0x08000940:    3070        p0      ADDS     r0,r0,#0x70
        0x08000942:    6800        .h      LDR      r0,[r0,#0]
        0x08000944:    8a21        !.      LDRH     r1,[r4,#0x10]
        0x08000946:    f3c1010b    ....    UBFX     r1,r1,#0,#12
        0x0800094a:    4308        .C      ORRS     r0,r0,r1
        0x0800094c:    4908        .I      LDR      r1,[pc,#32] ; [0x8000970] = 0x40023800
        0x0800094e:    e000        ..      B        0x8000952 ; HAL_RCCEx_PeriphCLKConfig + 390
        0x08000950:    e002        ..      B        0x8000958 ; HAL_RCCEx_PeriphCLKConfig + 396
        0x08000952:    3170        p1      ADDS     r1,r1,#0x70
        0x08000954:    6008        .`      STR      r0,[r1,#0]
        0x08000956:    bf00        ..      NOP      
        0x08000958:    7820         x      LDRB     r0,[r4,#0]
        0x0800095a:    f0000008    ....    AND      r0,r0,#8
        0x0800095e:    2808        .(      CMP      r0,#8
        0x08000960:    d102        ..      BNE      0x8000968 ; HAL_RCCEx_PeriphCLKConfig + 412
        0x08000962:    7d20         }      LDRB     r0,[r4,#0x14]
        0x08000964:    4906        .I      LDR      r1,[pc,#24] ; [0x8000980] = 0x424711e0
        0x08000966:    6008        .`      STR      r0,[r1,#0]
        0x08000968:    2000        .       MOVS     r0,#0
        0x0800096a:    e749        I.      B        0x8000800 ; HAL_RCCEx_PeriphCLKConfig + 52
    $d
        0x0800096c:    42470000    ..GB    DCD    1111949312
        0x08000970:    40023800    .8.@    DCD    1073887232
        0x08000974:    40007000    .p.@    DCD    1073770496
        0x08000978:    42470e40    @.GB    DCD    1111952960
        0x0800097c:    0ffffcff    ....    DCD    268434687
        0x08000980:    424711e0    ..GB    DCD    1111953888
    $t
    i.HAL_RCC_ClockConfig
    HAL_RCC_ClockConfig
        0x08000984:    b570        p.      PUSH     {r4-r6,lr}
        0x08000986:    4604        .F      MOV      r4,r0
        0x08000988:    460d        .F      MOV      r5,r1
        0x0800098a:    b90c        ..      CBNZ     r4,0x8000990 ; HAL_RCC_ClockConfig + 12
        0x0800098c:    2001        .       MOVS     r0,#1
        0x0800098e:    bd70        p.      POP      {r4-r6,pc}
        0x08000990:    4858        XH      LDR      r0,[pc,#352] ; [0x8000af4] = 0x40023c00
        0x08000992:    6800        .h      LDR      r0,[r0,#0]
        0x08000994:    f0000007    ....    AND      r0,r0,#7
        0x08000998:    42a8        .B      CMP      r0,r5
        0x0800099a:    d209        ..      BCS      0x80009b0 ; HAL_RCC_ClockConfig + 44
        0x0800099c:    4955        UI      LDR      r1,[pc,#340] ; [0x8000af4] = 0x40023c00
        0x0800099e:    700d        .p      STRB     r5,[r1,#0]
        0x080009a0:    4608        .F      MOV      r0,r1
        0x080009a2:    6800        .h      LDR      r0,[r0,#0]
        0x080009a4:    f0000007    ....    AND      r0,r0,#7
        0x080009a8:    42a8        .B      CMP      r0,r5
        0x080009aa:    d001        ..      BEQ      0x80009b0 ; HAL_RCC_ClockConfig + 44
        0x080009ac:    2001        .       MOVS     r0,#1
        0x080009ae:    e7ee        ..      B        0x800098e ; HAL_RCC_ClockConfig + 10
        0x080009b0:    7820         x      LDRB     r0,[r4,#0]
        0x080009b2:    f0000002    ....    AND      r0,r0,#2
        0x080009b6:    2802        .(      CMP      r0,#2
        0x080009b8:    d11d        ..      BNE      0x80009f6 ; HAL_RCC_ClockConfig + 114
        0x080009ba:    7820         x      LDRB     r0,[r4,#0]
        0x080009bc:    f0000004    ....    AND      r0,r0,#4
        0x080009c0:    2804        .(      CMP      r0,#4
        0x080009c2:    d105        ..      BNE      0x80009d0 ; HAL_RCC_ClockConfig + 76
        0x080009c4:    484c        LH      LDR      r0,[pc,#304] ; [0x8000af8] = 0x40023808
        0x080009c6:    6800        .h      LDR      r0,[r0,#0]
        0x080009c8:    f44050e0    @..P    ORR      r0,r0,#0x1c00
        0x080009cc:    494a        JI      LDR      r1,[pc,#296] ; [0x8000af8] = 0x40023808
        0x080009ce:    6008        .`      STR      r0,[r1,#0]
        0x080009d0:    7820         x      LDRB     r0,[r4,#0]
        0x080009d2:    f0000008    ....    AND      r0,r0,#8
        0x080009d6:    2808        .(      CMP      r0,#8
        0x080009d8:    d105        ..      BNE      0x80009e6 ; HAL_RCC_ClockConfig + 98
        0x080009da:    4847        GH      LDR      r0,[pc,#284] ; [0x8000af8] = 0x40023808
        0x080009dc:    6800        .h      LDR      r0,[r0,#0]
        0x080009de:    f4404060    @.`@    ORR      r0,r0,#0xe000
        0x080009e2:    4945        EI      LDR      r1,[pc,#276] ; [0x8000af8] = 0x40023808
        0x080009e4:    6008        .`      STR      r0,[r1,#0]
        0x080009e6:    4844        DH      LDR      r0,[pc,#272] ; [0x8000af8] = 0x40023808
        0x080009e8:    6800        .h      LDR      r0,[r0,#0]
        0x080009ea:    f02000f0     ...    BIC      r0,r0,#0xf0
        0x080009ee:    68a1        .h      LDR      r1,[r4,#8]
        0x080009f0:    4308        .C      ORRS     r0,r0,r1
        0x080009f2:    4941        AI      LDR      r1,[pc,#260] ; [0x8000af8] = 0x40023808
        0x080009f4:    6008        .`      STR      r0,[r1,#0]
        0x080009f6:    7820         x      LDRB     r0,[r4,#0]
        0x080009f8:    f0000001    ....    AND      r0,r0,#1
        0x080009fc:    b3a8        ..      CBZ      r0,0x8000a6a ; HAL_RCC_ClockConfig + 230
        0x080009fe:    6860        `h      LDR      r0,[r4,#4]
        0x08000a00:    2801        .(      CMP      r0,#1
        0x08000a02:    d107        ..      BNE      0x8000a14 ; HAL_RCC_ClockConfig + 144
        0x08000a04:    483c        <H      LDR      r0,[pc,#240] ; [0x8000af8] = 0x40023808
        0x08000a06:    3808        .8      SUBS     r0,r0,#8
        0x08000a08:    6800        .h      LDR      r0,[r0,#0]
        0x08000a0a:    f3c04040    ..@@    UBFX     r0,r0,#17,#1
        0x08000a0e:    b9b8        ..      CBNZ     r0,0x8000a40 ; HAL_RCC_ClockConfig + 188
        0x08000a10:    2001        .       MOVS     r0,#1
        0x08000a12:    e7bc        ..      B        0x800098e ; HAL_RCC_ClockConfig + 10
        0x08000a14:    6860        `h      LDR      r0,[r4,#4]
        0x08000a16:    2802        .(      CMP      r0,#2
        0x08000a18:    d002        ..      BEQ      0x8000a20 ; HAL_RCC_ClockConfig + 156
        0x08000a1a:    6860        `h      LDR      r0,[r4,#4]
        0x08000a1c:    2803        .(      CMP      r0,#3
        0x08000a1e:    d107        ..      BNE      0x8000a30 ; HAL_RCC_ClockConfig + 172
        0x08000a20:    4835        5H      LDR      r0,[pc,#212] ; [0x8000af8] = 0x40023808
        0x08000a22:    3808        .8      SUBS     r0,r0,#8
        0x08000a24:    6800        .h      LDR      r0,[r0,#0]
        0x08000a26:    f3c06040    ..@`    UBFX     r0,r0,#25,#1
        0x08000a2a:    b948        H.      CBNZ     r0,0x8000a40 ; HAL_RCC_ClockConfig + 188
        0x08000a2c:    2001        .       MOVS     r0,#1
        0x08000a2e:    e7ae        ..      B        0x800098e ; HAL_RCC_ClockConfig + 10
        0x08000a30:    4831        1H      LDR      r0,[pc,#196] ; [0x8000af8] = 0x40023808
        0x08000a32:    3808        .8      SUBS     r0,r0,#8
        0x08000a34:    6800        .h      LDR      r0,[r0,#0]
        0x08000a36:    f3c00040    ..@.    UBFX     r0,r0,#1,#1
        0x08000a3a:    b908        ..      CBNZ     r0,0x8000a40 ; HAL_RCC_ClockConfig + 188
        0x08000a3c:    2001        .       MOVS     r0,#1
        0x08000a3e:    e7a6        ..      B        0x800098e ; HAL_RCC_ClockConfig + 10
        0x08000a40:    482d        -H      LDR      r0,[pc,#180] ; [0x8000af8] = 0x40023808
        0x08000a42:    6800        .h      LDR      r0,[r0,#0]
        0x08000a44:    f0200003     ...    BIC      r0,r0,#3
        0x08000a48:    6861        ah      LDR      r1,[r4,#4]
        0x08000a4a:    4308        .C      ORRS     r0,r0,r1
        0x08000a4c:    492a        *I      LDR      r1,[pc,#168] ; [0x8000af8] = 0x40023808
        0x08000a4e:    6008        .`      STR      r0,[r1,#0]
        0x08000a50:    f7fffdac    ....    BL       HAL_GetTick ; 0x80005ac
        0x08000a54:    4606        .F      MOV      r6,r0
        0x08000a56:    e009        ..      B        0x8000a6c ; HAL_RCC_ClockConfig + 232
        0x08000a58:    f7fffda8    ....    BL       HAL_GetTick ; 0x80005ac
        0x08000a5c:    1b80        ..      SUBS     r0,r0,r6
        0x08000a5e:    f2413188    A..1    MOV      r1,#0x1388
        0x08000a62:    4288        .B      CMP      r0,r1
        0x08000a64:    d902        ..      BLS      0x8000a6c ; HAL_RCC_ClockConfig + 232
        0x08000a66:    2003        .       MOVS     r0,#3
        0x08000a68:    e791        ..      B        0x800098e ; HAL_RCC_ClockConfig + 10
        0x08000a6a:    e007        ..      B        0x8000a7c ; HAL_RCC_ClockConfig + 248
        0x08000a6c:    4822        "H      LDR      r0,[pc,#136] ; [0x8000af8] = 0x40023808
        0x08000a6e:    6800        .h      LDR      r0,[r0,#0]
        0x08000a70:    f000000c    ....    AND      r0,r0,#0xc
        0x08000a74:    6861        ah      LDR      r1,[r4,#4]
        0x08000a76:    ebb00f81    ....    CMP      r0,r1,LSL #2
        0x08000a7a:    d1ed        ..      BNE      0x8000a58 ; HAL_RCC_ClockConfig + 212
        0x08000a7c:    481d        .H      LDR      r0,[pc,#116] ; [0x8000af4] = 0x40023c00
        0x08000a7e:    6800        .h      LDR      r0,[r0,#0]
        0x08000a80:    f0000007    ....    AND      r0,r0,#7
        0x08000a84:    42a8        .B      CMP      r0,r5
        0x08000a86:    d909        ..      BLS      0x8000a9c ; HAL_RCC_ClockConfig + 280
        0x08000a88:    491a        .I      LDR      r1,[pc,#104] ; [0x8000af4] = 0x40023c00
        0x08000a8a:    700d        .p      STRB     r5,[r1,#0]
        0x08000a8c:    4608        .F      MOV      r0,r1
        0x08000a8e:    6800        .h      LDR      r0,[r0,#0]
        0x08000a90:    f0000007    ....    AND      r0,r0,#7
        0x08000a94:    42a8        .B      CMP      r0,r5
        0x08000a96:    d001        ..      BEQ      0x8000a9c ; HAL_RCC_ClockConfig + 280
        0x08000a98:    2001        .       MOVS     r0,#1
        0x08000a9a:    e778        x.      B        0x800098e ; HAL_RCC_ClockConfig + 10
        0x08000a9c:    7820         x      LDRB     r0,[r4,#0]
        0x08000a9e:    f0000004    ....    AND      r0,r0,#4
        0x08000aa2:    2804        .(      CMP      r0,#4
        0x08000aa4:    d107        ..      BNE      0x8000ab6 ; HAL_RCC_ClockConfig + 306
        0x08000aa6:    4814        .H      LDR      r0,[pc,#80] ; [0x8000af8] = 0x40023808
        0x08000aa8:    6800        .h      LDR      r0,[r0,#0]
        0x08000aaa:    f42050e0     ..P    BIC      r0,r0,#0x1c00
        0x08000aae:    68e1        .h      LDR      r1,[r4,#0xc]
        0x08000ab0:    4308        .C      ORRS     r0,r0,r1
        0x08000ab2:    4911        .I      LDR      r1,[pc,#68] ; [0x8000af8] = 0x40023808
        0x08000ab4:    6008        .`      STR      r0,[r1,#0]
        0x08000ab6:    7820         x      LDRB     r0,[r4,#0]
        0x08000ab8:    f0000008    ....    AND      r0,r0,#8
        0x08000abc:    2808        .(      CMP      r0,#8
        0x08000abe:    d108        ..      BNE      0x8000ad2 ; HAL_RCC_ClockConfig + 334
        0x08000ac0:    480d        .H      LDR      r0,[pc,#52] ; [0x8000af8] = 0x40023808
        0x08000ac2:    6800        .h      LDR      r0,[r0,#0]
        0x08000ac4:    f4204060     .`@    BIC      r0,r0,#0xe000
        0x08000ac8:    6921        !i      LDR      r1,[r4,#0x10]
        0x08000aca:    ea4000c1    @...    ORR      r0,r0,r1,LSL #3
        0x08000ace:    490a        .I      LDR      r1,[pc,#40] ; [0x8000af8] = 0x40023808
        0x08000ad0:    6008        .`      STR      r0,[r1,#0]
        0x08000ad2:    f000f861    ..a.    BL       HAL_RCC_GetSysClockFreq ; 0x8000b98
        0x08000ad6:    4908        .I      LDR      r1,[pc,#32] ; [0x8000af8] = 0x40023808
        0x08000ad8:    6809        .h      LDR      r1,[r1,#0]
        0x08000ada:    f3c11103    ....    UBFX     r1,r1,#4,#4
        0x08000ade:    4a07        .J      LDR      r2,[pc,#28] ; [0x8000afc] = 0x8004b4c
        0x08000ae0:    5c51        Q\      LDRB     r1,[r2,r1]
        0x08000ae2:    40c8        .@      LSRS     r0,r0,r1
        0x08000ae4:    4906        .I      LDR      r1,[pc,#24] ; [0x8000b00] = 0x20000010
        0x08000ae6:    6008        .`      STR      r0,[r1,#0]
        0x08000ae8:    4806        .H      LDR      r0,[pc,#24] ; [0x8000b04] = 0x20000008
        0x08000aea:    6800        .h      LDR      r0,[r0,#0]
        0x08000aec:    f7fffd8e    ....    BL       HAL_InitTick ; 0x800060c
        0x08000af0:    2000        .       MOVS     r0,#0
        0x08000af2:    e74c        L.      B        0x800098e ; HAL_RCC_ClockConfig + 10
    $d
        0x08000af4:    40023c00    .<.@    DCD    1073888256
        0x08000af8:    40023808    .8.@    DCD    1073887240
        0x08000afc:    08004b4c    LK..    DCD    134237004
        0x08000b00:    20000010    ...     DCD    536870928
        0x08000b04:    20000008    ...     DCD    536870920
    $t
    i.HAL_RCC_GetClockConfig
    HAL_RCC_GetClockConfig
        0x08000b08:    220f        ."      MOVS     r2,#0xf
        0x08000b0a:    6002        .`      STR      r2,[r0,#0]
        0x08000b0c:    4a0d        .J      LDR      r2,[pc,#52] ; [0x8000b44] = 0x40023808
        0x08000b0e:    6812        .h      LDR      r2,[r2,#0]
        0x08000b10:    f0020203    ....    AND      r2,r2,#3
        0x08000b14:    6042        B`      STR      r2,[r0,#4]
        0x08000b16:    4a0b        .J      LDR      r2,[pc,#44] ; [0x8000b44] = 0x40023808
        0x08000b18:    6812        .h      LDR      r2,[r2,#0]
        0x08000b1a:    f00202f0    ....    AND      r2,r2,#0xf0
        0x08000b1e:    6082        .`      STR      r2,[r0,#8]
        0x08000b20:    4a08        .J      LDR      r2,[pc,#32] ; [0x8000b44] = 0x40023808
        0x08000b22:    6812        .h      LDR      r2,[r2,#0]
        0x08000b24:    f40252e0    ...R    AND      r2,r2,#0x1c00
        0x08000b28:    60c2        .`      STR      r2,[r0,#0xc]
        0x08000b2a:    4a06        .J      LDR      r2,[pc,#24] ; [0x8000b44] = 0x40023808
        0x08000b2c:    6812        .h      LDR      r2,[r2,#0]
        0x08000b2e:    f4024260    ..`B    AND      r2,r2,#0xe000
        0x08000b32:    08d2        ..      LSRS     r2,r2,#3
        0x08000b34:    6102        .a      STR      r2,[r0,#0x10]
        0x08000b36:    4a04        .J      LDR      r2,[pc,#16] ; [0x8000b48] = 0x40023c00
        0x08000b38:    6812        .h      LDR      r2,[r2,#0]
        0x08000b3a:    f0020207    ....    AND      r2,r2,#7
        0x08000b3e:    600a        .`      STR      r2,[r1,#0]
        0x08000b40:    4770        pG      BX       lr
    $d
        0x08000b42:    0000        ..      DCW    0
        0x08000b44:    40023808    .8.@    DCD    1073887240
        0x08000b48:    40023c00    .<.@    DCD    1073888256
    $t
    i.HAL_RCC_GetHCLKFreq
    HAL_RCC_GetHCLKFreq
        0x08000b4c:    4801        .H      LDR      r0,[pc,#4] ; [0x8000b54] = 0x20000010
        0x08000b4e:    6800        .h      LDR      r0,[r0,#0]
        0x08000b50:    4770        pG      BX       lr
    $d
        0x08000b52:    0000        ..      DCW    0
        0x08000b54:    20000010    ...     DCD    536870928
    $t
    i.HAL_RCC_GetPCLK1Freq
    HAL_RCC_GetPCLK1Freq
        0x08000b58:    b500        ..      PUSH     {lr}
        0x08000b5a:    f7fffff7    ....    BL       HAL_RCC_GetHCLKFreq ; 0x8000b4c
        0x08000b5e:    4904        .I      LDR      r1,[pc,#16] ; [0x8000b70] = 0x40023808
        0x08000b60:    6809        .h      LDR      r1,[r1,#0]
        0x08000b62:    f3c12182    ...!    UBFX     r1,r1,#10,#3
        0x08000b66:    4a03        .J      LDR      r2,[pc,#12] ; [0x8000b74] = 0x8004b5c
        0x08000b68:    5c51        Q\      LDRB     r1,[r2,r1]
        0x08000b6a:    40c8        .@      LSRS     r0,r0,r1
        0x08000b6c:    bd00        ..      POP      {pc}
    $d
        0x08000b6e:    0000        ..      DCW    0
        0x08000b70:    40023808    .8.@    DCD    1073887240
        0x08000b74:    08004b5c    \K..    DCD    134237020
    $t
    i.HAL_RCC_GetPCLK2Freq
    HAL_RCC_GetPCLK2Freq
        0x08000b78:    b500        ..      PUSH     {lr}
        0x08000b7a:    f7ffffe7    ....    BL       HAL_RCC_GetHCLKFreq ; 0x8000b4c
        0x08000b7e:    4904        .I      LDR      r1,[pc,#16] ; [0x8000b90] = 0x40023808
        0x08000b80:    6809        .h      LDR      r1,[r1,#0]
        0x08000b82:    f3c13142    ..B1    UBFX     r1,r1,#13,#3
        0x08000b86:    4a03        .J      LDR      r2,[pc,#12] ; [0x8000b94] = 0x8004b5c
        0x08000b88:    5c51        Q\      LDRB     r1,[r2,r1]
        0x08000b8a:    40c8        .@      LSRS     r0,r0,r1
        0x08000b8c:    bd00        ..      POP      {pc}
    $d
        0x08000b8e:    0000        ..      DCW    0
        0x08000b90:    40023808    .8.@    DCD    1073887240
        0x08000b94:    08004b5c    \K..    DCD    134237020
    $t
    i.HAL_RCC_GetSysClockFreq
    HAL_RCC_GetSysClockFreq
        0x08000b98:    e92d47f0    -..G    PUSH     {r4-r10,lr}
        0x08000b9c:    2400        .$      MOVS     r4,#0
        0x08000b9e:    2500        .%      MOVS     r5,#0
        0x08000ba0:    2600        .&      MOVS     r6,#0
        0x08000ba2:    46a1        .F      MOV      r9,r4
        0x08000ba4:    4825        %H      LDR      r0,[pc,#148] ; [0x8000c3c] = 0x40023808
        0x08000ba6:    6800        .h      LDR      r0,[r0,#0]
        0x08000ba8:    f000000c    ....    AND      r0,r0,#0xc
        0x08000bac:    b120         .      CBZ      r0,0x8000bb8 ; HAL_RCC_GetSysClockFreq + 32
        0x08000bae:    2804        .(      CMP      r0,#4
        0x08000bb0:    d005        ..      BEQ      0x8000bbe ; HAL_RCC_GetSysClockFreq + 38
        0x08000bb2:    2808        .(      CMP      r0,#8
        0x08000bb4:    d13a        :.      BNE      0x8000c2c ; HAL_RCC_GetSysClockFreq + 148
        0x08000bb6:    e005        ..      B        0x8000bc4 ; HAL_RCC_GetSysClockFreq + 44
        0x08000bb8:    f8df9084    ....    LDR      r9,[pc,#132] ; [0x8000c40] = 0xf42400
        0x08000bbc:    e039        9.      B        0x8000c32 ; HAL_RCC_GetSysClockFreq + 154
        0x08000bbe:    f8df9084    ....    LDR      r9,[pc,#132] ; [0x8000c44] = 0x17d7840
        0x08000bc2:    e036        6.      B        0x8000c32 ; HAL_RCC_GetSysClockFreq + 154
        0x08000bc4:    481d        .H      LDR      r0,[pc,#116] ; [0x8000c3c] = 0x40023808
        0x08000bc6:    1f00        ..      SUBS     r0,r0,#4
        0x08000bc8:    6800        .h      LDR      r0,[r0,#0]
        0x08000bca:    f000043f    ..?.    AND      r4,r0,#0x3f
        0x08000bce:    481b        .H      LDR      r0,[pc,#108] ; [0x8000c3c] = 0x40023808
        0x08000bd0:    1f00        ..      SUBS     r0,r0,#4
        0x08000bd2:    6800        .h      LDR      r0,[r0,#0]
        0x08000bd4:    f4000080    ....    AND      r0,r0,#0x400000
        0x08000bd8:    b178        x.      CBZ      r0,0x8000bfa ; HAL_RCC_GetSysClockFreq + 98
        0x08000bda:    481a        .H      LDR      r0,[pc,#104] ; [0x8000c44] = 0x17d7840
        0x08000bdc:    4917        .I      LDR      r1,[pc,#92] ; [0x8000c3c] = 0x40023808
        0x08000bde:    1f09        ..      SUBS     r1,r1,#4
        0x08000be0:    6809        .h      LDR      r1,[r1,#0]
        0x08000be2:    f3c11188    ....    UBFX     r1,r1,#6,#9
        0x08000be6:    fba07001    ...p    UMULL    r7,r0,r0,r1
        0x08000bea:    4601        .F      MOV      r1,r0
        0x08000bec:    4622        "F      MOV      r2,r4
        0x08000bee:    2300        .#      MOVS     r3,#0
        0x08000bf0:    4638        8F      MOV      r0,r7
        0x08000bf2:    f7fffb4f    ..O.    BL       __aeabi_uldivmod ; 0x8000294
        0x08000bf6:    4605        .F      MOV      r5,r0
        0x08000bf8:    e00e        ..      B        0x8000c18 ; HAL_RCC_GetSysClockFreq + 128
        0x08000bfa:    4811        .H      LDR      r0,[pc,#68] ; [0x8000c40] = 0xf42400
        0x08000bfc:    490f        .I      LDR      r1,[pc,#60] ; [0x8000c3c] = 0x40023808
        0x08000bfe:    1f09        ..      SUBS     r1,r1,#4
        0x08000c00:    6809        .h      LDR      r1,[r1,#0]
        0x08000c02:    f3c11188    ....    UBFX     r1,r1,#6,#9
        0x08000c06:    fba07001    ...p    UMULL    r7,r0,r0,r1
        0x08000c0a:    4601        .F      MOV      r1,r0
        0x08000c0c:    4622        "F      MOV      r2,r4
        0x08000c0e:    2300        .#      MOVS     r3,#0
        0x08000c10:    4638        8F      MOV      r0,r7
        0x08000c12:    f7fffb3f    ..?.    BL       __aeabi_uldivmod ; 0x8000294
        0x08000c16:    4605        .F      MOV      r5,r0
        0x08000c18:    4808        .H      LDR      r0,[pc,#32] ; [0x8000c3c] = 0x40023808
        0x08000c1a:    1f00        ..      SUBS     r0,r0,#4
        0x08000c1c:    6800        .h      LDR      r0,[r0,#0]
        0x08000c1e:    f3c04001    ...@    UBFX     r0,r0,#16,#2
        0x08000c22:    1c40        @.      ADDS     r0,r0,#1
        0x08000c24:    0046        F.      LSLS     r6,r0,#1
        0x08000c26:    fbb5f9f6    ....    UDIV     r9,r5,r6
        0x08000c2a:    e002        ..      B        0x8000c32 ; HAL_RCC_GetSysClockFreq + 154
        0x08000c2c:    f8df9010    ....    LDR      r9,[pc,#16] ; [0x8000c40] = 0xf42400
        0x08000c30:    bf00        ..      NOP      
        0x08000c32:    bf00        ..      NOP      
        0x08000c34:    4648        HF      MOV      r0,r9
        0x08000c36:    e8bd87f0    ....    POP      {r4-r10,pc}
    $d
        0x08000c3a:    0000        ..      DCW    0
        0x08000c3c:    40023808    .8.@    DCD    1073887240
        0x08000c40:    00f42400    .$..    DCD    16000000
        0x08000c44:    017d7840    @x}.    DCD    25000000
    $t
    i.HAL_RCC_OscConfig
    HAL_RCC_OscConfig
        0x08000c48:    b5f8        ..      PUSH     {r3-r7,lr}
        0x08000c4a:    4604        .F      MOV      r4,r0
        0x08000c4c:    b90c        ..      CBNZ     r4,0x8000c52 ; HAL_RCC_OscConfig + 10
        0x08000c4e:    2001        .       MOVS     r0,#1
        0x08000c50:    bdf8        ..      POP      {r3-r7,pc}
        0x08000c52:    7820         x      LDRB     r0,[r4,#0]
        0x08000c54:    f0000001    ....    AND      r0,r0,#1
        0x08000c58:    2800        .(      CMP      r0,#0
        0x08000c5a:    d074        t.      BEQ      0x8000d46 ; HAL_RCC_OscConfig + 254
        0x08000c5c:    48f9        .H      LDR      r0,[pc,#996] ; [0x8001044] = 0x40023808
        0x08000c5e:    6800        .h      LDR      r0,[r0,#0]
        0x08000c60:    f000000c    ....    AND      r0,r0,#0xc
        0x08000c64:    2804        .(      CMP      r0,#4
        0x08000c66:    d00d        ..      BEQ      0x8000c84 ; HAL_RCC_OscConfig + 60
        0x08000c68:    48f6        .H      LDR      r0,[pc,#984] ; [0x8001044] = 0x40023808
        0x08000c6a:    6800        .h      LDR      r0,[r0,#0]
        0x08000c6c:    f000000c    ....    AND      r0,r0,#0xc
        0x08000c70:    2808        .(      CMP      r0,#8
        0x08000c72:    d113        ..      BNE      0x8000c9c ; HAL_RCC_OscConfig + 84
        0x08000c74:    48f3        .H      LDR      r0,[pc,#972] ; [0x8001044] = 0x40023808
        0x08000c76:    1f00        ..      SUBS     r0,r0,#4
        0x08000c78:    6800        .h      LDR      r0,[r0,#0]
        0x08000c7a:    f4000080    ....    AND      r0,r0,#0x400000
        0x08000c7e:    f5b00f80    ....    CMP      r0,#0x400000
        0x08000c82:    d10b        ..      BNE      0x8000c9c ; HAL_RCC_OscConfig + 84
        0x08000c84:    48ef        .H      LDR      r0,[pc,#956] ; [0x8001044] = 0x40023808
        0x08000c86:    3808        .8      SUBS     r0,r0,#8
        0x08000c88:    6800        .h      LDR      r0,[r0,#0]
        0x08000c8a:    f3c04040    ..@@    UBFX     r0,r0,#17,#1
        0x08000c8e:    2800        .(      CMP      r0,#0
        0x08000c90:    d059        Y.      BEQ      0x8000d46 ; HAL_RCC_OscConfig + 254
        0x08000c92:    6860        `h      LDR      r0,[r4,#4]
        0x08000c94:    2800        .(      CMP      r0,#0
        0x08000c96:    d156        V.      BNE      0x8000d46 ; HAL_RCC_OscConfig + 254
        0x08000c98:    2001        .       MOVS     r0,#1
        0x08000c9a:    e7d9        ..      B        0x8000c50 ; HAL_RCC_OscConfig + 8
        0x08000c9c:    bf00        ..      NOP      
        0x08000c9e:    6860        `h      LDR      r0,[r4,#4]
        0x08000ca0:    f5b03f80    ...?    CMP      r0,#0x10000
        0x08000ca4:    d108        ..      BNE      0x8000cb8 ; HAL_RCC_OscConfig + 112
        0x08000ca6:    48e7        .H      LDR      r0,[pc,#924] ; [0x8001044] = 0x40023808
        0x08000ca8:    3808        .8      SUBS     r0,r0,#8
        0x08000caa:    6800        .h      LDR      r0,[r0,#0]
        0x08000cac:    f4403080    @..0    ORR      r0,r0,#0x10000
        0x08000cb0:    49e4        .I      LDR      r1,[pc,#912] ; [0x8001044] = 0x40023808
        0x08000cb2:    3908        .9      SUBS     r1,r1,#8
        0x08000cb4:    6008        .`      STR      r0,[r1,#0]
        0x08000cb6:    e01e        ..      B        0x8000cf6 ; HAL_RCC_OscConfig + 174
        0x08000cb8:    6860        `h      LDR      r0,[r4,#4]
        0x08000cba:    f5b02fa0    .../    CMP      r0,#0x50000
        0x08000cbe:    d10d        ..      BNE      0x8000cdc ; HAL_RCC_OscConfig + 148
        0x08000cc0:    48e0        .H      LDR      r0,[pc,#896] ; [0x8001044] = 0x40023808
        0x08000cc2:    3808        .8      SUBS     r0,r0,#8
        0x08000cc4:    6800        .h      LDR      r0,[r0,#0]
        0x08000cc6:    f4402080    @..     ORR      r0,r0,#0x40000
        0x08000cca:    49de        .I      LDR      r1,[pc,#888] ; [0x8001044] = 0x40023808
        0x08000ccc:    3908        .9      SUBS     r1,r1,#8
        0x08000cce:    6008        .`      STR      r0,[r1,#0]
        0x08000cd0:    4608        .F      MOV      r0,r1
        0x08000cd2:    6800        .h      LDR      r0,[r0,#0]
        0x08000cd4:    f4403080    @..0    ORR      r0,r0,#0x10000
        0x08000cd8:    6008        .`      STR      r0,[r1,#0]
        0x08000cda:    e00c        ..      B        0x8000cf6 ; HAL_RCC_OscConfig + 174
        0x08000cdc:    48d9        .H      LDR      r0,[pc,#868] ; [0x8001044] = 0x40023808
        0x08000cde:    3808        .8      SUBS     r0,r0,#8
        0x08000ce0:    6800        .h      LDR      r0,[r0,#0]
        0x08000ce2:    f4203080     ..0    BIC      r0,r0,#0x10000
        0x08000ce6:    49d7        .I      LDR      r1,[pc,#860] ; [0x8001044] = 0x40023808
        0x08000ce8:    3908        .9      SUBS     r1,r1,#8
        0x08000cea:    6008        .`      STR      r0,[r1,#0]
        0x08000cec:    4608        .F      MOV      r0,r1
        0x08000cee:    6800        .h      LDR      r0,[r0,#0]
        0x08000cf0:    f4202080     ..     BIC      r0,r0,#0x40000
        0x08000cf4:    6008        .`      STR      r0,[r1,#0]
        0x08000cf6:    bf00        ..      NOP      
        0x08000cf8:    6860        `h      LDR      r0,[r4,#4]
        0x08000cfa:    b190        ..      CBZ      r0,0x8000d22 ; HAL_RCC_OscConfig + 218
        0x08000cfc:    f7fffc56    ..V.    BL       HAL_GetTick ; 0x80005ac
        0x08000d00:    4605        .F      MOV      r5,r0
        0x08000d02:    e006        ..      B        0x8000d12 ; HAL_RCC_OscConfig + 202
        0x08000d04:    f7fffc52    ..R.    BL       HAL_GetTick ; 0x80005ac
        0x08000d08:    1b40        @.      SUBS     r0,r0,r5
        0x08000d0a:    2864        d(      CMP      r0,#0x64
        0x08000d0c:    d901        ..      BLS      0x8000d12 ; HAL_RCC_OscConfig + 202
        0x08000d0e:    2003        .       MOVS     r0,#3
        0x08000d10:    e79e        ..      B        0x8000c50 ; HAL_RCC_OscConfig + 8
        0x08000d12:    48cc        .H      LDR      r0,[pc,#816] ; [0x8001044] = 0x40023808
        0x08000d14:    3808        .8      SUBS     r0,r0,#8
        0x08000d16:    6800        .h      LDR      r0,[r0,#0]
        0x08000d18:    f3c04040    ..@@    UBFX     r0,r0,#17,#1
        0x08000d1c:    2800        .(      CMP      r0,#0
        0x08000d1e:    d0f1        ..      BEQ      0x8000d04 ; HAL_RCC_OscConfig + 188
        0x08000d20:    e011        ..      B        0x8000d46 ; HAL_RCC_OscConfig + 254
        0x08000d22:    f7fffc43    ..C.    BL       HAL_GetTick ; 0x80005ac
        0x08000d26:    4605        .F      MOV      r5,r0
        0x08000d28:    e006        ..      B        0x8000d38 ; HAL_RCC_OscConfig + 240
        0x08000d2a:    f7fffc3f    ..?.    BL       HAL_GetTick ; 0x80005ac
        0x08000d2e:    1b40        @.      SUBS     r0,r0,r5
        0x08000d30:    2864        d(      CMP      r0,#0x64
        0x08000d32:    d901        ..      BLS      0x8000d38 ; HAL_RCC_OscConfig + 240
        0x08000d34:    2003        .       MOVS     r0,#3
        0x08000d36:    e78b        ..      B        0x8000c50 ; HAL_RCC_OscConfig + 8
        0x08000d38:    48c2        .H      LDR      r0,[pc,#776] ; [0x8001044] = 0x40023808
        0x08000d3a:    3808        .8      SUBS     r0,r0,#8
        0x08000d3c:    6800        .h      LDR      r0,[r0,#0]
        0x08000d3e:    f3c04040    ..@@    UBFX     r0,r0,#17,#1
        0x08000d42:    2800        .(      CMP      r0,#0
        0x08000d44:    d1f1        ..      BNE      0x8000d2a ; HAL_RCC_OscConfig + 226
        0x08000d46:    7820         x      LDRB     r0,[r4,#0]
        0x08000d48:    f0000002    ....    AND      r0,r0,#2
        0x08000d4c:    2802        .(      CMP      r0,#2
        0x08000d4e:    d15f        _.      BNE      0x8000e10 ; HAL_RCC_OscConfig + 456
        0x08000d50:    48bc        .H      LDR      r0,[pc,#752] ; [0x8001044] = 0x40023808
        0x08000d52:    6800        .h      LDR      r0,[r0,#0]
        0x08000d54:    f000000c    ....    AND      r0,r0,#0xc
        0x08000d58:    b158        X.      CBZ      r0,0x8000d72 ; HAL_RCC_OscConfig + 298
        0x08000d5a:    48ba        .H      LDR      r0,[pc,#744] ; [0x8001044] = 0x40023808
        0x08000d5c:    6800        .h      LDR      r0,[r0,#0]
        0x08000d5e:    f000000c    ....    AND      r0,r0,#0xc
        0x08000d62:    2808        .(      CMP      r0,#8
        0x08000d64:    d11c        ..      BNE      0x8000da0 ; HAL_RCC_OscConfig + 344
        0x08000d66:    48b7        .H      LDR      r0,[pc,#732] ; [0x8001044] = 0x40023808
        0x08000d68:    1f00        ..      SUBS     r0,r0,#4
        0x08000d6a:    6800        .h      LDR      r0,[r0,#0]
        0x08000d6c:    f4000080    ....    AND      r0,r0,#0x400000
        0x08000d70:    b9b0        ..      CBNZ     r0,0x8000da0 ; HAL_RCC_OscConfig + 344
        0x08000d72:    48b4        .H      LDR      r0,[pc,#720] ; [0x8001044] = 0x40023808
        0x08000d74:    3808        .8      SUBS     r0,r0,#8
        0x08000d76:    6800        .h      LDR      r0,[r0,#0]
        0x08000d78:    f3c00040    ..@.    UBFX     r0,r0,#1,#1
        0x08000d7c:    b120         .      CBZ      r0,0x8000d88 ; HAL_RCC_OscConfig + 320
        0x08000d7e:    68e0        .h      LDR      r0,[r4,#0xc]
        0x08000d80:    2801        .(      CMP      r0,#1
        0x08000d82:    d001        ..      BEQ      0x8000d88 ; HAL_RCC_OscConfig + 320
        0x08000d84:    2001        .       MOVS     r0,#1
        0x08000d86:    e763        c.      B        0x8000c50 ; HAL_RCC_OscConfig + 8
        0x08000d88:    48ae        .H      LDR      r0,[pc,#696] ; [0x8001044] = 0x40023808
        0x08000d8a:    3808        .8      SUBS     r0,r0,#8
        0x08000d8c:    6800        .h      LDR      r0,[r0,#0]
        0x08000d8e:    f02000f8     ...    BIC      r0,r0,#0xf8
        0x08000d92:    6921        !i      LDR      r1,[r4,#0x10]
        0x08000d94:    ea4000c1    @...    ORR      r0,r0,r1,LSL #3
        0x08000d98:    49aa        .I      LDR      r1,[pc,#680] ; [0x8001044] = 0x40023808
        0x08000d9a:    3908        .9      SUBS     r1,r1,#8
        0x08000d9c:    6008        .`      STR      r0,[r1,#0]
        0x08000d9e:    e037        7.      B        0x8000e10 ; HAL_RCC_OscConfig + 456
        0x08000da0:    68e0        .h      LDR      r0,[r4,#0xc]
        0x08000da2:    b300        ..      CBZ      r0,0x8000de6 ; HAL_RCC_OscConfig + 414
        0x08000da4:    2001        .       MOVS     r0,#1
        0x08000da6:    49a8        .I      LDR      r1,[pc,#672] ; [0x8001048] = 0x42470000
        0x08000da8:    6008        .`      STR      r0,[r1,#0]
        0x08000daa:    f7fffbff    ....    BL       HAL_GetTick ; 0x80005ac
        0x08000dae:    4605        .F      MOV      r5,r0
        0x08000db0:    e006        ..      B        0x8000dc0 ; HAL_RCC_OscConfig + 376
        0x08000db2:    f7fffbfb    ....    BL       HAL_GetTick ; 0x80005ac
        0x08000db6:    1b40        @.      SUBS     r0,r0,r5
        0x08000db8:    2802        .(      CMP      r0,#2
        0x08000dba:    d901        ..      BLS      0x8000dc0 ; HAL_RCC_OscConfig + 376
        0x08000dbc:    2003        .       MOVS     r0,#3
        0x08000dbe:    e747        G.      B        0x8000c50 ; HAL_RCC_OscConfig + 8
        0x08000dc0:    48a0        .H      LDR      r0,[pc,#640] ; [0x8001044] = 0x40023808
        0x08000dc2:    3808        .8      SUBS     r0,r0,#8
        0x08000dc4:    6800        .h      LDR      r0,[r0,#0]
        0x08000dc6:    f3c00040    ..@.    UBFX     r0,r0,#1,#1
        0x08000dca:    2800        .(      CMP      r0,#0
        0x08000dcc:    d0f1        ..      BEQ      0x8000db2 ; HAL_RCC_OscConfig + 362
        0x08000dce:    489d        .H      LDR      r0,[pc,#628] ; [0x8001044] = 0x40023808
        0x08000dd0:    3808        .8      SUBS     r0,r0,#8
        0x08000dd2:    6800        .h      LDR      r0,[r0,#0]
        0x08000dd4:    f02000f8     ...    BIC      r0,r0,#0xf8
        0x08000dd8:    6921        !i      LDR      r1,[r4,#0x10]
        0x08000dda:    ea4000c1    @...    ORR      r0,r0,r1,LSL #3
        0x08000dde:    4999        .I      LDR      r1,[pc,#612] ; [0x8001044] = 0x40023808
        0x08000de0:    3908        .9      SUBS     r1,r1,#8
        0x08000de2:    6008        .`      STR      r0,[r1,#0]
        0x08000de4:    e014        ..      B        0x8000e10 ; HAL_RCC_OscConfig + 456
        0x08000de6:    2000        .       MOVS     r0,#0
        0x08000de8:    4997        .I      LDR      r1,[pc,#604] ; [0x8001048] = 0x42470000
        0x08000dea:    6008        .`      STR      r0,[r1,#0]
        0x08000dec:    f7fffbde    ....    BL       HAL_GetTick ; 0x80005ac
        0x08000df0:    4605        .F      MOV      r5,r0
        0x08000df2:    e006        ..      B        0x8000e02 ; HAL_RCC_OscConfig + 442
        0x08000df4:    f7fffbda    ....    BL       HAL_GetTick ; 0x80005ac
        0x08000df8:    1b40        @.      SUBS     r0,r0,r5
        0x08000dfa:    2802        .(      CMP      r0,#2
        0x08000dfc:    d901        ..      BLS      0x8000e02 ; HAL_RCC_OscConfig + 442
        0x08000dfe:    2003        .       MOVS     r0,#3
        0x08000e00:    e726        &.      B        0x8000c50 ; HAL_RCC_OscConfig + 8
        0x08000e02:    4890        .H      LDR      r0,[pc,#576] ; [0x8001044] = 0x40023808
        0x08000e04:    3808        .8      SUBS     r0,r0,#8
        0x08000e06:    6800        .h      LDR      r0,[r0,#0]
        0x08000e08:    f3c00040    ..@.    UBFX     r0,r0,#1,#1
        0x08000e0c:    2800        .(      CMP      r0,#0
        0x08000e0e:    d1f1        ..      BNE      0x8000df4 ; HAL_RCC_OscConfig + 428
        0x08000e10:    7820         x      LDRB     r0,[r4,#0]
        0x08000e12:    f0000008    ....    AND      r0,r0,#8
        0x08000e16:    2808        .(      CMP      r0,#8
        0x08000e18:    d12c        ,.      BNE      0x8000e74 ; HAL_RCC_OscConfig + 556
        0x08000e1a:    6960        `i      LDR      r0,[r4,#0x14]
        0x08000e1c:    b1a8        ..      CBZ      r0,0x8000e4a ; HAL_RCC_OscConfig + 514
        0x08000e1e:    2001        .       MOVS     r0,#1
        0x08000e20:    498a        .I      LDR      r1,[pc,#552] ; [0x800104c] = 0x42470e80
        0x08000e22:    6008        .`      STR      r0,[r1,#0]
        0x08000e24:    f7fffbc2    ....    BL       HAL_GetTick ; 0x80005ac
        0x08000e28:    4605        .F      MOV      r5,r0
        0x08000e2a:    e006        ..      B        0x8000e3a ; HAL_RCC_OscConfig + 498
        0x08000e2c:    f7fffbbe    ....    BL       HAL_GetTick ; 0x80005ac
        0x08000e30:    1b40        @.      SUBS     r0,r0,r5
        0x08000e32:    2802        .(      CMP      r0,#2
        0x08000e34:    d901        ..      BLS      0x8000e3a ; HAL_RCC_OscConfig + 498
        0x08000e36:    2003        .       MOVS     r0,#3
        0x08000e38:    e70a        ..      B        0x8000c50 ; HAL_RCC_OscConfig + 8
        0x08000e3a:    4882        .H      LDR      r0,[pc,#520] ; [0x8001044] = 0x40023808
        0x08000e3c:    306c        l0      ADDS     r0,r0,#0x6c
        0x08000e3e:    6800        .h      LDR      r0,[r0,#0]
        0x08000e40:    f3c00040    ..@.    UBFX     r0,r0,#1,#1
        0x08000e44:    2800        .(      CMP      r0,#0
        0x08000e46:    d0f1        ..      BEQ      0x8000e2c ; HAL_RCC_OscConfig + 484
        0x08000e48:    e014        ..      B        0x8000e74 ; HAL_RCC_OscConfig + 556
        0x08000e4a:    2000        .       MOVS     r0,#0
        0x08000e4c:    497f        .I      LDR      r1,[pc,#508] ; [0x800104c] = 0x42470e80
        0x08000e4e:    6008        .`      STR      r0,[r1,#0]
        0x08000e50:    f7fffbac    ....    BL       HAL_GetTick ; 0x80005ac
        0x08000e54:    4605        .F      MOV      r5,r0
        0x08000e56:    e006        ..      B        0x8000e66 ; HAL_RCC_OscConfig + 542
        0x08000e58:    f7fffba8    ....    BL       HAL_GetTick ; 0x80005ac
        0x08000e5c:    1b40        @.      SUBS     r0,r0,r5
        0x08000e5e:    2802        .(      CMP      r0,#2
        0x08000e60:    d901        ..      BLS      0x8000e66 ; HAL_RCC_OscConfig + 542
        0x08000e62:    2003        .       MOVS     r0,#3
        0x08000e64:    e6f4        ..      B        0x8000c50 ; HAL_RCC_OscConfig + 8
        0x08000e66:    4877        wH      LDR      r0,[pc,#476] ; [0x8001044] = 0x40023808
        0x08000e68:    306c        l0      ADDS     r0,r0,#0x6c
        0x08000e6a:    6800        .h      LDR      r0,[r0,#0]
        0x08000e6c:    f3c00040    ..@.    UBFX     r0,r0,#1,#1
        0x08000e70:    2800        .(      CMP      r0,#0
        0x08000e72:    d1f1        ..      BNE      0x8000e58 ; HAL_RCC_OscConfig + 528
        0x08000e74:    7820         x      LDRB     r0,[r4,#0]
        0x08000e76:    f0000004    ....    AND      r0,r0,#4
        0x08000e7a:    2804        .(      CMP      r0,#4
        0x08000e7c:    d170        p.      BNE      0x8000f60 ; HAL_RCC_OscConfig + 792
        0x08000e7e:    2700        .'      MOVS     r7,#0
        0x08000e80:    4870        pH      LDR      r0,[pc,#448] ; [0x8001044] = 0x40023808
        0x08000e82:    3038        80      ADDS     r0,r0,#0x38
        0x08000e84:    6800        .h      LDR      r0,[r0,#0]
        0x08000e86:    f0005080    ...P    AND      r0,r0,#0x10000000
        0x08000e8a:    b990        ..      CBNZ     r0,0x8000eb2 ; HAL_RCC_OscConfig + 618
        0x08000e8c:    bf00        ..      NOP      
        0x08000e8e:    2000        .       MOVS     r0,#0
        0x08000e90:    9000        ..      STR      r0,[sp,#0]
        0x08000e92:    486c        lH      LDR      r0,[pc,#432] ; [0x8001044] = 0x40023808
        0x08000e94:    3038        80      ADDS     r0,r0,#0x38
        0x08000e96:    6800        .h      LDR      r0,[r0,#0]
        0x08000e98:    f0405080    @..P    ORR      r0,r0,#0x10000000
        0x08000e9c:    4969        iI      LDR      r1,[pc,#420] ; [0x8001044] = 0x40023808
        0x08000e9e:    3138        81      ADDS     r1,r1,#0x38
        0x08000ea0:    6008        .`      STR      r0,[r1,#0]
        0x08000ea2:    4608        .F      MOV      r0,r1
        0x08000ea4:    6800        .h      LDR      r0,[r0,#0]
        0x08000ea6:    f0005080    ...P    AND      r0,r0,#0x10000000
        0x08000eaa:    9000        ..      STR      r0,[sp,#0]
        0x08000eac:    bf00        ..      NOP      
        0x08000eae:    bf00        ..      NOP      
        0x08000eb0:    2701        .'      MOVS     r7,#1
        0x08000eb2:    4867        gH      LDR      r0,[pc,#412] ; [0x8001050] = 0x40007000
        0x08000eb4:    6800        .h      LDR      r0,[r0,#0]
        0x08000eb6:    f4007080    ...p    AND      r0,r0,#0x100
        0x08000eba:    b9b0        ..      CBNZ     r0,0x8000eea ; HAL_RCC_OscConfig + 674
        0x08000ebc:    4864        dH      LDR      r0,[pc,#400] ; [0x8001050] = 0x40007000
        0x08000ebe:    6800        .h      LDR      r0,[r0,#0]
        0x08000ec0:    f4407080    @..p    ORR      r0,r0,#0x100
        0x08000ec4:    4962        bI      LDR      r1,[pc,#392] ; [0x8001050] = 0x40007000
        0x08000ec6:    6008        .`      STR      r0,[r1,#0]
        0x08000ec8:    f7fffb70    ..p.    BL       HAL_GetTick ; 0x80005ac
        0x08000ecc:    4605        .F      MOV      r5,r0
        0x08000ece:    e006        ..      B        0x8000ede ; HAL_RCC_OscConfig + 662
        0x08000ed0:    f7fffb6c    ..l.    BL       HAL_GetTick ; 0x80005ac
        0x08000ed4:    1b40        @.      SUBS     r0,r0,r5
        0x08000ed6:    2802        .(      CMP      r0,#2
        0x08000ed8:    d901        ..      BLS      0x8000ede ; HAL_RCC_OscConfig + 662
        0x08000eda:    2003        .       MOVS     r0,#3
        0x08000edc:    e6b8        ..      B        0x8000c50 ; HAL_RCC_OscConfig + 8
        0x08000ede:    485c        \H      LDR      r0,[pc,#368] ; [0x8001050] = 0x40007000
        0x08000ee0:    6800        .h      LDR      r0,[r0,#0]
        0x08000ee2:    f4007080    ...p    AND      r0,r0,#0x100
        0x08000ee6:    2800        .(      CMP      r0,#0
        0x08000ee8:    d0f2        ..      BEQ      0x8000ed0 ; HAL_RCC_OscConfig + 648
        0x08000eea:    bf00        ..      NOP      
        0x08000eec:    68a0        .h      LDR      r0,[r4,#8]
        0x08000eee:    2801        .(      CMP      r0,#1
        0x08000ef0:    d108        ..      BNE      0x8000f04 ; HAL_RCC_OscConfig + 700
        0x08000ef2:    4854        TH      LDR      r0,[pc,#336] ; [0x8001044] = 0x40023808
        0x08000ef4:    3068        h0      ADDS     r0,r0,#0x68
        0x08000ef6:    6800        .h      LDR      r0,[r0,#0]
        0x08000ef8:    f0400001    @...    ORR      r0,r0,#1
        0x08000efc:    4951        QI      LDR      r1,[pc,#324] ; [0x8001044] = 0x40023808
        0x08000efe:    3168        h1      ADDS     r1,r1,#0x68
        0x08000f00:    6008        .`      STR      r0,[r1,#0]
        0x08000f02:    e01d        ..      B        0x8000f40 ; HAL_RCC_OscConfig + 760
        0x08000f04:    68a0        .h      LDR      r0,[r4,#8]
        0x08000f06:    2805        .(      CMP      r0,#5
        0x08000f08:    d10d        ..      BNE      0x8000f26 ; HAL_RCC_OscConfig + 734
        0x08000f0a:    484e        NH      LDR      r0,[pc,#312] ; [0x8001044] = 0x40023808
        0x08000f0c:    3068        h0      ADDS     r0,r0,#0x68
        0x08000f0e:    6800        .h      LDR      r0,[r0,#0]
        0x08000f10:    f0400004    @...    ORR      r0,r0,#4
        0x08000f14:    494b        KI      LDR      r1,[pc,#300] ; [0x8001044] = 0x40023808
        0x08000f16:    3168        h1      ADDS     r1,r1,#0x68
        0x08000f18:    6008        .`      STR      r0,[r1,#0]
        0x08000f1a:    4608        .F      MOV      r0,r1
        0x08000f1c:    6800        .h      LDR      r0,[r0,#0]
        0x08000f1e:    f0400001    @...    ORR      r0,r0,#1
        0x08000f22:    6008        .`      STR      r0,[r1,#0]
        0x08000f24:    e00c        ..      B        0x8000f40 ; HAL_RCC_OscConfig + 760
        0x08000f26:    4847        GH      LDR      r0,[pc,#284] ; [0x8001044] = 0x40023808
        0x08000f28:    3068        h0      ADDS     r0,r0,#0x68
        0x08000f2a:    6800        .h      LDR      r0,[r0,#0]
        0x08000f2c:    f0200001     ...    BIC      r0,r0,#1
        0x08000f30:    4944        DI      LDR      r1,[pc,#272] ; [0x8001044] = 0x40023808
        0x08000f32:    3168        h1      ADDS     r1,r1,#0x68
        0x08000f34:    6008        .`      STR      r0,[r1,#0]
        0x08000f36:    4608        .F      MOV      r0,r1
        0x08000f38:    6800        .h      LDR      r0,[r0,#0]
        0x08000f3a:    f0200004     ...    BIC      r0,r0,#4
        0x08000f3e:    6008        .`      STR      r0,[r1,#0]
        0x08000f40:    bf00        ..      NOP      
        0x08000f42:    68a0        .h      LDR      r0,[r4,#8]
        0x08000f44:    b1a8        ..      CBZ      r0,0x8000f72 ; HAL_RCC_OscConfig + 810
        0x08000f46:    f7fffb31    ..1.    BL       HAL_GetTick ; 0x80005ac
        0x08000f4a:    4605        .F      MOV      r5,r0
        0x08000f4c:    e009        ..      B        0x8000f62 ; HAL_RCC_OscConfig + 794
        0x08000f4e:    f7fffb2d    ..-.    BL       HAL_GetTick ; 0x80005ac
        0x08000f52:    1b40        @.      SUBS     r0,r0,r5
        0x08000f54:    f2413188    A..1    MOV      r1,#0x1388
        0x08000f58:    4288        .B      CMP      r0,r1
        0x08000f5a:    d902        ..      BLS      0x8000f62 ; HAL_RCC_OscConfig + 794
        0x08000f5c:    2003        .       MOVS     r0,#3
        0x08000f5e:    e677        w.      B        0x8000c50 ; HAL_RCC_OscConfig + 8
        0x08000f60:    e026        &.      B        0x8000fb0 ; HAL_RCC_OscConfig + 872
        0x08000f62:    4838        8H      LDR      r0,[pc,#224] ; [0x8001044] = 0x40023808
        0x08000f64:    3068        h0      ADDS     r0,r0,#0x68
        0x08000f66:    6800        .h      LDR      r0,[r0,#0]
        0x08000f68:    f3c00040    ..@.    UBFX     r0,r0,#1,#1
        0x08000f6c:    2800        .(      CMP      r0,#0
        0x08000f6e:    d0ee        ..      BEQ      0x8000f4e ; HAL_RCC_OscConfig + 774
        0x08000f70:    e013        ..      B        0x8000f9a ; HAL_RCC_OscConfig + 850
        0x08000f72:    f7fffb1b    ....    BL       HAL_GetTick ; 0x80005ac
        0x08000f76:    4605        .F      MOV      r5,r0
        0x08000f78:    e008        ..      B        0x8000f8c ; HAL_RCC_OscConfig + 836
        0x08000f7a:    f7fffb17    ....    BL       HAL_GetTick ; 0x80005ac
        0x08000f7e:    1b40        @.      SUBS     r0,r0,r5
        0x08000f80:    f2413188    A..1    MOV      r1,#0x1388
        0x08000f84:    4288        .B      CMP      r0,r1
        0x08000f86:    d901        ..      BLS      0x8000f8c ; HAL_RCC_OscConfig + 836
        0x08000f88:    2003        .       MOVS     r0,#3
        0x08000f8a:    e661        a.      B        0x8000c50 ; HAL_RCC_OscConfig + 8
        0x08000f8c:    482d        -H      LDR      r0,[pc,#180] ; [0x8001044] = 0x40023808
        0x08000f8e:    3068        h0      ADDS     r0,r0,#0x68
        0x08000f90:    6800        .h      LDR      r0,[r0,#0]
        0x08000f92:    f3c00040    ..@.    UBFX     r0,r0,#1,#1
        0x08000f96:    2800        .(      CMP      r0,#0
        0x08000f98:    d1ef        ..      BNE      0x8000f7a ; HAL_RCC_OscConfig + 818
        0x08000f9a:    2f01        ./      CMP      r7,#1
        0x08000f9c:    d107        ..      BNE      0x8000fae ; HAL_RCC_OscConfig + 870
        0x08000f9e:    4829        )H      LDR      r0,[pc,#164] ; [0x8001044] = 0x40023808
        0x08000fa0:    3038        80      ADDS     r0,r0,#0x38
        0x08000fa2:    6800        .h      LDR      r0,[r0,#0]
        0x08000fa4:    f0205080     ..P    BIC      r0,r0,#0x10000000
        0x08000fa8:    4926        &I      LDR      r1,[pc,#152] ; [0x8001044] = 0x40023808
        0x08000faa:    3138        81      ADDS     r1,r1,#0x38
        0x08000fac:    6008        .`      STR      r0,[r1,#0]
        0x08000fae:    bf00        ..      NOP      
        0x08000fb0:    69a0        .i      LDR      r0,[r4,#0x18]
        0x08000fb2:    2800        .(      CMP      r0,#0
        0x08000fb4:    d045        E.      BEQ      0x8001042 ; HAL_RCC_OscConfig + 1018
        0x08000fb6:    4823        #H      LDR      r0,[pc,#140] ; [0x8001044] = 0x40023808
        0x08000fb8:    6800        .h      LDR      r0,[r0,#0]
        0x08000fba:    f000000c    ....    AND      r0,r0,#0xc
        0x08000fbe:    2808        .(      CMP      r0,#8
        0x08000fc0:    d05d        ].      BEQ      0x800107e ; HAL_RCC_OscConfig + 1078
        0x08000fc2:    69a0        .i      LDR      r0,[r4,#0x18]
        0x08000fc4:    2802        .(      CMP      r0,#2
        0x08000fc6:    d145        E.      BNE      0x8001054 ; HAL_RCC_OscConfig + 1036
        0x08000fc8:    2000        .       MOVS     r0,#0
        0x08000fca:    491f        .I      LDR      r1,[pc,#124] ; [0x8001048] = 0x42470000
        0x08000fcc:    6608        .f      STR      r0,[r1,#0x60]
        0x08000fce:    f7fffaed    ....    BL       HAL_GetTick ; 0x80005ac
        0x08000fd2:    4605        .F      MOV      r5,r0
        0x08000fd4:    e006        ..      B        0x8000fe4 ; HAL_RCC_OscConfig + 924
        0x08000fd6:    f7fffae9    ....    BL       HAL_GetTick ; 0x80005ac
        0x08000fda:    1b40        @.      SUBS     r0,r0,r5
        0x08000fdc:    2802        .(      CMP      r0,#2
        0x08000fde:    d901        ..      BLS      0x8000fe4 ; HAL_RCC_OscConfig + 924
        0x08000fe0:    2003        .       MOVS     r0,#3
        0x08000fe2:    e635        5.      B        0x8000c50 ; HAL_RCC_OscConfig + 8
        0x08000fe4:    4817        .H      LDR      r0,[pc,#92] ; [0x8001044] = 0x40023808
        0x08000fe6:    3808        .8      SUBS     r0,r0,#8
        0x08000fe8:    6800        .h      LDR      r0,[r0,#0]
        0x08000fea:    f3c06040    ..@`    UBFX     r0,r0,#25,#1
        0x08000fee:    2800        .(      CMP      r0,#0
        0x08000ff0:    d1f1        ..      BNE      0x8000fd6 ; HAL_RCC_OscConfig + 910
        0x08000ff2:    e9d40107    ....    LDRD     r0,r1,[r4,#0x1c]
        0x08000ff6:    4308        .C      ORRS     r0,r0,r1
        0x08000ff8:    6a61        aj      LDR      r1,[r4,#0x24]
        0x08000ffa:    ea401181    @...    ORR      r1,r0,r1,LSL #6
        0x08000ffe:    2201        ."      MOVS     r2,#1
        0x08001000:    6aa0        .j      LDR      r0,[r4,#0x28]
        0x08001002:    ebc20050    ..P.    RSB      r0,r2,r0,LSR #1
        0x08001006:    ea414100    A..A    ORR      r1,r1,r0,LSL #16
        0x0800100a:    202c        ,       MOVS     r0,#0x2c
        0x0800100c:    5d00        .]      LDRB     r0,[r0,r4]
        0x0800100e:    ea416000    A..`    ORR      r0,r1,r0,LSL #24
        0x08001012:    490c        .I      LDR      r1,[pc,#48] ; [0x8001044] = 0x40023808
        0x08001014:    1f09        ..      SUBS     r1,r1,#4
        0x08001016:    6008        .`      STR      r0,[r1,#0]
        0x08001018:    2001        .       MOVS     r0,#1
        0x0800101a:    490b        .I      LDR      r1,[pc,#44] ; [0x8001048] = 0x42470000
        0x0800101c:    6608        .f      STR      r0,[r1,#0x60]
        0x0800101e:    f7fffac5    ....    BL       HAL_GetTick ; 0x80005ac
        0x08001022:    4605        .F      MOV      r5,r0
        0x08001024:    e006        ..      B        0x8001034 ; HAL_RCC_OscConfig + 1004
        0x08001026:    f7fffac1    ....    BL       HAL_GetTick ; 0x80005ac
        0x0800102a:    1b40        @.      SUBS     r0,r0,r5
        0x0800102c:    2802        .(      CMP      r0,#2
        0x0800102e:    d901        ..      BLS      0x8001034 ; HAL_RCC_OscConfig + 1004
        0x08001030:    2003        .       MOVS     r0,#3
        0x08001032:    e60d        ..      B        0x8000c50 ; HAL_RCC_OscConfig + 8
        0x08001034:    4803        .H      LDR      r0,[pc,#12] ; [0x8001044] = 0x40023808
        0x08001036:    3808        .8      SUBS     r0,r0,#8
        0x08001038:    6800        .h      LDR      r0,[r0,#0]
        0x0800103a:    f3c06040    ..@`    UBFX     r0,r0,#25,#1
        0x0800103e:    2800        .(      CMP      r0,#0
        0x08001040:    d0f1        ..      BEQ      0x8001026 ; HAL_RCC_OscConfig + 990
        0x08001042:    e049        I.      B        0x80010d8 ; HAL_RCC_OscConfig + 1168
    $d
        0x08001044:    40023808    .8.@    DCD    1073887240
        0x08001048:    42470000    ..GB    DCD    1111949312
        0x0800104c:    42470e80    ..GB    DCD    1111953024
        0x08001050:    40007000    .p.@    DCD    1073770496
    $t
        0x08001054:    2000        .       MOVS     r0,#0
        0x08001056:    4921        !I      LDR      r1,[pc,#132] ; [0x80010dc] = 0x42470000
        0x08001058:    6608        .f      STR      r0,[r1,#0x60]
        0x0800105a:    f7fffaa7    ....    BL       HAL_GetTick ; 0x80005ac
        0x0800105e:    4605        .F      MOV      r5,r0
        0x08001060:    e006        ..      B        0x8001070 ; HAL_RCC_OscConfig + 1064
        0x08001062:    f7fffaa3    ....    BL       HAL_GetTick ; 0x80005ac
        0x08001066:    1b40        @.      SUBS     r0,r0,r5
        0x08001068:    2802        .(      CMP      r0,#2
        0x0800106a:    d901        ..      BLS      0x8001070 ; HAL_RCC_OscConfig + 1064
        0x0800106c:    2003        .       MOVS     r0,#3
        0x0800106e:    e5ef        ..      B        0x8000c50 ; HAL_RCC_OscConfig + 8
        0x08001070:    481b        .H      LDR      r0,[pc,#108] ; [0x80010e0] = 0x40023800
        0x08001072:    6800        .h      LDR      r0,[r0,#0]
        0x08001074:    f3c06040    ..@`    UBFX     r0,r0,#25,#1
        0x08001078:    2800        .(      CMP      r0,#0
        0x0800107a:    d1f2        ..      BNE      0x8001062 ; HAL_RCC_OscConfig + 1050
        0x0800107c:    e02c        ,.      B        0x80010d8 ; HAL_RCC_OscConfig + 1168
        0x0800107e:    69a0        .i      LDR      r0,[r4,#0x18]
        0x08001080:    2801        .(      CMP      r0,#1
        0x08001082:    d100        ..      BNE      0x8001086 ; HAL_RCC_OscConfig + 1086
        0x08001084:    e5e4        ..      B        0x8000c50 ; HAL_RCC_OscConfig + 8
        0x08001086:    4816        .H      LDR      r0,[pc,#88] ; [0x80010e0] = 0x40023800
        0x08001088:    1d00        ..      ADDS     r0,r0,#4
        0x0800108a:    6806        .h      LDR      r6,[r0,#0]
        0x0800108c:    69a0        .i      LDR      r0,[r4,#0x18]
        0x0800108e:    2801        .(      CMP      r0,#1
        0x08001090:    d020         .      BEQ      0x80010d4 ; HAL_RCC_OscConfig + 1164
        0x08001092:    f4060180    ....    AND      r1,r6,#0x400000
        0x08001096:    69e0        .i      LDR      r0,[r4,#0x1c]
        0x08001098:    4281        .B      CMP      r1,r0
        0x0800109a:    d11b        ..      BNE      0x80010d4 ; HAL_RCC_OscConfig + 1164
        0x0800109c:    f006013f    ..?.    AND      r1,r6,#0x3f
        0x080010a0:    6a20         j      LDR      r0,[r4,#0x20]
        0x080010a2:    4281        .B      CMP      r1,r0
        0x080010a4:    d116        ..      BNE      0x80010d4 ; HAL_RCC_OscConfig + 1164
        0x080010a6:    f64770c0    G..p    MOV      r0,#0x7fc0
        0x080010aa:    4030        0@      ANDS     r0,r0,r6
        0x080010ac:    6a61        aj      LDR      r1,[r4,#0x24]
        0x080010ae:    ebb01f81    ....    CMP      r0,r1,LSL #6
        0x080010b2:    d10f        ..      BNE      0x80010d4 ; HAL_RCC_OscConfig + 1164
        0x080010b4:    f4063140    ..@1    AND      r1,r6,#0x30000
        0x080010b8:    2201        ."      MOVS     r2,#1
        0x080010ba:    6aa0        .j      LDR      r0,[r4,#0x28]
        0x080010bc:    ebc20050    ..P.    RSB      r0,r2,r0,LSR #1
        0x080010c0:    ebb14f00    ...O    CMP      r1,r0,LSL #16
        0x080010c4:    d106        ..      BNE      0x80010d4 ; HAL_RCC_OscConfig + 1164
        0x080010c6:    f0066170    ..pa    AND      r1,r6,#0xf000000
        0x080010ca:    202c        ,       MOVS     r0,#0x2c
        0x080010cc:    5d00        .]      LDRB     r0,[r0,r4]
        0x080010ce:    ebb16f00    ...o    CMP      r1,r0,LSL #24
        0x080010d2:    d001        ..      BEQ      0x80010d8 ; HAL_RCC_OscConfig + 1168
        0x080010d4:    2001        .       MOVS     r0,#1
        0x080010d6:    e5bb        ..      B        0x8000c50 ; HAL_RCC_OscConfig + 8
        0x080010d8:    2000        .       MOVS     r0,#0
        0x080010da:    e5b9        ..      B        0x8000c50 ; HAL_RCC_OscConfig + 8
    $d
        0x080010dc:    42470000    ..GB    DCD    1111949312
        0x080010e0:    40023800    .8.@    DCD    1073887232
    $t
    i.HAL_RTC_Init
    HAL_RTC_Init
        0x080010e4:    b570        p.      PUSH     {r4-r6,lr}
        0x080010e6:    4604        .F      MOV      r4,r0
        0x080010e8:    2501        .%      MOVS     r5,#1
        0x080010ea:    b90c        ..      CBNZ     r4,0x80010f0 ; HAL_RTC_Init + 12
        0x080010ec:    2001        .       MOVS     r0,#1
        0x080010ee:    bd70        p.      POP      {r4-r6,pc}
        0x080010f0:    7f60        `.      LDRB     r0,[r4,#0x1d]
        0x080010f2:    b920         .      CBNZ     r0,0x80010fe ; HAL_RTC_Init + 26
        0x080010f4:    2000        .       MOVS     r0,#0
        0x080010f6:    7720         w      STRB     r0,[r4,#0x1c]
        0x080010f8:    4620         F      MOV      r0,r4
        0x080010fa:    f000f84d    ..M.    BL       HAL_RTC_MspInit ; 0x8001198
        0x080010fe:    2002        .       MOVS     r0,#2
        0x08001100:    7760        `w      STRB     r0,[r4,#0x1d]
        0x08001102:    6820         h      LDR      r0,[r4,#0]
        0x08001104:    68c0        .h      LDR      r0,[r0,#0xc]
        0x08001106:    f3c01000    ....    UBFX     r0,r0,#4,#1
        0x0800110a:    2800        .(      CMP      r0,#0
        0x0800110c:    d13c        <.      BNE      0x8001188 ; HAL_RTC_Init + 164
        0x0800110e:    bf00        ..      NOP      
        0x08001110:    20ca        .       MOVS     r0,#0xca
        0x08001112:    6821        !h      LDR      r1,[r4,#0]
        0x08001114:    6248        Hb      STR      r0,[r1,#0x24]
        0x08001116:    2053        S       MOVS     r0,#0x53
        0x08001118:    6821        !h      LDR      r1,[r4,#0]
        0x0800111a:    6248        Hb      STR      r0,[r1,#0x24]
        0x0800111c:    bf00        ..      NOP      
        0x0800111e:    4620         F      MOV      r0,r4
        0x08001120:    f000fb3c    ..<.    BL       RTC_EnterInitMode ; 0x800179c
        0x08001124:    4605        .F      MOV      r5,r0
        0x08001126:    b9ed        ..      CBNZ     r5,0x8001164 ; HAL_RTC_Init + 128
        0x08001128:    6820         h      LDR      r0,[r4,#0]
        0x0800112a:    6880        .h      LDR      r0,[r0,#8]
        0x0800112c:    4919        .I      LDR      r1,[pc,#100] ; [0x8001194] = 0xff8fffbf
        0x0800112e:    4008        .@      ANDS     r0,r0,r1
        0x08001130:    6821        !h      LDR      r1,[r4,#0]
        0x08001132:    6088        .`      STR      r0,[r1,#8]
        0x08001134:    6921        !i      LDR      r1,[r4,#0x10]
        0x08001136:    6860        `h      LDR      r0,[r4,#4]
        0x08001138:    4308        .C      ORRS     r0,r0,r1
        0x0800113a:    6961        ai      LDR      r1,[r4,#0x14]
        0x0800113c:    4308        .C      ORRS     r0,r0,r1
        0x0800113e:    6821        !h      LDR      r1,[r4,#0]
        0x08001140:    6889        .h      LDR      r1,[r1,#8]
        0x08001142:    4308        .C      ORRS     r0,r0,r1
        0x08001144:    6821        !h      LDR      r1,[r4,#0]
        0x08001146:    6088        .`      STR      r0,[r1,#8]
        0x08001148:    6821        !h      LDR      r1,[r4,#0]
        0x0800114a:    68e0        .h      LDR      r0,[r4,#0xc]
        0x0800114c:    6108        .a      STR      r0,[r1,#0x10]
        0x0800114e:    6820         h      LDR      r0,[r4,#0]
        0x08001150:    6901        .i      LDR      r1,[r0,#0x10]
        0x08001152:    8920         .      LDRH     r0,[r4,#8]
        0x08001154:    ea414000    A..@    ORR      r0,r1,r0,LSL #16
        0x08001158:    6821        !h      LDR      r1,[r4,#0]
        0x0800115a:    6108        .a      STR      r0,[r1,#0x10]
        0x0800115c:    4620         F      MOV      r0,r4
        0x0800115e:    f000fb42    ..B.    BL       RTC_ExitInitMode ; 0x80017e6
        0x08001162:    4605        .F      MOV      r5,r0
        0x08001164:    b95d        ].      CBNZ     r5,0x800117e ; HAL_RTC_Init + 154
        0x08001166:    6820         h      LDR      r0,[r4,#0]
        0x08001168:    6c00        .l      LDR      r0,[r0,#0x40]
        0x0800116a:    f4202080     ..     BIC      r0,r0,#0x40000
        0x0800116e:    6821        !h      LDR      r1,[r4,#0]
        0x08001170:    6408        .d      STR      r0,[r1,#0x40]
        0x08001172:    6820         h      LDR      r0,[r4,#0]
        0x08001174:    6c00        .l      LDR      r0,[r0,#0x40]
        0x08001176:    69a1        .i      LDR      r1,[r4,#0x18]
        0x08001178:    4308        .C      ORRS     r0,r0,r1
        0x0800117a:    6821        !h      LDR      r1,[r4,#0]
        0x0800117c:    6408        .d      STR      r0,[r1,#0x40]
        0x0800117e:    bf00        ..      NOP      
        0x08001180:    20ff        .       MOVS     r0,#0xff
        0x08001182:    6821        !h      LDR      r1,[r4,#0]
        0x08001184:    6248        Hb      STR      r0,[r1,#0x24]
        0x08001186:    e000        ..      B        0x800118a ; HAL_RTC_Init + 166
        0x08001188:    2500        .%      MOVS     r5,#0
        0x0800118a:    b90d        ..      CBNZ     r5,0x8001190 ; HAL_RTC_Init + 172
        0x0800118c:    2001        .       MOVS     r0,#1
        0x0800118e:    7760        `w      STRB     r0,[r4,#0x1d]
        0x08001190:    4628        (F      MOV      r0,r5
        0x08001192:    e7ac        ..      B        0x80010ee ; HAL_RTC_Init + 10
    $d
        0x08001194:    ff8fffbf    ....    DCD    4287627199
    $t
    i.HAL_RTC_MspInit
    HAL_RTC_MspInit
        0x08001198:    b510        ..      PUSH     {r4,lr}
        0x0800119a:    b086        ..      SUB      sp,sp,#0x18
        0x0800119c:    4604        .F      MOV      r4,r0
        0x0800119e:    2118        .!      MOVS     r1,#0x18
        0x080011a0:    4668        hF      MOV      r0,sp
        0x080011a2:    f7fff8c1    ....    BL       __aeabi_memclr ; 0x8000328
        0x080011a6:    4909        .I      LDR      r1,[pc,#36] ; [0x80011cc] = 0x40002800
        0x080011a8:    6820         h      LDR      r0,[r4,#0]
        0x080011aa:    4288        .B      CMP      r0,r1
        0x080011ac:    d10c        ..      BNE      0x80011c8 ; HAL_RTC_MspInit + 48
        0x080011ae:    2002        .       MOVS     r0,#2
        0x080011b0:    9000        ..      STR      r0,[sp,#0]
        0x080011b2:    0200        ..      LSLS     r0,r0,#8
        0x080011b4:    9004        ..      STR      r0,[sp,#0x10]
        0x080011b6:    4668        hF      MOV      r0,sp
        0x080011b8:    f7fffb08    ....    BL       HAL_RCCEx_PeriphCLKConfig ; 0x80007cc
        0x080011bc:    b108        ..      CBZ      r0,0x80011c2 ; HAL_RTC_MspInit + 42
        0x080011be:    f7fff908    ....    BL       Error_Handler ; 0x80003d2
        0x080011c2:    2001        .       MOVS     r0,#1
        0x080011c4:    4902        .I      LDR      r1,[pc,#8] ; [0x80011d0] = 0x42470e3c
        0x080011c6:    6008        .`      STR      r0,[r1,#0]
        0x080011c8:    b006        ..      ADD      sp,sp,#0x18
        0x080011ca:    bd10        ..      POP      {r4,pc}
    $d
        0x080011cc:    40002800    .(.@    DCD    1073752064
        0x080011d0:    42470e3c    <.GB    DCD    1111952956
    $t
    i.HAL_RTC_WaitForSynchro
    HAL_RTC_WaitForSynchro
        0x080011d4:    b570        p.      PUSH     {r4-r6,lr}
        0x080011d6:    4604        .F      MOV      r4,r0
        0x080011d8:    2500        .%      MOVS     r5,#0
        0x080011da:    480b        .H      LDR      r0,[pc,#44] ; [0x8001208] = 0x13f5f
        0x080011dc:    6821        !h      LDR      r1,[r4,#0]
        0x080011de:    60c8        .`      STR      r0,[r1,#0xc]
        0x080011e0:    f7fff9e4    ....    BL       HAL_GetTick ; 0x80005ac
        0x080011e4:    4605        .F      MOV      r5,r0
        0x080011e6:    e007        ..      B        0x80011f8 ; HAL_RTC_WaitForSynchro + 36
        0x080011e8:    f7fff9e0    ....    BL       HAL_GetTick ; 0x80005ac
        0x080011ec:    1b40        @.      SUBS     r0,r0,r5
        0x080011ee:    f5b07f7a    ..z.    CMP      r0,#0x3e8
        0x080011f2:    d901        ..      BLS      0x80011f8 ; HAL_RTC_WaitForSynchro + 36
        0x080011f4:    2003        .       MOVS     r0,#3
        0x080011f6:    bd70        p.      POP      {r4-r6,pc}
        0x080011f8:    6820         h      LDR      r0,[r4,#0]
        0x080011fa:    68c0        .h      LDR      r0,[r0,#0xc]
        0x080011fc:    f0000020    .. .    AND      r0,r0,#0x20
        0x08001200:    2800        .(      CMP      r0,#0
        0x08001202:    d0f1        ..      BEQ      0x80011e8 ; HAL_RTC_WaitForSynchro + 20
        0x08001204:    2000        .       MOVS     r0,#0
        0x08001206:    e7f6        ..      B        0x80011f6 ; HAL_RTC_WaitForSynchro + 34
    $d
        0x08001208:    00013f5f    _?..    DCD    81759
    $t
    i.HAL_TIMEx_BreakCallback
    HAL_TIMEx_BreakCallback
        0x0800120c:    4770        pG      BX       lr
    i.HAL_TIMEx_CommutCallback
    HAL_TIMEx_CommutCallback
        0x0800120e:    4770        pG      BX       lr
    i.HAL_TIM_Base_Init
    HAL_TIM_Base_Init
        0x08001210:    b510        ..      PUSH     {r4,lr}
        0x08001212:    4604        .F      MOV      r4,r0
        0x08001214:    b90c        ..      CBNZ     r4,0x800121a ; HAL_TIM_Base_Init + 10
        0x08001216:    2001        .       MOVS     r0,#1
        0x08001218:    bd10        ..      POP      {r4,pc}
        0x0800121a:    f894003d    ..=.    LDRB     r0,[r4,#0x3d]
        0x0800121e:    b928        (.      CBNZ     r0,0x800122c ; HAL_TIM_Base_Init + 28
        0x08001220:    2000        .       MOVS     r0,#0
        0x08001222:    f884003c    ..<.    STRB     r0,[r4,#0x3c]
        0x08001226:    4620         F      MOV      r0,r4
        0x08001228:    f000f825    ..%.    BL       HAL_TIM_Base_MspInit ; 0x8001276
        0x0800122c:    2002        .       MOVS     r0,#2
        0x0800122e:    f884003d    ..=.    STRB     r0,[r4,#0x3d]
        0x08001232:    1d21        !.      ADDS     r1,r4,#4
        0x08001234:    6820         h      LDR      r0,[r4,#0]
        0x08001236:    f000fb7b    ..{.    BL       TIM_Base_SetConfig ; 0x8001930
        0x0800123a:    2001        .       MOVS     r0,#1
        0x0800123c:    f8840046    ..F.    STRB     r0,[r4,#0x46]
        0x08001240:    bf00        ..      NOP      
        0x08001242:    f884003e    ..>.    STRB     r0,[r4,#0x3e]
        0x08001246:    2101        .!      MOVS     r1,#1
        0x08001248:    203f        ?       MOVS     r0,#0x3f
        0x0800124a:    5501        .U      STRB     r1,[r0,r4]
        0x0800124c:    2040        @       MOVS     r0,#0x40
        0x0800124e:    5501        .U      STRB     r1,[r0,r4]
        0x08001250:    2041        A       MOVS     r0,#0x41
        0x08001252:    5501        .U      STRB     r1,[r0,r4]
        0x08001254:    bf00        ..      NOP      
        0x08001256:    bf00        ..      NOP      
        0x08001258:    2001        .       MOVS     r0,#1
        0x0800125a:    f8840042    ..B.    STRB     r0,[r4,#0x42]
        0x0800125e:    2043        C       MOVS     r0,#0x43
        0x08001260:    5501        .U      STRB     r1,[r0,r4]
        0x08001262:    2044        D       MOVS     r0,#0x44
        0x08001264:    5501        .U      STRB     r1,[r0,r4]
        0x08001266:    2045        E       MOVS     r0,#0x45
        0x08001268:    5501        .U      STRB     r1,[r0,r4]
        0x0800126a:    bf00        ..      NOP      
        0x0800126c:    2001        .       MOVS     r0,#1
        0x0800126e:    f884003d    ..=.    STRB     r0,[r4,#0x3d]
        0x08001272:    2000        .       MOVS     r0,#0
        0x08001274:    e7d0        ..      B        0x8001218 ; HAL_TIM_Base_Init + 8
    i.HAL_TIM_Base_MspInit
    HAL_TIM_Base_MspInit
        0x08001276:    4770        pG      BX       lr
    i.HAL_TIM_Base_Start_IT
    HAL_TIM_Base_Start_IT
        0x08001278:    4601        .F      MOV      r1,r0
        0x0800127a:    f891003d    ..=.    LDRB     r0,[r1,#0x3d]
        0x0800127e:    2801        .(      CMP      r0,#1
        0x08001280:    d001        ..      BEQ      0x8001286 ; HAL_TIM_Base_Start_IT + 14
        0x08001282:    2001        .       MOVS     r0,#1
        0x08001284:    4770        pG      BX       lr
        0x08001286:    2002        .       MOVS     r0,#2
        0x08001288:    f881003d    ..=.    STRB     r0,[r1,#0x3d]
        0x0800128c:    6808        .h      LDR      r0,[r1,#0]
        0x0800128e:    68c0        .h      LDR      r0,[r0,#0xc]
        0x08001290:    f0400001    @...    ORR      r0,r0,#1
        0x08001294:    680b        .h      LDR      r3,[r1,#0]
        0x08001296:    60d8        .`      STR      r0,[r3,#0xc]
        0x08001298:    4b16        .K      LDR      r3,[pc,#88] ; [0x80012f4] = 0x40010000
        0x0800129a:    6808        .h      LDR      r0,[r1,#0]
        0x0800129c:    4298        .B      CMP      r0,r3
        0x0800129e:    d013        ..      BEQ      0x80012c8 ; HAL_TIM_Base_Start_IT + 80
        0x080012a0:    6808        .h      LDR      r0,[r1,#0]
        0x080012a2:    f1b04f80    ...O    CMP      r0,#0x40000000
        0x080012a6:    d00f        ..      BEQ      0x80012c8 ; HAL_TIM_Base_Start_IT + 80
        0x080012a8:    4b13        .K      LDR      r3,[pc,#76] ; [0x80012f8] = 0x40000400
        0x080012aa:    6808        .h      LDR      r0,[r1,#0]
        0x080012ac:    4298        .B      CMP      r0,r3
        0x080012ae:    d00b        ..      BEQ      0x80012c8 ; HAL_TIM_Base_Start_IT + 80
        0x080012b0:    4b12        .K      LDR      r3,[pc,#72] ; [0x80012fc] = 0x40000800
        0x080012b2:    6808        .h      LDR      r0,[r1,#0]
        0x080012b4:    4298        .B      CMP      r0,r3
        0x080012b6:    d007        ..      BEQ      0x80012c8 ; HAL_TIM_Base_Start_IT + 80
        0x080012b8:    4b11        .K      LDR      r3,[pc,#68] ; [0x8001300] = 0x40000c00
        0x080012ba:    6808        .h      LDR      r0,[r1,#0]
        0x080012bc:    4298        .B      CMP      r0,r3
        0x080012be:    d003        ..      BEQ      0x80012c8 ; HAL_TIM_Base_Start_IT + 80
        0x080012c0:    4b10        .K      LDR      r3,[pc,#64] ; [0x8001304] = 0x40014000
        0x080012c2:    6808        .h      LDR      r0,[r1,#0]
        0x080012c4:    4298        .B      CMP      r0,r3
        0x080012c6:    d10c        ..      BNE      0x80012e2 ; HAL_TIM_Base_Start_IT + 106
        0x080012c8:    6808        .h      LDR      r0,[r1,#0]
        0x080012ca:    6880        .h      LDR      r0,[r0,#8]
        0x080012cc:    f0000207    ....    AND      r2,r0,#7
        0x080012d0:    2a06        .*      CMP      r2,#6
        0x080012d2:    d00c        ..      BEQ      0x80012ee ; HAL_TIM_Base_Start_IT + 118
        0x080012d4:    6808        .h      LDR      r0,[r1,#0]
        0x080012d6:    6800        .h      LDR      r0,[r0,#0]
        0x080012d8:    f0400001    @...    ORR      r0,r0,#1
        0x080012dc:    680b        .h      LDR      r3,[r1,#0]
        0x080012de:    6018        .`      STR      r0,[r3,#0]
        0x080012e0:    e005        ..      B        0x80012ee ; HAL_TIM_Base_Start_IT + 118
        0x080012e2:    6808        .h      LDR      r0,[r1,#0]
        0x080012e4:    6800        .h      LDR      r0,[r0,#0]
        0x080012e6:    f0400001    @...    ORR      r0,r0,#1
        0x080012ea:    680b        .h      LDR      r3,[r1,#0]
        0x080012ec:    6018        .`      STR      r0,[r3,#0]
        0x080012ee:    2000        .       MOVS     r0,#0
        0x080012f0:    e7c8        ..      B        0x8001284 ; HAL_TIM_Base_Start_IT + 12
    $d
        0x080012f2:    0000        ..      DCW    0
        0x080012f4:    40010000    ...@    DCD    1073807360
        0x080012f8:    40000400    ...@    DCD    1073742848
        0x080012fc:    40000800    ...@    DCD    1073743872
        0x08001300:    40000c00    ...@    DCD    1073744896
        0x08001304:    40014000    .@.@    DCD    1073823744
    $t
    i.HAL_TIM_IC_CaptureCallback
    HAL_TIM_IC_CaptureCallback
        0x08001308:    4770        pG      BX       lr
    i.HAL_TIM_IRQHandler
    HAL_TIM_IRQHandler
        0x0800130a:    b570        p.      PUSH     {r4-r6,lr}
        0x0800130c:    4604        .F      MOV      r4,r0
        0x0800130e:    6820         h      LDR      r0,[r4,#0]
        0x08001310:    68c5        .h      LDR      r5,[r0,#0xc]
        0x08001312:    6820         h      LDR      r0,[r4,#0]
        0x08001314:    6906        .i      LDR      r6,[r0,#0x10]
        0x08001316:    f0060002    ....    AND      r0,r6,#2
        0x0800131a:    2802        .(      CMP      r0,#2
        0x0800131c:    d119        ..      BNE      0x8001352 ; HAL_TIM_IRQHandler + 72
        0x0800131e:    f0050002    ....    AND      r0,r5,#2
        0x08001322:    2802        .(      CMP      r0,#2
        0x08001324:    d115        ..      BNE      0x8001352 ; HAL_TIM_IRQHandler + 72
        0x08001326:    1f40        @.      SUBS     r0,r0,#5
        0x08001328:    6821        !h      LDR      r1,[r4,#0]
        0x0800132a:    6108        .a      STR      r0,[r1,#0x10]
        0x0800132c:    2001        .       MOVS     r0,#1
        0x0800132e:    7720         w      STRB     r0,[r4,#0x1c]
        0x08001330:    6820         h      LDR      r0,[r4,#0]
        0x08001332:    6980        .i      LDR      r0,[r0,#0x18]
        0x08001334:    f0000003    ....    AND      r0,r0,#3
        0x08001338:    b118        ..      CBZ      r0,0x8001342 ; HAL_TIM_IRQHandler + 56
        0x0800133a:    4620         F      MOV      r0,r4
        0x0800133c:    f7ffffe4    ....    BL       HAL_TIM_IC_CaptureCallback ; 0x8001308
        0x08001340:    e005        ..      B        0x800134e ; HAL_TIM_IRQHandler + 68
        0x08001342:    4620         F      MOV      r0,r4
        0x08001344:    f000f897    ....    BL       HAL_TIM_OC_DelayElapsedCallback ; 0x8001476
        0x08001348:    4620         F      MOV      r0,r4
        0x0800134a:    f000f895    ....    BL       HAL_TIM_PWM_PulseFinishedCallback ; 0x8001478
        0x0800134e:    2000        .       MOVS     r0,#0
        0x08001350:    7720         w      STRB     r0,[r4,#0x1c]
        0x08001352:    f0060004    ....    AND      r0,r6,#4
        0x08001356:    2804        .(      CMP      r0,#4
        0x08001358:    d119        ..      BNE      0x800138e ; HAL_TIM_IRQHandler + 132
        0x0800135a:    f0050004    ....    AND      r0,r5,#4
        0x0800135e:    2804        .(      CMP      r0,#4
        0x08001360:    d115        ..      BNE      0x800138e ; HAL_TIM_IRQHandler + 132
        0x08001362:    43c0        .C      MVNS     r0,r0
        0x08001364:    6821        !h      LDR      r1,[r4,#0]
        0x08001366:    6108        .a      STR      r0,[r1,#0x10]
        0x08001368:    2002        .       MOVS     r0,#2
        0x0800136a:    7720         w      STRB     r0,[r4,#0x1c]
        0x0800136c:    6820         h      LDR      r0,[r4,#0]
        0x0800136e:    6980        .i      LDR      r0,[r0,#0x18]
        0x08001370:    f4007040    ..@p    AND      r0,r0,#0x300
        0x08001374:    b118        ..      CBZ      r0,0x800137e ; HAL_TIM_IRQHandler + 116
        0x08001376:    4620         F      MOV      r0,r4
        0x08001378:    f7ffffc6    ....    BL       HAL_TIM_IC_CaptureCallback ; 0x8001308
        0x0800137c:    e005        ..      B        0x800138a ; HAL_TIM_IRQHandler + 128
        0x0800137e:    4620         F      MOV      r0,r4
        0x08001380:    f000f879    ..y.    BL       HAL_TIM_OC_DelayElapsedCallback ; 0x8001476
        0x08001384:    4620         F      MOV      r0,r4
        0x08001386:    f000f877    ..w.    BL       HAL_TIM_PWM_PulseFinishedCallback ; 0x8001478
        0x0800138a:    2000        .       MOVS     r0,#0
        0x0800138c:    7720         w      STRB     r0,[r4,#0x1c]
        0x0800138e:    f0060008    ....    AND      r0,r6,#8
        0x08001392:    2808        .(      CMP      r0,#8
        0x08001394:    d119        ..      BNE      0x80013ca ; HAL_TIM_IRQHandler + 192
        0x08001396:    f0050008    ....    AND      r0,r5,#8
        0x0800139a:    2808        .(      CMP      r0,#8
        0x0800139c:    d115        ..      BNE      0x80013ca ; HAL_TIM_IRQHandler + 192
        0x0800139e:    43c0        .C      MVNS     r0,r0
        0x080013a0:    6821        !h      LDR      r1,[r4,#0]
        0x080013a2:    6108        .a      STR      r0,[r1,#0x10]
        0x080013a4:    2004        .       MOVS     r0,#4
        0x080013a6:    7720         w      STRB     r0,[r4,#0x1c]
        0x080013a8:    6820         h      LDR      r0,[r4,#0]
        0x080013aa:    69c0        .i      LDR      r0,[r0,#0x1c]
        0x080013ac:    f0000003    ....    AND      r0,r0,#3
        0x080013b0:    b118        ..      CBZ      r0,0x80013ba ; HAL_TIM_IRQHandler + 176
        0x080013b2:    4620         F      MOV      r0,r4
        0x080013b4:    f7ffffa8    ....    BL       HAL_TIM_IC_CaptureCallback ; 0x8001308
        0x080013b8:    e005        ..      B        0x80013c6 ; HAL_TIM_IRQHandler + 188
        0x080013ba:    4620         F      MOV      r0,r4
        0x080013bc:    f000f85b    ..[.    BL       HAL_TIM_OC_DelayElapsedCallback ; 0x8001476
        0x080013c0:    4620         F      MOV      r0,r4
        0x080013c2:    f000f859    ..Y.    BL       HAL_TIM_PWM_PulseFinishedCallback ; 0x8001478
        0x080013c6:    2000        .       MOVS     r0,#0
        0x080013c8:    7720         w      STRB     r0,[r4,#0x1c]
        0x080013ca:    f0060010    ....    AND      r0,r6,#0x10
        0x080013ce:    2810        .(      CMP      r0,#0x10
        0x080013d0:    d119        ..      BNE      0x8001406 ; HAL_TIM_IRQHandler + 252
        0x080013d2:    f0050010    ....    AND      r0,r5,#0x10
        0x080013d6:    2810        .(      CMP      r0,#0x10
        0x080013d8:    d115        ..      BNE      0x8001406 ; HAL_TIM_IRQHandler + 252
        0x080013da:    43c0        .C      MVNS     r0,r0
        0x080013dc:    6821        !h      LDR      r1,[r4,#0]
        0x080013de:    6108        .a      STR      r0,[r1,#0x10]
        0x080013e0:    2008        .       MOVS     r0,#8
        0x080013e2:    7720         w      STRB     r0,[r4,#0x1c]
        0x080013e4:    6820         h      LDR      r0,[r4,#0]
        0x080013e6:    69c0        .i      LDR      r0,[r0,#0x1c]
        0x080013e8:    f4007040    ..@p    AND      r0,r0,#0x300
        0x080013ec:    b118        ..      CBZ      r0,0x80013f6 ; HAL_TIM_IRQHandler + 236
        0x080013ee:    4620         F      MOV      r0,r4
        0x080013f0:    f7ffff8a    ....    BL       HAL_TIM_IC_CaptureCallback ; 0x8001308
        0x080013f4:    e005        ..      B        0x8001402 ; HAL_TIM_IRQHandler + 248
        0x080013f6:    4620         F      MOV      r0,r4
        0x080013f8:    f000f83d    ..=.    BL       HAL_TIM_OC_DelayElapsedCallback ; 0x8001476
        0x080013fc:    4620         F      MOV      r0,r4
        0x080013fe:    f000f83b    ..;.    BL       HAL_TIM_PWM_PulseFinishedCallback ; 0x8001478
        0x08001402:    2000        .       MOVS     r0,#0
        0x08001404:    7720         w      STRB     r0,[r4,#0x1c]
        0x08001406:    f0060001    ....    AND      r0,r6,#1
        0x0800140a:    b148        H.      CBZ      r0,0x8001420 ; HAL_TIM_IRQHandler + 278
        0x0800140c:    f0050001    ....    AND      r0,r5,#1
        0x08001410:    b130        0.      CBZ      r0,0x8001420 ; HAL_TIM_IRQHandler + 278
        0x08001412:    f06f0001    o...    MVN      r0,#1
        0x08001416:    6821        !h      LDR      r1,[r4,#0]
        0x08001418:    6108        .a      STR      r0,[r1,#0x10]
        0x0800141a:    4620         F      MOV      r0,r4
        0x0800141c:    f000f82e    ....    BL       HAL_TIM_PeriodElapsedCallback ; 0x800147c
        0x08001420:    f0060080    ....    AND      r0,r6,#0x80
        0x08001424:    2880        .(      CMP      r0,#0x80
        0x08001426:    d109        ..      BNE      0x800143c ; HAL_TIM_IRQHandler + 306
        0x08001428:    f0050080    ....    AND      r0,r5,#0x80
        0x0800142c:    2880        .(      CMP      r0,#0x80
        0x0800142e:    d105        ..      BNE      0x800143c ; HAL_TIM_IRQHandler + 306
        0x08001430:    43c0        .C      MVNS     r0,r0
        0x08001432:    6821        !h      LDR      r1,[r4,#0]
        0x08001434:    6108        .a      STR      r0,[r1,#0x10]
        0x08001436:    4620         F      MOV      r0,r4
        0x08001438:    f7fffee8    ....    BL       HAL_TIMEx_BreakCallback ; 0x800120c
        0x0800143c:    f0060040    ..@.    AND      r0,r6,#0x40
        0x08001440:    2840        @(      CMP      r0,#0x40
        0x08001442:    d109        ..      BNE      0x8001458 ; HAL_TIM_IRQHandler + 334
        0x08001444:    f0050040    ..@.    AND      r0,r5,#0x40
        0x08001448:    2840        @(      CMP      r0,#0x40
        0x0800144a:    d105        ..      BNE      0x8001458 ; HAL_TIM_IRQHandler + 334
        0x0800144c:    43c0        .C      MVNS     r0,r0
        0x0800144e:    6821        !h      LDR      r1,[r4,#0]
        0x08001450:    6108        .a      STR      r0,[r1,#0x10]
        0x08001452:    4620         F      MOV      r0,r4
        0x08001454:    f000f81e    ....    BL       HAL_TIM_TriggerCallback ; 0x8001494
        0x08001458:    f0060020    .. .    AND      r0,r6,#0x20
        0x0800145c:    2820         (      CMP      r0,#0x20
        0x0800145e:    d109        ..      BNE      0x8001474 ; HAL_TIM_IRQHandler + 362
        0x08001460:    f0050020    .. .    AND      r0,r5,#0x20
        0x08001464:    2820         (      CMP      r0,#0x20
        0x08001466:    d105        ..      BNE      0x8001474 ; HAL_TIM_IRQHandler + 362
        0x08001468:    43c0        .C      MVNS     r0,r0
        0x0800146a:    6821        !h      LDR      r1,[r4,#0]
        0x0800146c:    6108        .a      STR      r0,[r1,#0x10]
        0x0800146e:    4620         F      MOV      r0,r4
        0x08001470:    f7fffecd    ....    BL       HAL_TIMEx_CommutCallback ; 0x800120e
        0x08001474:    bd70        p.      POP      {r4-r6,pc}
    i.HAL_TIM_OC_DelayElapsedCallback
    HAL_TIM_OC_DelayElapsedCallback
        0x08001476:    4770        pG      BX       lr
    i.HAL_TIM_PWM_PulseFinishedCallback
    HAL_TIM_PWM_PulseFinishedCallback
        0x08001478:    4770        pG      BX       lr
        0x0800147a:    0000        ..      MOVS     r0,r0
    i.HAL_TIM_PeriodElapsedCallback
    HAL_TIM_PeriodElapsedCallback
        0x0800147c:    b510        ..      PUSH     {r4,lr}
        0x0800147e:    4604        .F      MOV      r4,r0
        0x08001480:    4903        .I      LDR      r1,[pc,#12] ; [0x8001490] = 0x40010000
        0x08001482:    6820         h      LDR      r0,[r4,#0]
        0x08001484:    4288        .B      CMP      r0,r1
        0x08001486:    d101        ..      BNE      0x800148c ; HAL_TIM_PeriodElapsedCallback + 16
        0x08001488:    f7fff896    ....    BL       HAL_IncTick ; 0x80005b8
        0x0800148c:    bd10        ..      POP      {r4,pc}
    $d
        0x0800148e:    0000        ..      DCW    0
        0x08001490:    40010000    ...@    DCD    1073807360
    $t
    i.HAL_TIM_TriggerCallback
    HAL_TIM_TriggerCallback
        0x08001494:    4770        pG      BX       lr
    i.HAL_UART_Init
    HAL_UART_Init
        0x08001496:    b510        ..      PUSH     {r4,lr}
        0x08001498:    4604        .F      MOV      r4,r0
        0x0800149a:    b90c        ..      CBNZ     r4,0x80014a0 ; HAL_UART_Init + 10
        0x0800149c:    2001        .       MOVS     r0,#1
        0x0800149e:    bd10        ..      POP      {r4,pc}
        0x080014a0:    69a0        .i      LDR      r0,[r4,#0x18]
        0x080014a2:    b100        ..      CBZ      r0,0x80014a6 ; HAL_UART_Init + 16
        0x080014a4:    e000        ..      B        0x80014a8 ; HAL_UART_Init + 18
        0x080014a6:    bf00        ..      NOP      
        0x080014a8:    f8940041    ..A.    LDRB     r0,[r4,#0x41]
        0x080014ac:    b928        (.      CBNZ     r0,0x80014ba ; HAL_UART_Init + 36
        0x080014ae:    2000        .       MOVS     r0,#0
        0x080014b0:    f8840040    ..@.    STRB     r0,[r4,#0x40]
        0x080014b4:    4620         F      MOV      r0,r4
        0x080014b6:    f000f829    ..).    BL       HAL_UART_MspInit ; 0x800150c
        0x080014ba:    2024        $       MOVS     r0,#0x24
        0x080014bc:    f8840041    ..A.    STRB     r0,[r4,#0x41]
        0x080014c0:    6820         h      LDR      r0,[r4,#0]
        0x080014c2:    68c0        .h      LDR      r0,[r0,#0xc]
        0x080014c4:    f4205000     ..P    BIC      r0,r0,#0x2000
        0x080014c8:    6821        !h      LDR      r1,[r4,#0]
        0x080014ca:    60c8        .`      STR      r0,[r1,#0xc]
        0x080014cc:    4620         F      MOV      r0,r4
        0x080014ce:    f000fb0b    ....    BL       UART_SetConfig ; 0x8001ae8
        0x080014d2:    6820         h      LDR      r0,[r4,#0]
        0x080014d4:    6900        .i      LDR      r0,[r0,#0x10]
        0x080014d6:    f4204090     ..@    BIC      r0,r0,#0x4800
        0x080014da:    6821        !h      LDR      r1,[r4,#0]
        0x080014dc:    6108        .a      STR      r0,[r1,#0x10]
        0x080014de:    6820         h      LDR      r0,[r4,#0]
        0x080014e0:    6940        @i      LDR      r0,[r0,#0x14]
        0x080014e2:    f020002a     .*.    BIC      r0,r0,#0x2a
        0x080014e6:    6821        !h      LDR      r1,[r4,#0]
        0x080014e8:    6148        Ha      STR      r0,[r1,#0x14]
        0x080014ea:    6820         h      LDR      r0,[r4,#0]
        0x080014ec:    68c0        .h      LDR      r0,[r0,#0xc]
        0x080014ee:    f4405000    @..P    ORR      r0,r0,#0x2000
        0x080014f2:    6821        !h      LDR      r1,[r4,#0]
        0x080014f4:    60c8        .`      STR      r0,[r1,#0xc]
        0x080014f6:    2000        .       MOVS     r0,#0
        0x080014f8:    6460        `d      STR      r0,[r4,#0x44]
        0x080014fa:    2020                MOVS     r0,#0x20
        0x080014fc:    f8840041    ..A.    STRB     r0,[r4,#0x41]
        0x08001500:    f8840042    ..B.    STRB     r0,[r4,#0x42]
        0x08001504:    2000        .       MOVS     r0,#0
        0x08001506:    6360        `c      STR      r0,[r4,#0x34]
        0x08001508:    bf00        ..      NOP      
        0x0800150a:    e7c8        ..      B        0x800149e ; HAL_UART_Init + 8
    i.HAL_UART_MspInit
    HAL_UART_MspInit
        0x0800150c:    b510        ..      PUSH     {r4,lr}
        0x0800150e:    b086        ..      SUB      sp,sp,#0x18
        0x08001510:    4604        .F      MOV      r4,r0
        0x08001512:    2114        .!      MOVS     r1,#0x14
        0x08001514:    a801        ..      ADD      r0,sp,#4
        0x08001516:    f7feff07    ....    BL       __aeabi_memclr ; 0x8000328
        0x0800151a:    491b        .I      LDR      r1,[pc,#108] ; [0x8001588] = 0x40011000
        0x0800151c:    6820         h      LDR      r0,[r4,#0]
        0x0800151e:    4288        .B      CMP      r0,r1
        0x08001520:    d130        0.      BNE      0x8001584 ; HAL_UART_MspInit + 120
        0x08001522:    bf00        ..      NOP      
        0x08001524:    2000        .       MOVS     r0,#0
        0x08001526:    9000        ..      STR      r0,[sp,#0]
        0x08001528:    4818        .H      LDR      r0,[pc,#96] ; [0x800158c] = 0x40023844
        0x0800152a:    6800        .h      LDR      r0,[r0,#0]
        0x0800152c:    f0400010    @...    ORR      r0,r0,#0x10
        0x08001530:    4916        .I      LDR      r1,[pc,#88] ; [0x800158c] = 0x40023844
        0x08001532:    6008        .`      STR      r0,[r1,#0]
        0x08001534:    4608        .F      MOV      r0,r1
        0x08001536:    6800        .h      LDR      r0,[r0,#0]
        0x08001538:    f0000010    ....    AND      r0,r0,#0x10
        0x0800153c:    9000        ..      STR      r0,[sp,#0]
        0x0800153e:    bf00        ..      NOP      
        0x08001540:    bf00        ..      NOP      
        0x08001542:    bf00        ..      NOP      
        0x08001544:    2000        .       MOVS     r0,#0
        0x08001546:    9000        ..      STR      r0,[sp,#0]
        0x08001548:    4810        .H      LDR      r0,[pc,#64] ; [0x800158c] = 0x40023844
        0x0800154a:    3814        .8      SUBS     r0,r0,#0x14
        0x0800154c:    6800        .h      LDR      r0,[r0,#0]
        0x0800154e:    f0400001    @...    ORR      r0,r0,#1
        0x08001552:    490e        .I      LDR      r1,[pc,#56] ; [0x800158c] = 0x40023844
        0x08001554:    3914        .9      SUBS     r1,r1,#0x14
        0x08001556:    6008        .`      STR      r0,[r1,#0]
        0x08001558:    4608        .F      MOV      r0,r1
        0x0800155a:    6800        .h      LDR      r0,[r0,#0]
        0x0800155c:    f0000001    ....    AND      r0,r0,#1
        0x08001560:    9000        ..      STR      r0,[sp,#0]
        0x08001562:    bf00        ..      NOP      
        0x08001564:    bf00        ..      NOP      
        0x08001566:    f44f60c0    O..`    MOV      r0,#0x600
        0x0800156a:    9001        ..      STR      r0,[sp,#4]
        0x0800156c:    2002        .       MOVS     r0,#2
        0x0800156e:    9002        ..      STR      r0,[sp,#8]
        0x08001570:    2000        .       MOVS     r0,#0
        0x08001572:    9003        ..      STR      r0,[sp,#0xc]
        0x08001574:    2003        .       MOVS     r0,#3
        0x08001576:    9004        ..      STR      r0,[sp,#0x10]
        0x08001578:    2007        .       MOVS     r0,#7
        0x0800157a:    9005        ..      STR      r0,[sp,#0x14]
        0x0800157c:    a901        ..      ADD      r1,sp,#4
        0x0800157e:    4804        .H      LDR      r0,[pc,#16] ; [0x8001590] = 0x40020000
        0x08001580:    f7feff2a    ..*.    BL       HAL_GPIO_Init ; 0x80003d8
        0x08001584:    b006        ..      ADD      sp,sp,#0x18
        0x08001586:    bd10        ..      POP      {r4,pc}
    $d
        0x08001588:    40011000    ...@    DCD    1073811456
        0x0800158c:    40023844    D8.@    DCD    1073887300
        0x08001590:    40020000    ...@    DCD    1073872896
    $t
    i.HAL_UART_Transmit
    HAL_UART_Transmit
        0x08001594:    e92d4ff8    -..O    PUSH     {r3-r11,lr}
        0x08001598:    4604        .F      MOV      r4,r0
        0x0800159a:    460e        .F      MOV      r6,r1
        0x0800159c:    4617        .F      MOV      r7,r2
        0x0800159e:    4699        .F      MOV      r9,r3
        0x080015a0:    f04f0a00    O...    MOV      r10,#0
        0x080015a4:    f8940041    ..A.    LDRB     r0,[r4,#0x41]
        0x080015a8:    2820         (      CMP      r0,#0x20
        0x080015aa:    d150        P.      BNE      0x800164e ; HAL_UART_Transmit + 186
        0x080015ac:    b106        ..      CBZ      r6,0x80015b0 ; HAL_UART_Transmit + 28
        0x080015ae:    b917        ..      CBNZ     r7,0x80015b6 ; HAL_UART_Transmit + 34
        0x080015b0:    2001        .       MOVS     r0,#1
        0x080015b2:    e8bd8ff8    ....    POP      {r3-r11,pc}
        0x080015b6:    2000        .       MOVS     r0,#0
        0x080015b8:    6460        `d      STR      r0,[r4,#0x44]
        0x080015ba:    2021        !       MOVS     r0,#0x21
        0x080015bc:    f8840041    ..A.    STRB     r0,[r4,#0x41]
        0x080015c0:    f7fefff4    ....    BL       HAL_GetTick ; 0x80005ac
        0x080015c4:    4682        .F      MOV      r10,r0
        0x080015c6:    84a7        ..      STRH     r7,[r4,#0x24]
        0x080015c8:    84e7        ..      STRH     r7,[r4,#0x26]
        0x080015ca:    68a0        .h      LDR      r0,[r4,#8]
        0x080015cc:    f5b05f80    ..._    CMP      r0,#0x1000
        0x080015d0:    d104        ..      BNE      0x80015dc ; HAL_UART_Transmit + 72
        0x080015d2:    6920         i      LDR      r0,[r4,#0x10]
        0x080015d4:    b910        ..      CBNZ     r0,0x80015dc ; HAL_UART_Transmit + 72
        0x080015d6:    2500        .%      MOVS     r5,#0
        0x080015d8:    46b0        .F      MOV      r8,r6
        0x080015da:    e002        ..      B        0x80015e2 ; HAL_UART_Transmit + 78
        0x080015dc:    4635        5F      MOV      r5,r6
        0x080015de:    f04f0800    O...    MOV      r8,#0
        0x080015e2:    e01e        ..      B        0x8001622 ; HAL_UART_Transmit + 142
        0x080015e4:    4653        SF      MOV      r3,r10
        0x080015e6:    2200        ."      MOVS     r2,#0
        0x080015e8:    2180        .!      MOVS     r1,#0x80
        0x080015ea:    4620         F      MOV      r0,r4
        0x080015ec:    f8cd9000    ....    STR      r9,[sp,#0]
        0x080015f0:    f000fb90    ....    BL       UART_WaitOnFlagUntilTimeout ; 0x8001d14
        0x080015f4:    b120         .      CBZ      r0,0x8001600 ; HAL_UART_Transmit + 108
        0x080015f6:    2020                MOVS     r0,#0x20
        0x080015f8:    f8840041    ..A.    STRB     r0,[r4,#0x41]
        0x080015fc:    2003        .       MOVS     r0,#3
        0x080015fe:    e7d8        ..      B        0x80015b2 ; HAL_UART_Transmit + 30
        0x08001600:    b945        E.      CBNZ     r5,0x8001614 ; HAL_UART_Transmit + 128
        0x08001602:    f8b80000    ....    LDRH     r0,[r8,#0]
        0x08001606:    f3c00008    ....    UBFX     r0,r0,#0,#9
        0x0800160a:    6821        !h      LDR      r1,[r4,#0]
        0x0800160c:    6048        H`      STR      r0,[r1,#4]
        0x0800160e:    f1080802    ....    ADD      r8,r8,#2
        0x08001612:    e003        ..      B        0x800161c ; HAL_UART_Transmit + 136
        0x08001614:    7828        (x      LDRB     r0,[r5,#0]
        0x08001616:    6821        !h      LDR      r1,[r4,#0]
        0x08001618:    6048        H`      STR      r0,[r1,#4]
        0x0800161a:    1c6d        m.      ADDS     r5,r5,#1
        0x0800161c:    8ce0        ..      LDRH     r0,[r4,#0x26]
        0x0800161e:    1e40        @.      SUBS     r0,r0,#1
        0x08001620:    84e0        ..      STRH     r0,[r4,#0x26]
        0x08001622:    8ce0        ..      LDRH     r0,[r4,#0x26]
        0x08001624:    2800        .(      CMP      r0,#0
        0x08001626:    d1dd        ..      BNE      0x80015e4 ; HAL_UART_Transmit + 80
        0x08001628:    4653        SF      MOV      r3,r10
        0x0800162a:    2200        ."      MOVS     r2,#0
        0x0800162c:    2140        @!      MOVS     r1,#0x40
        0x0800162e:    4620         F      MOV      r0,r4
        0x08001630:    f8cd9000    ....    STR      r9,[sp,#0]
        0x08001634:    f000fb6e    ..n.    BL       UART_WaitOnFlagUntilTimeout ; 0x8001d14
        0x08001638:    b120         .      CBZ      r0,0x8001644 ; HAL_UART_Transmit + 176
        0x0800163a:    2020                MOVS     r0,#0x20
        0x0800163c:    f8840041    ..A.    STRB     r0,[r4,#0x41]
        0x08001640:    2003        .       MOVS     r0,#3
        0x08001642:    e7b6        ..      B        0x80015b2 ; HAL_UART_Transmit + 30
        0x08001644:    2020                MOVS     r0,#0x20
        0x08001646:    f8840041    ..A.    STRB     r0,[r4,#0x41]
        0x0800164a:    2000        .       MOVS     r0,#0
        0x0800164c:    e7b1        ..      B        0x80015b2 ; HAL_UART_Transmit + 30
        0x0800164e:    2002        .       MOVS     r0,#2
        0x08001650:    e7af        ..      B        0x80015b2 ; HAL_UART_Transmit + 30
    i.HardFault_Handler
    HardFault_Handler
        0x08001652:    bf00        ..      NOP      
        0x08001654:    e7fe        ..      B        0x8001654 ; HardFault_Handler + 2
        0x08001656:    0000        ..      MOVS     r0,r0
    i.MX_FREERTOS_Init
    MX_FREERTOS_Init
        0x08001658:    b510        ..      PUSH     {r4,lr}
        0x0800165a:    4a04        .J      LDR      r2,[pc,#16] ; [0x800166c] = 0x8004b28
        0x0800165c:    2100        .!      MOVS     r1,#0
        0x0800165e:    4804        .H      LDR      r0,[pc,#16] ; [0x8001670] = 0x8001815
        0x08001660:    f001f98a    ....    BL       osThreadNew ; 0x8002978
        0x08001664:    4903        .I      LDR      r1,[pc,#12] ; [0x8001674] = 0x20000000
        0x08001666:    6008        .`      STR      r0,[r1,#0]
        0x08001668:    bd10        ..      POP      {r4,pc}
    $d
        0x0800166a:    0000        ..      DCW    0
        0x0800166c:    08004b28    (K..    DCD    134236968
        0x08001670:    08001815    ....    DCD    134223893
        0x08001674:    20000000    ...     DCD    536870912
    $t
    i.MX_GPIO_Init
    MX_GPIO_Init
        0x08001678:    b500        ..      PUSH     {lr}
        0x0800167a:    b087        ..      SUB      sp,sp,#0x1c
        0x0800167c:    2114        .!      MOVS     r1,#0x14
        0x0800167e:    a802        ..      ADD      r0,sp,#8
        0x08001680:    f7fefe52    ..R.    BL       __aeabi_memclr ; 0x8000328
        0x08001684:    bf00        ..      NOP      
        0x08001686:    2000        .       MOVS     r0,#0
        0x08001688:    9001        ..      STR      r0,[sp,#4]
        0x0800168a:    4824        $H      LDR      r0,[pc,#144] ; [0x800171c] = 0x40023830
        0x0800168c:    6800        .h      LDR      r0,[r0,#0]
        0x0800168e:    f0400004    @...    ORR      r0,r0,#4
        0x08001692:    4922        "I      LDR      r1,[pc,#136] ; [0x800171c] = 0x40023830
        0x08001694:    6008        .`      STR      r0,[r1,#0]
        0x08001696:    4608        .F      MOV      r0,r1
        0x08001698:    6800        .h      LDR      r0,[r0,#0]
        0x0800169a:    f0000004    ....    AND      r0,r0,#4
        0x0800169e:    9001        ..      STR      r0,[sp,#4]
        0x080016a0:    bf00        ..      NOP      
        0x080016a2:    bf00        ..      NOP      
        0x080016a4:    bf00        ..      NOP      
        0x080016a6:    2000        .       MOVS     r0,#0
        0x080016a8:    9001        ..      STR      r0,[sp,#4]
        0x080016aa:    4608        .F      MOV      r0,r1
        0x080016ac:    6800        .h      LDR      r0,[r0,#0]
        0x080016ae:    f0400080    @...    ORR      r0,r0,#0x80
        0x080016b2:    6008        .`      STR      r0,[r1,#0]
        0x080016b4:    4608        .F      MOV      r0,r1
        0x080016b6:    6800        .h      LDR      r0,[r0,#0]
        0x080016b8:    f0000080    ....    AND      r0,r0,#0x80
        0x080016bc:    9001        ..      STR      r0,[sp,#4]
        0x080016be:    bf00        ..      NOP      
        0x080016c0:    bf00        ..      NOP      
        0x080016c2:    bf00        ..      NOP      
        0x080016c4:    2000        .       MOVS     r0,#0
        0x080016c6:    9001        ..      STR      r0,[sp,#4]
        0x080016c8:    4608        .F      MOV      r0,r1
        0x080016ca:    6800        .h      LDR      r0,[r0,#0]
        0x080016cc:    f0400001    @...    ORR      r0,r0,#1
        0x080016d0:    6008        .`      STR      r0,[r1,#0]
        0x080016d2:    4608        .F      MOV      r0,r1
        0x080016d4:    6800        .h      LDR      r0,[r0,#0]
        0x080016d6:    f0000001    ....    AND      r0,r0,#1
        0x080016da:    9001        ..      STR      r0,[sp,#4]
        0x080016dc:    bf00        ..      NOP      
        0x080016de:    bf00        ..      NOP      
        0x080016e0:    2200        ."      MOVS     r2,#0
        0x080016e2:    f44f5100    O..Q    MOV      r1,#0x2000
        0x080016e6:    480e        .H      LDR      r0,[pc,#56] ; [0x8001720] = 0x40020800
        0x080016e8:    f7feff5a    ..Z.    BL       HAL_GPIO_WritePin ; 0x80005a0
        0x080016ec:    f44f5000    O..P    MOV      r0,#0x2000
        0x080016f0:    9002        ..      STR      r0,[sp,#8]
        0x080016f2:    2001        .       MOVS     r0,#1
        0x080016f4:    9003        ..      STR      r0,[sp,#0xc]
        0x080016f6:    2000        .       MOVS     r0,#0
        0x080016f8:    9004        ..      STR      r0,[sp,#0x10]
        0x080016fa:    9005        ..      STR      r0,[sp,#0x14]
        0x080016fc:    a902        ..      ADD      r1,sp,#8
        0x080016fe:    4808        .H      LDR      r0,[pc,#32] ; [0x8001720] = 0x40020800
        0x08001700:    f7fefe6a    ..j.    BL       HAL_GPIO_Init ; 0x80003d8
        0x08001704:    2001        .       MOVS     r0,#1
        0x08001706:    9002        ..      STR      r0,[sp,#8]
        0x08001708:    2000        .       MOVS     r0,#0
        0x0800170a:    9003        ..      STR      r0,[sp,#0xc]
        0x0800170c:    2001        .       MOVS     r0,#1
        0x0800170e:    9004        ..      STR      r0,[sp,#0x10]
        0x08001710:    a902        ..      ADD      r1,sp,#8
        0x08001712:    4804        .H      LDR      r0,[pc,#16] ; [0x8001724] = 0x40020000
        0x08001714:    f7fefe60    ..`.    BL       HAL_GPIO_Init ; 0x80003d8
        0x08001718:    b007        ..      ADD      sp,sp,#0x1c
        0x0800171a:    bd00        ..      POP      {pc}
    $d
        0x0800171c:    40023830    08.@    DCD    1073887280
        0x08001720:    40020800    ...@    DCD    1073874944
        0x08001724:    40020000    ...@    DCD    1073872896
    $t
    i.MX_RTC_Init
    MX_RTC_Init
        0x08001728:    b510        ..      PUSH     {r4,lr}
        0x0800172a:    480a        .H      LDR      r0,[pc,#40] ; [0x8001754] = 0x40002800
        0x0800172c:    490a        .I      LDR      r1,[pc,#40] ; [0x8001758] = 0x200000c8
        0x0800172e:    6008        .`      STR      r0,[r1,#0]
        0x08001730:    2000        .       MOVS     r0,#0
        0x08001732:    6048        H`      STR      r0,[r1,#4]
        0x08001734:    217f        .!      MOVS     r1,#0x7f
        0x08001736:    4808        .H      LDR      r0,[pc,#32] ; [0x8001758] = 0x200000c8
        0x08001738:    6081        .`      STR      r1,[r0,#8]
        0x0800173a:    21ff        .!      MOVS     r1,#0xff
        0x0800173c:    60c1        .`      STR      r1,[r0,#0xc]
        0x0800173e:    2100        .!      MOVS     r1,#0
        0x08001740:    6101        .a      STR      r1,[r0,#0x10]
        0x08001742:    6141        Aa      STR      r1,[r0,#0x14]
        0x08001744:    6181        .a      STR      r1,[r0,#0x18]
        0x08001746:    f7fffccd    ....    BL       HAL_RTC_Init ; 0x80010e4
        0x0800174a:    b108        ..      CBZ      r0,0x8001750 ; MX_RTC_Init + 40
        0x0800174c:    f7fefe41    ..A.    BL       Error_Handler ; 0x80003d2
        0x08001750:    bd10        ..      POP      {r4,pc}
    $d
        0x08001752:    0000        ..      DCW    0
        0x08001754:    40002800    .(.@    DCD    1073752064
        0x08001758:    200000c8    ...     DCD    536871112
    $t
    i.MX_USART1_UART_Init
    MX_USART1_UART_Init
        0x0800175c:    b510        ..      PUSH     {r4,lr}
        0x0800175e:    480b        .H      LDR      r0,[pc,#44] ; [0x800178c] = 0x40011000
        0x08001760:    490b        .I      LDR      r1,[pc,#44] ; [0x8001790] = 0x200000e8
        0x08001762:    6008        .`      STR      r0,[r1,#0]
        0x08001764:    f44f30e1    O..0    MOV      r0,#0x1c200
        0x08001768:    6048        H`      STR      r0,[r1,#4]
        0x0800176a:    2100        .!      MOVS     r1,#0
        0x0800176c:    4808        .H      LDR      r0,[pc,#32] ; [0x8001790] = 0x200000e8
        0x0800176e:    6081        .`      STR      r1,[r0,#8]
        0x08001770:    60c1        .`      STR      r1,[r0,#0xc]
        0x08001772:    6101        .a      STR      r1,[r0,#0x10]
        0x08001774:    210c        .!      MOVS     r1,#0xc
        0x08001776:    6141        Aa      STR      r1,[r0,#0x14]
        0x08001778:    2100        .!      MOVS     r1,#0
        0x0800177a:    6181        .a      STR      r1,[r0,#0x18]
        0x0800177c:    61c1        .a      STR      r1,[r0,#0x1c]
        0x0800177e:    f7fffe8a    ....    BL       HAL_UART_Init ; 0x8001496
        0x08001782:    b108        ..      CBZ      r0,0x8001788 ; MX_USART1_UART_Init + 44
        0x08001784:    f7fefe25    ..%.    BL       Error_Handler ; 0x80003d2
        0x08001788:    bd10        ..      POP      {r4,pc}
    $d
        0x0800178a:    0000        ..      DCW    0
        0x0800178c:    40011000    ...@    DCD    1073811456
        0x08001790:    200000e8    ...     DCD    536871144
    $t
    i.MemManage_Handler
    MemManage_Handler
        0x08001794:    bf00        ..      NOP      
        0x08001796:    e7fe        ..      B        0x8001796 ; MemManage_Handler + 2
    i.NMI_Handler
    NMI_Handler
        0x08001798:    bf00        ..      NOP      
        0x0800179a:    e7fe        ..      B        0x800179a ; NMI_Handler + 2
    i.RTC_EnterInitMode
    RTC_EnterInitMode
        0x0800179c:    b570        p.      PUSH     {r4-r6,lr}
        0x0800179e:    4604        .F      MOV      r4,r0
        0x080017a0:    2600        .&      MOVS     r6,#0
        0x080017a2:    2500        .%      MOVS     r5,#0
        0x080017a4:    6820         h      LDR      r0,[r4,#0]
        0x080017a6:    68c0        .h      LDR      r0,[r0,#0xc]
        0x080017a8:    f0000040    ..@.    AND      r0,r0,#0x40
        0x080017ac:    b9c8        ..      CBNZ     r0,0x80017e2 ; RTC_EnterInitMode + 70
        0x080017ae:    6820         h      LDR      r0,[r4,#0]
        0x080017b0:    68c0        .h      LDR      r0,[r0,#0xc]
        0x080017b2:    f0400080    @...    ORR      r0,r0,#0x80
        0x080017b6:    6821        !h      LDR      r1,[r4,#0]
        0x080017b8:    60c8        .`      STR      r0,[r1,#0xc]
        0x080017ba:    f7fefef7    ....    BL       HAL_GetTick ; 0x80005ac
        0x080017be:    4606        .F      MOV      r6,r0
        0x080017c0:    e008        ..      B        0x80017d4 ; RTC_EnterInitMode + 56
        0x080017c2:    f7fefef3    ....    BL       HAL_GetTick ; 0x80005ac
        0x080017c6:    1b80        ..      SUBS     r0,r0,r6
        0x080017c8:    f5b07f7a    ..z.    CMP      r0,#0x3e8
        0x080017cc:    d902        ..      BLS      0x80017d4 ; RTC_EnterInitMode + 56
        0x080017ce:    2004        .       MOVS     r0,#4
        0x080017d0:    7760        `w      STRB     r0,[r4,#0x1d]
        0x080017d2:    2501        .%      MOVS     r5,#1
        0x080017d4:    6820         h      LDR      r0,[r4,#0]
        0x080017d6:    68c0        .h      LDR      r0,[r0,#0xc]
        0x080017d8:    f0000040    ..@.    AND      r0,r0,#0x40
        0x080017dc:    b908        ..      CBNZ     r0,0x80017e2 ; RTC_EnterInitMode + 70
        0x080017de:    2d01        .-      CMP      r5,#1
        0x080017e0:    d1ef        ..      BNE      0x80017c2 ; RTC_EnterInitMode + 38
        0x080017e2:    4628        (F      MOV      r0,r5
        0x080017e4:    bd70        p.      POP      {r4-r6,pc}
    i.RTC_ExitInitMode
    RTC_ExitInitMode
        0x080017e6:    b570        p.      PUSH     {r4-r6,lr}
        0x080017e8:    4604        .F      MOV      r4,r0
        0x080017ea:    2500        .%      MOVS     r5,#0
        0x080017ec:    6820         h      LDR      r0,[r4,#0]
        0x080017ee:    68c0        .h      LDR      r0,[r0,#0xc]
        0x080017f0:    f0200080     ...    BIC      r0,r0,#0x80
        0x080017f4:    6821        !h      LDR      r1,[r4,#0]
        0x080017f6:    60c8        .`      STR      r0,[r1,#0xc]
        0x080017f8:    6820         h      LDR      r0,[r4,#0]
        0x080017fa:    6880        .h      LDR      r0,[r0,#8]
        0x080017fc:    f0000020    .. .    AND      r0,r0,#0x20
        0x08001800:    b930        0.      CBNZ     r0,0x8001810 ; RTC_ExitInitMode + 42
        0x08001802:    4620         F      MOV      r0,r4
        0x08001804:    f7fffce6    ....    BL       HAL_RTC_WaitForSynchro ; 0x80011d4
        0x08001808:    b110        ..      CBZ      r0,0x8001810 ; RTC_ExitInitMode + 42
        0x0800180a:    2004        .       MOVS     r0,#4
        0x0800180c:    7760        `w      STRB     r0,[r4,#0x1d]
        0x0800180e:    2501        .%      MOVS     r5,#1
        0x08001810:    4628        (F      MOV      r0,r5
        0x08001812:    bd70        p.      POP      {r4-r6,pc}
    i.StartDefaultTask
    StartDefaultTask
        0x08001814:    a005        ..      ADR      r0,{pc}+0x18 ; 0x800182c
        0x08001816:    f000fac5    ....    BL       __0printf$3 ; 0x8001da4
        0x0800181a:    f000f8e3    ....    BL       Test_1 ; 0x80019e4
        0x0800181e:    bf00        ..      NOP      
        0x08001820:    f44f70fa    O..p    MOV      r0,#0x1f4
        0x08001824:    f001f852    ..R.    BL       osDelay ; 0x80028cc
        0x08001828:    e7fa        ..      B        0x8001820 ; StartDefaultTask + 12
    $d
        0x0800182a:    0000        ..      DCW    0
        0x0800182c:    6c6c6568    hell    DCD    1819043176
        0x08001830:    6f77206f    o wo    DCD    1870078063
        0x08001834:    0a646c72    rld.    DCD    174353522
        0x08001838:    00000000    ....    DCD    0
    $t
    i.SysTick_Handler
    SysTick_Handler
        0x0800183c:    b510        ..      PUSH     {r4,lr}
        0x0800183e:    f04f20e0    O..     MOV      r0,#0xe000e000
        0x08001842:    6900        .i      LDR      r0,[r0,#0x10]
        0x08001844:    f002ff1a    ....    BL       xTaskGetSchedulerState ; 0x800467c
        0x08001848:    2801        .(      CMP      r0,#1
        0x0800184a:    d001        ..      BEQ      0x8001850 ; SysTick_Handler + 20
        0x0800184c:    f002fb36    ..6.    BL       xPortSysTickHandler ; 0x8003ebc
        0x08001850:    bd10        ..      POP      {r4,pc}
        0x08001852:    0000        ..      MOVS     r0,r0
    i.SystemClock_Config
    SystemClock_Config
        0x08001854:    b500        ..      PUSH     {lr}
        0x08001856:    b093        ..      SUB      sp,sp,#0x4c
        0x08001858:    2130        0!      MOVS     r1,#0x30
        0x0800185a:    a807        ..      ADD      r0,sp,#0x1c
        0x0800185c:    f7fefd64    ..d.    BL       __aeabi_memclr ; 0x8000328
        0x08001860:    2114        .!      MOVS     r1,#0x14
        0x08001862:    a802        ..      ADD      r0,sp,#8
        0x08001864:    f7fefd60    ..`.    BL       __aeabi_memclr ; 0x8000328
        0x08001868:    bf00        ..      NOP      
        0x0800186a:    2000        .       MOVS     r0,#0
        0x0800186c:    9001        ..      STR      r0,[sp,#4]
        0x0800186e:    4825        %H      LDR      r0,[pc,#148] ; [0x8001904] = 0x40023840
        0x08001870:    6800        .h      LDR      r0,[r0,#0]
        0x08001872:    f0405080    @..P    ORR      r0,r0,#0x10000000
        0x08001876:    4923        #I      LDR      r1,[pc,#140] ; [0x8001904] = 0x40023840
        0x08001878:    6008        .`      STR      r0,[r1,#0]
        0x0800187a:    4608        .F      MOV      r0,r1
        0x0800187c:    6800        .h      LDR      r0,[r0,#0]
        0x0800187e:    f0005080    ...P    AND      r0,r0,#0x10000000
        0x08001882:    9001        ..      STR      r0,[sp,#4]
        0x08001884:    bf00        ..      NOP      
        0x08001886:    bf00        ..      NOP      
        0x08001888:    bf00        ..      NOP      
        0x0800188a:    2000        .       MOVS     r0,#0
        0x0800188c:    9001        ..      STR      r0,[sp,#4]
        0x0800188e:    481e        .H      LDR      r0,[pc,#120] ; [0x8001908] = 0x40007000
        0x08001890:    6800        .h      LDR      r0,[r0,#0]
        0x08001892:    f4404040    @.@@    ORR      r0,r0,#0xc000
        0x08001896:    491c        .I      LDR      r1,[pc,#112] ; [0x8001908] = 0x40007000
        0x08001898:    6008        .`      STR      r0,[r1,#0]
        0x0800189a:    4608        .F      MOV      r0,r1
        0x0800189c:    6800        .h      LDR      r0,[r0,#0]
        0x0800189e:    f4004040    ..@@    AND      r0,r0,#0xc000
        0x080018a2:    9001        ..      STR      r0,[sp,#4]
        0x080018a4:    bf00        ..      NOP      
        0x080018a6:    bf00        ..      NOP      
        0x080018a8:    2009        .       MOVS     r0,#9
        0x080018aa:    9007        ..      STR      r0,[sp,#0x1c]
        0x080018ac:    f44f3080    O..0    MOV      r0,#0x10000
        0x080018b0:    9008        ..      STR      r0,[sp,#0x20]
        0x080018b2:    2001        .       MOVS     r0,#1
        0x080018b4:    900c        ..      STR      r0,[sp,#0x30]
        0x080018b6:    2002        .       MOVS     r0,#2
        0x080018b8:    900d        ..      STR      r0,[sp,#0x34]
        0x080018ba:    0541        A.      LSLS     r1,r0,#21
        0x080018bc:    910e        ..      STR      r1,[sp,#0x38]
        0x080018be:    210c        .!      MOVS     r1,#0xc
        0x080018c0:    910f        ..      STR      r1,[sp,#0x3c]
        0x080018c2:    2160        `!      MOVS     r1,#0x60
        0x080018c4:    9110        ..      STR      r1,[sp,#0x40]
        0x080018c6:    2102        .!      MOVS     r1,#2
        0x080018c8:    9111        ..      STR      r1,[sp,#0x44]
        0x080018ca:    2104        .!      MOVS     r1,#4
        0x080018cc:    9112        ..      STR      r1,[sp,#0x48]
        0x080018ce:    a807        ..      ADD      r0,sp,#0x1c
        0x080018d0:    f7fff9ba    ....    BL       HAL_RCC_OscConfig ; 0x8000c48
        0x080018d4:    b108        ..      CBZ      r0,0x80018da ; SystemClock_Config + 134
        0x080018d6:    f7fefd7c    ..|.    BL       Error_Handler ; 0x80003d2
        0x080018da:    200f        .       MOVS     r0,#0xf
        0x080018dc:    9002        ..      STR      r0,[sp,#8]
        0x080018de:    2002        .       MOVS     r0,#2
        0x080018e0:    9003        ..      STR      r0,[sp,#0xc]
        0x080018e2:    2000        .       MOVS     r0,#0
        0x080018e4:    9004        ..      STR      r0,[sp,#0x10]
        0x080018e6:    f44f5080    O..P    MOV      r0,#0x1000
        0x080018ea:    9005        ..      STR      r0,[sp,#0x14]
        0x080018ec:    2000        .       MOVS     r0,#0
        0x080018ee:    9006        ..      STR      r0,[sp,#0x18]
        0x080018f0:    2103        .!      MOVS     r1,#3
        0x080018f2:    a802        ..      ADD      r0,sp,#8
        0x080018f4:    f7fff846    ..F.    BL       HAL_RCC_ClockConfig ; 0x8000984
        0x080018f8:    b108        ..      CBZ      r0,0x80018fe ; SystemClock_Config + 170
        0x080018fa:    f7fefd6a    ..j.    BL       Error_Handler ; 0x80003d2
        0x080018fe:    b013        ..      ADD      sp,sp,#0x4c
        0x08001900:    bd00        ..      POP      {pc}
    $d
        0x08001902:    0000        ..      DCW    0
        0x08001904:    40023840    @8.@    DCD    1073887296
        0x08001908:    40007000    .p.@    DCD    1073770496
    $t
    i.SystemInit
    SystemInit
        0x0800190c:    4803        .H      LDR      r0,[pc,#12] ; [0x800191c] = 0xe000ed88
        0x0800190e:    6800        .h      LDR      r0,[r0,#0]
        0x08001910:    f4400070    @.p.    ORR      r0,r0,#0xf00000
        0x08001914:    4901        .I      LDR      r1,[pc,#4] ; [0x800191c] = 0xe000ed88
        0x08001916:    6008        .`      STR      r0,[r1,#0]
        0x08001918:    4770        pG      BX       lr
    $d
        0x0800191a:    0000        ..      DCW    0
        0x0800191c:    e000ed88    ....    DCD    3758157192
    $t
    i.TIM1_UP_TIM10_IRQHandler
    TIM1_UP_TIM10_IRQHandler
        0x08001920:    b510        ..      PUSH     {r4,lr}
        0x08001922:    4802        .H      LDR      r0,[pc,#8] ; [0x800192c] = 0x20000130
        0x08001924:    f7fffcf1    ....    BL       HAL_TIM_IRQHandler ; 0x800130a
        0x08001928:    bd10        ..      POP      {r4,pc}
    $d
        0x0800192a:    0000        ..      DCW    0
        0x0800192c:    20000130    0..     DCD    536871216
    $t
    i.TIM_Base_SetConfig
    TIM_Base_SetConfig
        0x08001930:    b510        ..      PUSH     {r4,lr}
        0x08001932:    6802        .h      LDR      r2,[r0,#0]
        0x08001934:    4b24        $K      LDR      r3,[pc,#144] ; [0x80019c8] = 0x40010000
        0x08001936:    4298        .B      CMP      r0,r3
        0x08001938:    d00b        ..      BEQ      0x8001952 ; TIM_Base_SetConfig + 34
        0x0800193a:    f1b04f80    ...O    CMP      r0,#0x40000000
        0x0800193e:    d008        ..      BEQ      0x8001952 ; TIM_Base_SetConfig + 34
        0x08001940:    4b22        "K      LDR      r3,[pc,#136] ; [0x80019cc] = 0x40000400
        0x08001942:    4298        .B      CMP      r0,r3
        0x08001944:    d005        ..      BEQ      0x8001952 ; TIM_Base_SetConfig + 34
        0x08001946:    4b22        "K      LDR      r3,[pc,#136] ; [0x80019d0] = 0x40000800
        0x08001948:    4298        .B      CMP      r0,r3
        0x0800194a:    d002        ..      BEQ      0x8001952 ; TIM_Base_SetConfig + 34
        0x0800194c:    4b21        !K      LDR      r3,[pc,#132] ; [0x80019d4] = 0x40000c00
        0x0800194e:    4298        .B      CMP      r0,r3
        0x08001950:    d103        ..      BNE      0x800195a ; TIM_Base_SetConfig + 42
        0x08001952:    f0220270    ".p.    BIC      r2,r2,#0x70
        0x08001956:    684b        Kh      LDR      r3,[r1,#4]
        0x08001958:    431a        .C      ORRS     r2,r2,r3
        0x0800195a:    4b1b        .K      LDR      r3,[pc,#108] ; [0x80019c8] = 0x40010000
        0x0800195c:    4298        .B      CMP      r0,r3
        0x0800195e:    d014        ..      BEQ      0x800198a ; TIM_Base_SetConfig + 90
        0x08001960:    f1b04f80    ...O    CMP      r0,#0x40000000
        0x08001964:    d011        ..      BEQ      0x800198a ; TIM_Base_SetConfig + 90
        0x08001966:    4b19        .K      LDR      r3,[pc,#100] ; [0x80019cc] = 0x40000400
        0x08001968:    4298        .B      CMP      r0,r3
        0x0800196a:    d00e        ..      BEQ      0x800198a ; TIM_Base_SetConfig + 90
        0x0800196c:    4b18        .K      LDR      r3,[pc,#96] ; [0x80019d0] = 0x40000800
        0x0800196e:    4298        .B      CMP      r0,r3
        0x08001970:    d00b        ..      BEQ      0x800198a ; TIM_Base_SetConfig + 90
        0x08001972:    4b18        .K      LDR      r3,[pc,#96] ; [0x80019d4] = 0x40000c00
        0x08001974:    4298        .B      CMP      r0,r3
        0x08001976:    d008        ..      BEQ      0x800198a ; TIM_Base_SetConfig + 90
        0x08001978:    4b17        .K      LDR      r3,[pc,#92] ; [0x80019d8] = 0x40014000
        0x0800197a:    4298        .B      CMP      r0,r3
        0x0800197c:    d005        ..      BEQ      0x800198a ; TIM_Base_SetConfig + 90
        0x0800197e:    4b17        .K      LDR      r3,[pc,#92] ; [0x80019dc] = 0x40014400
        0x08001980:    4298        .B      CMP      r0,r3
        0x08001982:    d002        ..      BEQ      0x800198a ; TIM_Base_SetConfig + 90
        0x08001984:    4b16        .K      LDR      r3,[pc,#88] ; [0x80019e0] = 0x40014800
        0x08001986:    4298        .B      CMP      r0,r3
        0x08001988:    d103        ..      BNE      0x8001992 ; TIM_Base_SetConfig + 98
        0x0800198a:    f4227240    ".@r    BIC      r2,r2,#0x300
        0x0800198e:    68cb        .h      LDR      r3,[r1,#0xc]
        0x08001990:    431a        .C      ORRS     r2,r2,r3
        0x08001992:    f0220380    "...    BIC      r3,r2,#0x80
        0x08001996:    694c        Li      LDR      r4,[r1,#0x14]
        0x08001998:    ea430204    C...    ORR      r2,r3,r4
        0x0800199c:    6002        .`      STR      r2,[r0,#0]
        0x0800199e:    688b        .h      LDR      r3,[r1,#8]
        0x080019a0:    62c3        .b      STR      r3,[r0,#0x2c]
        0x080019a2:    680b        .h      LDR      r3,[r1,#0]
        0x080019a4:    6283        .b      STR      r3,[r0,#0x28]
        0x080019a6:    4b08        .K      LDR      r3,[pc,#32] ; [0x80019c8] = 0x40010000
        0x080019a8:    4298        .B      CMP      r0,r3
        0x080019aa:    d101        ..      BNE      0x80019b0 ; TIM_Base_SetConfig + 128
        0x080019ac:    690b        .i      LDR      r3,[r1,#0x10]
        0x080019ae:    6303        .c      STR      r3,[r0,#0x30]
        0x080019b0:    2301        .#      MOVS     r3,#1
        0x080019b2:    6143        Ca      STR      r3,[r0,#0x14]
        0x080019b4:    6903        .i      LDR      r3,[r0,#0x10]
        0x080019b6:    f0030301    ....    AND      r3,r3,#1
        0x080019ba:    b11b        ..      CBZ      r3,0x80019c4 ; TIM_Base_SetConfig + 148
        0x080019bc:    6903        .i      LDR      r3,[r0,#0x10]
        0x080019be:    f0230301    #...    BIC      r3,r3,#1
        0x080019c2:    6103        .a      STR      r3,[r0,#0x10]
        0x080019c4:    bd10        ..      POP      {r4,pc}
    $d
        0x080019c6:    0000        ..      DCW    0
        0x080019c8:    40010000    ...@    DCD    1073807360
        0x080019cc:    40000400    ...@    DCD    1073742848
        0x080019d0:    40000800    ...@    DCD    1073743872
        0x080019d4:    40000c00    ...@    DCD    1073744896
        0x080019d8:    40014000    .@.@    DCD    1073823744
        0x080019dc:    40014400    .D.@    DCD    1073824768
        0x080019e0:    40014800    .H.@    DCD    1073825792
    $t
    i.Test_1
    Test_1
        0x080019e4:    b57f        ..      PUSH     {r0-r6,lr}
        0x080019e6:    2400        .$      MOVS     r4,#0
        0x080019e8:    4817        .H      LDR      r0,[pc,#92] ; [0x8001a48] = 0x200000b8
        0x080019ea:    4918        .I      LDR      r1,[pc,#96] ; [0x8001a4c] = 0x200000bc
        0x080019ec:    4b18        .K      LDR      r3,[pc,#96] ; [0x8001a50] = 0x200000b0
        0x080019ee:    4a19        .J      LDR      r2,[pc,#100] ; [0x8001a54] = 0x200000a0
        0x080019f0:    e9cd1000    ....    STRD     r1,r0,[sp,#0]
        0x080019f4:    4918        .I      LDR      r1,[pc,#96] ; [0x8001a58] = 0x2000009c
        0x080019f6:    4819        .H      LDR      r0,[pc,#100] ; [0x8001a5c] = 0x20004ab4
        0x080019f8:    f000fe5c    ..\.    BL       led_handler_inst ; 0x80026b4
        0x080019fc:    4304        .C      ORRS     r4,r4,r0
        0x080019fe:    2500        .%      MOVS     r5,#0
        0x08001a00:    4917        .I      LDR      r1,[pc,#92] ; [0x8001a60] = 0x20000094
        0x08001a02:    4818        .H      LDR      r0,[pc,#96] ; [0x8001a64] = 0x20004b08
        0x08001a04:    f000fdda    ....    BL       led_driver_inst ; 0x80025bc
        0x08001a08:    4305        .C      ORRS     r5,r5,r0
        0x08001a0a:    4915        .I      LDR      r1,[pc,#84] ; [0x8001a60] = 0x20000094
        0x08001a0c:    4816        .H      LDR      r0,[pc,#88] ; [0x8001a68] = 0x20004b1c
        0x08001a0e:    f000fdd5    ....    BL       led_driver_inst ; 0x80025bc
        0x08001a12:    4305        .C      ORRS     r5,r5,r0
        0x08001a14:    4811        .H      LDR      r0,[pc,#68] ; [0x8001a5c] = 0x20004ab4
        0x08001a16:    aa03        ..      ADD      r2,sp,#0xc
        0x08001a18:    4912        .I      LDR      r1,[pc,#72] ; [0x8001a64] = 0x20004b08
        0x08001a1a:    6d03        .m      LDR      r3,[r0,#0x50]
        0x08001a1c:    4798        .G      BLX      r3
        0x08001a1e:    4304        .C      ORRS     r4,r4,r0
        0x08001a20:    480e        .H      LDR      r0,[pc,#56] ; [0x8001a5c] = 0x20004ab4
        0x08001a22:    aa02        ..      ADD      r2,sp,#8
        0x08001a24:    4910        .I      LDR      r1,[pc,#64] ; [0x8001a68] = 0x20004b1c
        0x08001a26:    6d03        .m      LDR      r3,[r0,#0x50]
        0x08001a28:    4798        .G      BLX      r3
        0x08001a2a:    4304        .C      ORRS     r4,r4,r0
        0x08001a2c:    f89d000c    ....    LDRB     r0,[sp,#0xc]
        0x08001a30:    9000        ..      STR      r0,[sp,#0]
        0x08001a32:    480a        .H      LDR      r0,[pc,#40] ; [0x8001a5c] = 0x20004ab4
        0x08001a34:    2301        .#      MOVS     r3,#1
        0x08001a36:    2202        ."      MOVS     r2,#2
        0x08001a38:    210a        .!      MOVS     r1,#0xa
        0x08001a3a:    6cc6        .l      LDR      r6,[r0,#0x4c]
        0x08001a3c:    47b0        .G      BLX      r6
        0x08001a3e:    b114        ..      CBZ      r4,0x8001a46 ; Test_1 + 98
        0x08001a40:    a00a        ..      ADR      r0,{pc}+0x2c ; 0x8001a6c
        0x08001a42:    f000f9af    ....    BL       __0printf$3 ; 0x8001da4
        0x08001a46:    bd7f        ..      POP      {r0-r6,pc}
    $d
        0x08001a48:    200000b8    ...     DCD    536871096
        0x08001a4c:    200000bc    ...     DCD    536871100
        0x08001a50:    200000b0    ...     DCD    536871088
        0x08001a54:    200000a0    ...     DCD    536871072
        0x08001a58:    2000009c    ...     DCD    536871068
        0x08001a5c:    20004ab4    .J.     DCD    536890036
        0x08001a60:    20000094    ...     DCD    536871060
        0x08001a64:    20004b08    .K.     DCD    536890120
        0x08001a68:    20004b1c    .K.     DCD    536890140
        0x08001a6c:    74736554    Test    DCD    1953719636
        0x08001a70:    61662031    1 fa    DCD    1634082865
        0x08001a74:    64656c69    iled    DCD    1684368489
        0x08001a78:    00000a0d    ....    DCD    2573
    $t
    i.UART_EndRxTransfer
    UART_EndRxTransfer
        0x08001a7c:    bf00        ..      NOP      
        0x08001a7e:    bf00        ..      NOP      
        0x08001a80:    6802        .h      LDR      r2,[r0,#0]
        0x08001a82:    320c        .2      ADDS     r2,r2,#0xc
        0x08001a84:    e8522f00    R../    LDREX    r2,[r2]
        0x08001a88:    f4227190    "..q    BIC      r1,r2,#0x120
        0x08001a8c:    6802        .h      LDR      r2,[r0,#0]
        0x08001a8e:    320c        .2      ADDS     r2,r2,#0xc
        0x08001a90:    e8421300    B...    STREX    r3,r1,[r2]
        0x08001a94:    2b00        .+      CMP      r3,#0
        0x08001a96:    d1f3        ..      BNE      0x8001a80 ; UART_EndRxTransfer + 4
        0x08001a98:    bf00        ..      NOP      
        0x08001a9a:    bf00        ..      NOP      
        0x08001a9c:    bf00        ..      NOP      
        0x08001a9e:    6802        .h      LDR      r2,[r0,#0]
        0x08001aa0:    3214        .2      ADDS     r2,r2,#0x14
        0x08001aa2:    e8522f00    R../    LDREX    r2,[r2]
        0x08001aa6:    f0220101    "...    BIC      r1,r2,#1
        0x08001aaa:    6802        .h      LDR      r2,[r0,#0]
        0x08001aac:    3214        .2      ADDS     r2,r2,#0x14
        0x08001aae:    e8421300    B...    STREX    r3,r1,[r2]
        0x08001ab2:    2b00        .+      CMP      r3,#0
        0x08001ab4:    d1f3        ..      BNE      0x8001a9e ; UART_EndRxTransfer + 34
        0x08001ab6:    bf00        ..      NOP      
        0x08001ab8:    6b01        .k      LDR      r1,[r0,#0x30]
        0x08001aba:    2901        .)      CMP      r1,#1
        0x08001abc:    d10e        ..      BNE      0x8001adc ; UART_EndRxTransfer + 96
        0x08001abe:    bf00        ..      NOP      
        0x08001ac0:    bf00        ..      NOP      
        0x08001ac2:    6802        .h      LDR      r2,[r0,#0]
        0x08001ac4:    320c        .2      ADDS     r2,r2,#0xc
        0x08001ac6:    e8522f00    R../    LDREX    r2,[r2]
        0x08001aca:    f0220110    "...    BIC      r1,r2,#0x10
        0x08001ace:    6802        .h      LDR      r2,[r0,#0]
        0x08001ad0:    320c        .2      ADDS     r2,r2,#0xc
        0x08001ad2:    e8421300    B...    STREX    r3,r1,[r2]
        0x08001ad6:    2b00        .+      CMP      r3,#0
        0x08001ad8:    d1f3        ..      BNE      0x8001ac2 ; UART_EndRxTransfer + 70
        0x08001ada:    bf00        ..      NOP      
        0x08001adc:    2120         !      MOVS     r1,#0x20
        0x08001ade:    f8801042    ..B.    STRB     r1,[r0,#0x42]
        0x08001ae2:    2100        .!      MOVS     r1,#0
        0x08001ae4:    6301        .c      STR      r1,[r0,#0x30]
        0x08001ae6:    4770        pG      BX       lr
    i.UART_SetConfig
    UART_SetConfig
        0x08001ae8:    e92d4ff8    -..O    PUSH     {r3-r11,lr}
        0x08001aec:    4604        .F      MOV      r4,r0
        0x08001aee:    6820         h      LDR      r0,[r4,#0]
        0x08001af0:    6900        .i      LDR      r0,[r0,#0x10]
        0x08001af2:    f4205040     .@P    BIC      r0,r0,#0x3000
        0x08001af6:    68e1        .h      LDR      r1,[r4,#0xc]
        0x08001af8:    4308        .C      ORRS     r0,r0,r1
        0x08001afa:    6821        !h      LDR      r1,[r4,#0]
        0x08001afc:    6108        .a      STR      r0,[r1,#0x10]
        0x08001afe:    6921        !i      LDR      r1,[r4,#0x10]
        0x08001b00:    68a0        .h      LDR      r0,[r4,#8]
        0x08001b02:    4308        .C      ORRS     r0,r0,r1
        0x08001b04:    6961        ai      LDR      r1,[r4,#0x14]
        0x08001b06:    4308        .C      ORRS     r0,r0,r1
        0x08001b08:    69e1        .i      LDR      r1,[r4,#0x1c]
        0x08001b0a:    4308        .C      ORRS     r0,r0,r1
        0x08001b0c:    9000        ..      STR      r0,[sp,#0]
        0x08001b0e:    6820         h      LDR      r0,[r4,#0]
        0x08001b10:    68c0        .h      LDR      r0,[r0,#0xc]
        0x08001b12:    f249610c    I..a    MOV      r1,#0x960c
        0x08001b16:    4388        .C      BICS     r0,r0,r1
        0x08001b18:    9900        ..      LDR      r1,[sp,#0]
        0x08001b1a:    4308        .C      ORRS     r0,r0,r1
        0x08001b1c:    6821        !h      LDR      r1,[r4,#0]
        0x08001b1e:    60c8        .`      STR      r0,[r1,#0xc]
        0x08001b20:    6820         h      LDR      r0,[r4,#0]
        0x08001b22:    6940        @i      LDR      r0,[r0,#0x14]
        0x08001b24:    f4207040     .@p    BIC      r0,r0,#0x300
        0x08001b28:    69a1        .i      LDR      r1,[r4,#0x18]
        0x08001b2a:    4308        .C      ORRS     r0,r0,r1
        0x08001b2c:    6821        !h      LDR      r1,[r4,#0]
        0x08001b2e:    6148        Ha      STR      r0,[r1,#0x14]
        0x08001b30:    4976        vI      LDR      r1,[pc,#472] ; [0x8001d0c] = 0x40011000
        0x08001b32:    6820         h      LDR      r0,[r4,#0]
        0x08001b34:    4288        .B      CMP      r0,r1
        0x08001b36:    d003        ..      BEQ      0x8001b40 ; UART_SetConfig + 88
        0x08001b38:    4975        uI      LDR      r1,[pc,#468] ; [0x8001d10] = 0x40011400
        0x08001b3a:    6820         h      LDR      r0,[r4,#0]
        0x08001b3c:    4288        .B      CMP      r0,r1
        0x08001b3e:    d103        ..      BNE      0x8001b48 ; UART_SetConfig + 96
        0x08001b40:    f7fff81a    ....    BL       HAL_RCC_GetPCLK2Freq ; 0x8000b78
        0x08001b44:    4681        .F      MOV      r9,r0
        0x08001b46:    e002        ..      B        0x8001b4e ; UART_SetConfig + 102
        0x08001b48:    f7fff806    ....    BL       HAL_RCC_GetPCLK1Freq ; 0x8000b58
        0x08001b4c:    4681        .F      MOV      r9,r0
        0x08001b4e:    69e0        .i      LDR      r0,[r4,#0x1c]
        0x08001b50:    f5b04f00    ...O    CMP      r0,#0x8000
        0x08001b54:    d16c        l.      BNE      0x8001c30 ; UART_SetConfig + 328
        0x08001b56:    2002        .       MOVS     r0,#2
        0x08001b58:    6861        ah      LDR      r1,[r4,#4]
        0x08001b5a:    fba05001    ...P    UMULL    r5,r0,r0,r1
        0x08001b5e:    4603        .F      MOV      r3,r0
        0x08001b60:    2019        .       MOVS     r0,#0x19
        0x08001b62:    fba97000    ...p    UMULL    r7,r0,r9,r0
        0x08001b66:    4601        .F      MOV      r1,r0
        0x08001b68:    462a        *F      MOV      r2,r5
        0x08001b6a:    4638        8F      MOV      r0,r7
        0x08001b6c:    f7fefb92    ....    BL       __aeabi_uldivmod ; 0x8000294
        0x08001b70:    2164        d!      MOVS     r1,#0x64
        0x08001b72:    fbb0f0f1    ....    UDIV     r0,r0,r1
        0x08001b76:    ea4f1a00    O...    LSL      r10,r0,#4
        0x08001b7a:    2002        .       MOVS     r0,#2
        0x08001b7c:    6861        ah      LDR      r1,[r4,#4]
        0x08001b7e:    fba05101    ...Q    UMULL    r5,r1,r0,r1
        0x08001b82:    460b        .F      MOV      r3,r1
        0x08001b84:    2019        .       MOVS     r0,#0x19
        0x08001b86:    fba97100    ...q    UMULL    r7,r1,r9,r0
        0x08001b8a:    462a        *F      MOV      r2,r5
        0x08001b8c:    4638        8F      MOV      r0,r7
        0x08001b8e:    f7fefb81    ....    BL       __aeabi_uldivmod ; 0x8000294
        0x08001b92:    4683        .F      MOV      r11,r0
        0x08001b94:    2002        .       MOVS     r0,#2
        0x08001b96:    6861        ah      LDR      r1,[r4,#4]
        0x08001b98:    fba05001    ...P    UMULL    r5,r0,r0,r1
        0x08001b9c:    4603        .F      MOV      r3,r0
        0x08001b9e:    2019        .       MOVS     r0,#0x19
        0x08001ba0:    fba97100    ...q    UMULL    r7,r1,r9,r0
        0x08001ba4:    462a        *F      MOV      r2,r5
        0x08001ba6:    4638        8F      MOV      r0,r7
        0x08001ba8:    f7fefb74    ..t.    BL       __aeabi_uldivmod ; 0x8000294
        0x08001bac:    2164        d!      MOVS     r1,#0x64
        0x08001bae:    fbb0f0f1    ....    UDIV     r0,r0,r1
        0x08001bb2:    eb0001c0    ....    ADD      r1,r0,r0,LSL #3
        0x08001bb6:    eb011000    ....    ADD      r0,r1,r0,LSL #4
        0x08001bba:    ebab0080    ....    SUB      r0,r11,r0,LSL #2
        0x08001bbe:    2132        2!      MOVS     r1,#0x32
        0x08001bc0:    eb0100c0    ....    ADD      r0,r1,r0,LSL #3
        0x08001bc4:    2164        d!      MOVS     r1,#0x64
        0x08001bc6:    fbb0f0f1    ....    UDIV     r0,r0,r1
        0x08001bca:    f00000f8    ....    AND      r0,r0,#0xf8
        0x08001bce:    eb0a0a40    ..@.    ADD      r10,r10,r0,LSL #1
        0x08001bd2:    2002        .       MOVS     r0,#2
        0x08001bd4:    6861        ah      LDR      r1,[r4,#4]
        0x08001bd6:    fba05001    ...P    UMULL    r5,r0,r0,r1
        0x08001bda:    4603        .F      MOV      r3,r0
        0x08001bdc:    2019        .       MOVS     r0,#0x19
        0x08001bde:    fba97000    ...p    UMULL    r7,r0,r9,r0
        0x08001be2:    4601        .F      MOV      r1,r0
        0x08001be4:    462a        *F      MOV      r2,r5
        0x08001be6:    4638        8F      MOV      r0,r7
        0x08001be8:    f7fefb54    ..T.    BL       __aeabi_uldivmod ; 0x8000294
        0x08001bec:    4683        .F      MOV      r11,r0
        0x08001bee:    2002        .       MOVS     r0,#2
        0x08001bf0:    6861        ah      LDR      r1,[r4,#4]
        0x08001bf2:    fba05001    ...P    UMULL    r5,r0,r0,r1
        0x08001bf6:    4603        .F      MOV      r3,r0
        0x08001bf8:    2019        .       MOVS     r0,#0x19
        0x08001bfa:    fba97100    ...q    UMULL    r7,r1,r9,r0
        0x08001bfe:    462a        *F      MOV      r2,r5
        0x08001c00:    4638        8F      MOV      r0,r7
        0x08001c02:    f7fefb47    ..G.    BL       __aeabi_uldivmod ; 0x8000294
        0x08001c06:    2164        d!      MOVS     r1,#0x64
        0x08001c08:    fbb0f0f1    ....    UDIV     r0,r0,r1
        0x08001c0c:    eb0001c0    ....    ADD      r1,r0,r0,LSL #3
        0x08001c10:    eb011000    ....    ADD      r0,r1,r0,LSL #4
        0x08001c14:    ebab0080    ....    SUB      r0,r11,r0,LSL #2
        0x08001c18:    2132        2!      MOVS     r1,#0x32
        0x08001c1a:    eb0100c0    ....    ADD      r0,r1,r0,LSL #3
        0x08001c1e:    2164        d!      MOVS     r1,#0x64
        0x08001c20:    fbb0f0f1    ....    UDIV     r0,r0,r1
        0x08001c24:    f0000007    ....    AND      r0,r0,#7
        0x08001c28:    4450        PD      ADD      r0,r0,r10
        0x08001c2a:    6821        !h      LDR      r1,[r4,#0]
        0x08001c2c:    6088        .`      STR      r0,[r1,#8]
        0x08001c2e:    e06a        j.      B        0x8001d06 ; UART_SetConfig + 542
        0x08001c30:    2004        .       MOVS     r0,#4
        0x08001c32:    6861        ah      LDR      r1,[r4,#4]
        0x08001c34:    fba05001    ...P    UMULL    r5,r0,r0,r1
        0x08001c38:    4603        .F      MOV      r3,r0
        0x08001c3a:    2019        .       MOVS     r0,#0x19
        0x08001c3c:    fba97000    ...p    UMULL    r7,r0,r9,r0
        0x08001c40:    4601        .F      MOV      r1,r0
        0x08001c42:    462a        *F      MOV      r2,r5
        0x08001c44:    4638        8F      MOV      r0,r7
        0x08001c46:    f7fefb25    ..%.    BL       __aeabi_uldivmod ; 0x8000294
        0x08001c4a:    4682        .F      MOV      r10,r0
        0x08001c4c:    2004        .       MOVS     r0,#4
        0x08001c4e:    6861        ah      LDR      r1,[r4,#4]
        0x08001c50:    fba05001    ...P    UMULL    r5,r0,r0,r1
        0x08001c54:    4603        .F      MOV      r3,r0
        0x08001c56:    2019        .       MOVS     r0,#0x19
        0x08001c58:    fba97000    ...p    UMULL    r7,r0,r9,r0
        0x08001c5c:    4601        .F      MOV      r1,r0
        0x08001c5e:    462a        *F      MOV      r2,r5
        0x08001c60:    4638        8F      MOV      r0,r7
        0x08001c62:    f7fefb17    ....    BL       __aeabi_uldivmod ; 0x8000294
        0x08001c66:    2164        d!      MOVS     r1,#0x64
        0x08001c68:    fbb0f0f1    ....    UDIV     r0,r0,r1
        0x08001c6c:    eb0001c0    ....    ADD      r1,r0,r0,LSL #3
        0x08001c70:    eb011000    ....    ADD      r0,r1,r0,LSL #4
        0x08001c74:    ebaa0080    ....    SUB      r0,r10,r0,LSL #2
        0x08001c78:    2132        2!      MOVS     r1,#0x32
        0x08001c7a:    eb011000    ....    ADD      r0,r1,r0,LSL #4
        0x08001c7e:    2164        d!      MOVS     r1,#0x64
        0x08001c80:    fbb0f0f1    ....    UDIV     r0,r0,r1
        0x08001c84:    f0000af0    ....    AND      r10,r0,#0xf0
        0x08001c88:    2004        .       MOVS     r0,#4
        0x08001c8a:    6861        ah      LDR      r1,[r4,#4]
        0x08001c8c:    fba07001    ...p    UMULL    r7,r0,r0,r1
        0x08001c90:    4603        .F      MOV      r3,r0
        0x08001c92:    2019        .       MOVS     r0,#0x19
        0x08001c94:    fba95100    ...Q    UMULL    r5,r1,r9,r0
        0x08001c98:    463a        :F      MOV      r2,r7
        0x08001c9a:    4628        (F      MOV      r0,r5
        0x08001c9c:    f7fefafa    ....    BL       __aeabi_uldivmod ; 0x8000294
        0x08001ca0:    2164        d!      MOVS     r1,#0x64
        0x08001ca2:    fbb0f0f1    ....    UDIV     r0,r0,r1
        0x08001ca6:    eb0a1a00    ....    ADD      r10,r10,r0,LSL #4
        0x08001caa:    2004        .       MOVS     r0,#4
        0x08001cac:    6861        ah      LDR      r1,[r4,#4]
        0x08001cae:    fba05101    ...Q    UMULL    r5,r1,r0,r1
        0x08001cb2:    460b        .F      MOV      r3,r1
        0x08001cb4:    2019        .       MOVS     r0,#0x19
        0x08001cb6:    fba97100    ...q    UMULL    r7,r1,r9,r0
        0x08001cba:    462a        *F      MOV      r2,r5
        0x08001cbc:    4638        8F      MOV      r0,r7
        0x08001cbe:    f7fefae9    ....    BL       __aeabi_uldivmod ; 0x8000294
        0x08001cc2:    4683        .F      MOV      r11,r0
        0x08001cc4:    2004        .       MOVS     r0,#4
        0x08001cc6:    6861        ah      LDR      r1,[r4,#4]
        0x08001cc8:    fba05001    ...P    UMULL    r5,r0,r0,r1
        0x08001ccc:    4603        .F      MOV      r3,r0
        0x08001cce:    2019        .       MOVS     r0,#0x19
        0x08001cd0:    fba97000    ...p    UMULL    r7,r0,r9,r0
        0x08001cd4:    4601        .F      MOV      r1,r0
        0x08001cd6:    462a        *F      MOV      r2,r5
        0x08001cd8:    4638        8F      MOV      r0,r7
        0x08001cda:    f7fefadb    ....    BL       __aeabi_uldivmod ; 0x8000294
        0x08001cde:    2164        d!      MOVS     r1,#0x64
        0x08001ce0:    fbb0f0f1    ....    UDIV     r0,r0,r1
        0x08001ce4:    eb0001c0    ....    ADD      r1,r0,r0,LSL #3
        0x08001ce8:    eb011000    ....    ADD      r0,r1,r0,LSL #4
        0x08001cec:    ebab0080    ....    SUB      r0,r11,r0,LSL #2
        0x08001cf0:    2132        2!      MOVS     r1,#0x32
        0x08001cf2:    eb011000    ....    ADD      r0,r1,r0,LSL #4
        0x08001cf6:    2164        d!      MOVS     r1,#0x64
        0x08001cf8:    fbb0f0f1    ....    UDIV     r0,r0,r1
        0x08001cfc:    f000000f    ....    AND      r0,r0,#0xf
        0x08001d00:    4450        PD      ADD      r0,r0,r10
        0x08001d02:    6821        !h      LDR      r1,[r4,#0]
        0x08001d04:    6088        .`      STR      r0,[r1,#8]
        0x08001d06:    e8bd8ff8    ....    POP      {r3-r11,pc}
    $d
        0x08001d0a:    0000        ..      DCW    0
        0x08001d0c:    40011000    ...@    DCD    1073811456
        0x08001d10:    40011400    ...@    DCD    1073812480
    $t
    i.UART_WaitOnFlagUntilTimeout
    UART_WaitOnFlagUntilTimeout
        0x08001d14:    e92d43f8    -..C    PUSH     {r3-r9,lr}
        0x08001d18:    4604        .F      MOV      r4,r0
        0x08001d1a:    460d        .F      MOV      r5,r1
        0x08001d1c:    4617        .F      MOV      r7,r2
        0x08001d1e:    4698        .F      MOV      r8,r3
        0x08001d20:    9e08        ..      LDR      r6,[sp,#0x20]
        0x08001d22:    e031        1.      B        0x8001d88 ; UART_WaitOnFlagUntilTimeout + 116
        0x08001d24:    1c70        p.      ADDS     r0,r6,#1
        0x08001d26:    b370        p.      CBZ      r0,0x8001d86 ; UART_WaitOnFlagUntilTimeout + 114
        0x08001d28:    f7fefc40    ..@.    BL       HAL_GetTick ; 0x80005ac
        0x08001d2c:    eba00008    ....    SUB      r0,r0,r8
        0x08001d30:    42b0        .B      CMP      r0,r6
        0x08001d32:    d800        ..      BHI      0x8001d36 ; UART_WaitOnFlagUntilTimeout + 34
        0x08001d34:    b916        ..      CBNZ     r6,0x8001d3c ; UART_WaitOnFlagUntilTimeout + 40
        0x08001d36:    2003        .       MOVS     r0,#3
        0x08001d38:    e8bd83f8    ....    POP      {r3-r9,pc}
        0x08001d3c:    6820         h      LDR      r0,[r4,#0]
        0x08001d3e:    68c0        .h      LDR      r0,[r0,#0xc]
        0x08001d40:    f0000004    ....    AND      r0,r0,#4
        0x08001d44:    b1f8        ..      CBZ      r0,0x8001d86 ; UART_WaitOnFlagUntilTimeout + 114
        0x08001d46:    2d80        .-      CMP      r5,#0x80
        0x08001d48:    d01e        ..      BEQ      0x8001d88 ; UART_WaitOnFlagUntilTimeout + 116
        0x08001d4a:    2d40        @-      CMP      r5,#0x40
        0x08001d4c:    d01c        ..      BEQ      0x8001d88 ; UART_WaitOnFlagUntilTimeout + 116
        0x08001d4e:    6820         h      LDR      r0,[r4,#0]
        0x08001d50:    6800        .h      LDR      r0,[r0,#0]
        0x08001d52:    f3c000c0    ....    UBFX     r0,r0,#3,#1
        0x08001d56:    b1b0        ..      CBZ      r0,0x8001d86 ; UART_WaitOnFlagUntilTimeout + 114
        0x08001d58:    bf00        ..      NOP      
        0x08001d5a:    2000        .       MOVS     r0,#0
        0x08001d5c:    9000        ..      STR      r0,[sp,#0]
        0x08001d5e:    6820         h      LDR      r0,[r4,#0]
        0x08001d60:    6800        .h      LDR      r0,[r0,#0]
        0x08001d62:    9000        ..      STR      r0,[sp,#0]
        0x08001d64:    6820         h      LDR      r0,[r4,#0]
        0x08001d66:    6840        @h      LDR      r0,[r0,#4]
        0x08001d68:    9000        ..      STR      r0,[sp,#0]
        0x08001d6a:    bf00        ..      NOP      
        0x08001d6c:    bf00        ..      NOP      
        0x08001d6e:    4620         F      MOV      r0,r4
        0x08001d70:    f7fffe84    ....    BL       UART_EndRxTransfer ; 0x8001a7c
        0x08001d74:    2008        .       MOVS     r0,#8
        0x08001d76:    6460        `d      STR      r0,[r4,#0x44]
        0x08001d78:    bf00        ..      NOP      
        0x08001d7a:    2000        .       MOVS     r0,#0
        0x08001d7c:    f8840040    ..@.    STRB     r0,[r4,#0x40]
        0x08001d80:    bf00        ..      NOP      
        0x08001d82:    2001        .       MOVS     r0,#1
        0x08001d84:    e7d8        ..      B        0x8001d38 ; UART_WaitOnFlagUntilTimeout + 36
        0x08001d86:    e7ff        ..      B        0x8001d88 ; UART_WaitOnFlagUntilTimeout + 116
        0x08001d88:    6820         h      LDR      r0,[r4,#0]
        0x08001d8a:    6800        .h      LDR      r0,[r0,#0]
        0x08001d8c:    4028        (@      ANDS     r0,r0,r5
        0x08001d8e:    42a8        .B      CMP      r0,r5
        0x08001d90:    d101        ..      BNE      0x8001d96 ; UART_WaitOnFlagUntilTimeout + 130
        0x08001d92:    2001        .       MOVS     r0,#1
        0x08001d94:    e000        ..      B        0x8001d98 ; UART_WaitOnFlagUntilTimeout + 132
        0x08001d96:    2000        .       MOVS     r0,#0
        0x08001d98:    42b8        .B      CMP      r0,r7
        0x08001d9a:    d0c3        ..      BEQ      0x8001d24 ; UART_WaitOnFlagUntilTimeout + 16
        0x08001d9c:    2000        .       MOVS     r0,#0
        0x08001d9e:    e7cb        ..      B        0x8001d38 ; UART_WaitOnFlagUntilTimeout + 36
    i.UsageFault_Handler
    UsageFault_Handler
        0x08001da0:    bf00        ..      NOP      
        0x08001da2:    e7fe        ..      B        0x8001da2 ; UsageFault_Handler + 2
    i.__0printf$3
    __0printf$3
    __1printf$3
    __2printf
        0x08001da4:    b40f        ..      PUSH     {r0-r3}
        0x08001da6:    4b05        .K      LDR      r3,[pc,#20] ; [0x8001dbc] = 0x800222d
        0x08001da8:    b510        ..      PUSH     {r4,lr}
        0x08001daa:    a903        ..      ADD      r1,sp,#0xc
        0x08001dac:    4a04        .J      LDR      r2,[pc,#16] ; [0x8001dc0] = 0x200000c4
        0x08001dae:    9802        ..      LDR      r0,[sp,#8]
        0x08001db0:    f000f960    ..`.    BL       _printf_core ; 0x8002074
        0x08001db4:    bc10        ..      POP      {r4}
        0x08001db6:    f85dfb14    ]...    LDR      pc,[sp],#0x14
    $d
        0x08001dba:    0000        ..      DCW    0
        0x08001dbc:    0800222d    -"..    DCD    134226477
        0x08001dc0:    200000c4    ...     DCD    536871108
    $t
    i.__NVIC_GetPriorityGrouping
    __NVIC_GetPriorityGrouping
        0x08001dc4:    4802        .H      LDR      r0,[pc,#8] ; [0x8001dd0] = 0xe000ed0c
        0x08001dc6:    6800        .h      LDR      r0,[r0,#0]
        0x08001dc8:    f3c02002    ...     UBFX     r0,r0,#8,#3
        0x08001dcc:    4770        pG      BX       lr
    $d
        0x08001dce:    0000        ..      DCW    0
        0x08001dd0:    e000ed0c    ....    DCD    3758157068
    $t
    i.__NVIC_SetPriority
    __NVIC_SetPriority
        0x08001dd4:    b510        ..      PUSH     {r4,lr}
        0x08001dd6:    2800        .(      CMP      r0,#0
        0x08001dd8:    db04        ..      BLT      0x8001de4 ; __NVIC_SetPriority + 16
        0x08001dda:    070a        ..      LSLS     r2,r1,#28
        0x08001ddc:    0e13        ..      LSRS     r3,r2,#24
        0x08001dde:    4a05        .J      LDR      r2,[pc,#20] ; [0x8001df4] = 0xe000e400
        0x08001de0:    5413        .T      STRB     r3,[r2,r0]
        0x08001de2:    e006        ..      B        0x8001df2 ; __NVIC_SetPriority + 30
        0x08001de4:    070a        ..      LSLS     r2,r1,#28
        0x08001de6:    0e14        ..      LSRS     r4,r2,#24
        0x08001de8:    4a03        .J      LDR      r2,[pc,#12] ; [0x8001df8] = 0xe000ed18
        0x08001dea:    f000030f    ....    AND      r3,r0,#0xf
        0x08001dee:    1f1b        ..      SUBS     r3,r3,#4
        0x08001df0:    54d4        .T      STRB     r4,[r2,r3]
        0x08001df2:    bd10        ..      POP      {r4,pc}
    $d
        0x08001df4:    e000e400    ....    DCD    3758154752
        0x08001df8:    e000ed18    ....    DCD    3758157080
    $t
    i.__array_init
    __array_init
        0x08001dfc:    4602        .F      MOV      r2,r0
        0x08001dfe:    2000        .       MOVS     r0,#0
        0x08001e00:    e004        ..      B        0x8001e0c ; __array_init + 16
        0x08001e02:    f04f33a6    O..3    MOV      r3,#0xa6a6a6a6
        0x08001e06:    f8423020    B. 0    STR      r3,[r2,r0,LSL #2]
        0x08001e0a:    1c40        @.      ADDS     r0,r0,#1
        0x08001e0c:    4288        .B      CMP      r0,r1
        0x08001e0e:    d3f8        ..      BCC      0x8001e02 ; __array_init + 6
        0x08001e10:    2000        .       MOVS     r0,#0
        0x08001e12:    4770        pG      BX       lr
    i.__event_process
    __event_process
        0x08001e14:    b57f        ..      PUSH     {r0-r6,lr}
        0x08001e16:    4604        .F      MOV      r4,r0
        0x08001e18:    2500        .%      MOVS     r5,#0
        0x08001e1a:    f89d000d    ....    LDRB     r0,[sp,#0xd]
        0x08001e1e:    280a        .(      CMP      r0,#0xa
        0x08001e20:    dd07        ..      BLE      0x8001e32 ; __event_process + 30
        0x08001e22:    228a        ."      MOVS     r2,#0x8a
        0x08001e24:    a11f        ..      ADR      r1,{pc}+0x80 ; 0x8001ea4
        0x08001e26:    a029        ).      ADR      r0,{pc}+0xa6 ; 0x8001ecc
        0x08001e28:    f7ffffbc    ....    BL       __0printf$3 ; 0x8001da4
        0x08001e2c:    2003        .       MOVS     r0,#3
        0x08001e2e:    b004        ..      ADD      sp,sp,#0x10
        0x08001e30:    bd70        p.      POP      {r4-r6,pc}
        0x08001e32:    f89d100d    ....    LDRB     r1,[sp,#0xd]
        0x08001e36:    f1040008    ....    ADD      r0,r4,#8
        0x08001e3a:    f8500021    P.!.    LDR      r0,[r0,r1,LSL #2]
        0x08001e3e:    f1b03fa6    ...?    CMP      r0,#0xa6a6a6a6
        0x08001e42:    d106        ..      BNE      0x8001e52 ; __event_process + 62
        0x08001e44:    2294        ."      MOVS     r2,#0x94
        0x08001e46:    a117        ..      ADR      r1,{pc}+0x5e ; 0x8001ea4
        0x08001e48:    a02c        ,.      ADR      r0,{pc}+0xb4 ; 0x8001efc
        0x08001e4a:    f7ffffab    ....    BL       __0printf$3 ; 0x8001da4
        0x08001e4e:    2003        .       MOVS     r0,#3
        0x08001e50:    e7ed        ..      B        0x8001e2e ; __event_process + 26
        0x08001e52:    f89d200d    ...     LDRB     r2,[sp,#0xd]
        0x08001e56:    f1040008    ....    ADD      r0,r4,#8
        0x08001e5a:    f8500022    P.".    LDR      r0,[r0,r2,LSL #2]
        0x08001e5e:    9901        ..      LDR      r1,[sp,#4]
        0x08001e60:    6041        A`      STR      r1,[r0,#4]
        0x08001e62:    f89d200d    ...     LDRB     r2,[sp,#0xd]
        0x08001e66:    f1040008    ....    ADD      r0,r4,#8
        0x08001e6a:    f8500022    P.".    LDR      r0,[r0,r2,LSL #2]
        0x08001e6e:    9902        ..      LDR      r1,[sp,#8]
        0x08001e70:    6081        .`      STR      r1,[r0,#8]
        0x08001e72:    f89d100c    ....    LDRB     r1,[sp,#0xc]
        0x08001e76:    f89d200d    ...     LDRB     r2,[sp,#0xd]
        0x08001e7a:    f1040008    ....    ADD      r0,r4,#8
        0x08001e7e:    f8500022    P.".    LDR      r0,[r0,r2,LSL #2]
        0x08001e82:    7301        .s      STRB     r1,[r0,#0xc]
        0x08001e84:    f89d100d    ....    LDRB     r1,[sp,#0xd]
        0x08001e88:    4620         F      MOV      r0,r4
        0x08001e8a:    f000f865    ..e.    BL       __led_blink_handler ; 0x8001f58
        0x08001e8e:    4605        .F      MOV      r5,r0
        0x08001e90:    b135        5.      CBZ      r5,0x8001ea0 ; __event_process + 140
        0x08001e92:    22a6        ."      MOVS     r2,#0xa6
        0x08001e94:    a103        ..      ADR      r1,{pc}+0x10 ; 0x8001ea4
        0x08001e96:    a024        $.      ADR      r0,{pc}+0x92 ; 0x8001f28
        0x08001e98:    f7ffff84    ....    BL       __0printf$3 ; 0x8001da4
        0x08001e9c:    2001        .       MOVS     r0,#1
        0x08001e9e:    e7c6        ..      B        0x8001e2e ; __event_process + 26
        0x08001ea0:    4628        (F      MOV      r0,r5
        0x08001ea2:    e7c4        ..      B        0x8001e2e ; __event_process + 26
    $d
        0x08001ea4:    425c2e2e    ..\B    DCD    1113337390
        0x08001ea8:    6c5c5053    SP\l    DCD    1817989203
        0x08001eac:    685c6465    ed\h    DCD    1750885477
        0x08001eb0:    6c646e61    andl    DCD    1818521185
        0x08001eb4:    625c7265    er\b    DCD    1650225765
        0x08001eb8:    6c5f7073    sp_l    DCD    1818194035
        0x08001ebc:    685f6465    ed_h    DCD    1751082085
        0x08001ec0:    6c646e61    andl    DCD    1818521185
        0x08001ec4:    632e7265    er.c    DCD    1663988325
        0x08001ec8:    00000000    ....    DCD    0
        0x08001ecc:    5f44454c    LED_    DCD    1598309708
        0x08001ed0:    444e4148    HAND    DCD    1145979208
        0x08001ed4:    5f52454c    LER_    DCD    1599227212
        0x08001ed8:    5f525245    ERR_    DCD    1599230533
        0x08001edc:    45534552    RESE    DCD    1163085138
        0x08001ee0:    44455652    RVED    DCD    1145394770
        0x08001ee4:    206e6920     in     DCD    544106784
        0x08001ee8:    656c6966    file    DCD    1701603686
        0x08001eec:    2c73253a    :%s,    DCD    745743674
        0x08001ef0:    6e696c20     lin    DCD    1852402720
        0x08001ef4:    64253a65    e:%d    DCD    1680161381
        0x08001ef8:    0000000a    ....    DCD    10
        0x08001efc:    5f44454c    LED_    DCD    1598309708
        0x08001f00:    444e4148    HAND    DCD    1145979208
        0x08001f04:    5f52454c    LER_    DCD    1599227212
        0x08001f08:    5f525245    ERR_    DCD    1599230533
        0x08001f0c:    52554f53    SOUR    DCD    1381322579
        0x08001f10:    69204543    CE i    DCD    1763722563
        0x08001f14:    6966206e    n fi    DCD    1768300654
        0x08001f18:    253a656c    le:%    DCD    624584044
        0x08001f1c:    6c202c73    s, l    DCD    1814047859
        0x08001f20:    3a656e69    ine:    DCD    979725929
        0x08001f24:    000a6425    %d..    DCD    680997
        0x08001f28:    5f44454c    LED_    DCD    1598309708
        0x08001f2c:    444e4148    HAND    DCD    1145979208
        0x08001f30:    5f52454c    LER_    DCD    1599227212
        0x08001f34:    4f525245    ERRO    DCD    1330795077
        0x08001f38:    6e692052    R in    DCD    1852383314
        0x08001f3c:    6c696620     fil    DCD    1818846752
        0x08001f40:    73253a65    e:%s    DCD    1931819621
        0x08001f44:    696c202c    , li    DCD    1768693804
        0x08001f48:    253a656e    ne:%    DCD    624584046
        0x08001f4c:    00000a64    d...    DCD    2660
    $t
    i.__get_IPSR
    __get_IPSR
        0x08001f50:    f3ef8005    ....    MRS      r0,IPSR
        0x08001f54:    4770        pG      BX       lr
        0x08001f56:    0000        ..      MOVS     r0,r0
    i.__led_blink_handler
    __led_blink_handler
        0x08001f58:    e92d4ff8    -..O    PUSH     {r3-r11,lr}
        0x08001f5c:    4604        .F      MOV      r4,r0
        0x08001f5e:    460d        .F      MOV      r5,r1
        0x08001f60:    2000        .       MOVS     r0,#0
        0x08001f62:    9000        ..      STR      r0,[sp,#0]
        0x08001f64:    f1040008    ....    ADD      r0,r4,#8
        0x08001f68:    f8500025    P.%.    LDR      r0,[r0,r5,LSL #2]
        0x08001f6c:    6846        Fh      LDR      r6,[r0,#4]
        0x08001f6e:    f1040008    ....    ADD      r0,r4,#8
        0x08001f72:    f8500025    P.%.    LDR      r0,[r0,r5,LSL #2]
        0x08001f76:    f8d0b008    ....    LDR      r11,[r0,#8]
        0x08001f7a:    f1040008    ....    ADD      r0,r4,#8
        0x08001f7e:    f8500025    P.%.    LDR      r0,[r0,r5,LSL #2]
        0x08001f82:    f890800c    ....    LDRB     r8,[r0,#0xc]
        0x08001f86:    f1b80f02    ....    CMP      r8,#2
        0x08001f8a:    d101        ..      BNE      0x8001f90 ; __led_blink_handler + 56
        0x08001f8c:    0877        w.      LSRS     r7,r6,#1
        0x08001f8e:    e013        ..      B        0x8001fb8 ; __led_blink_handler + 96
        0x08001f90:    f1b80f01    ....    CMP      r8,#1
        0x08001f94:    d103        ..      BNE      0x8001f9e ; __led_blink_handler + 70
        0x08001f96:    2003        .       MOVS     r0,#3
        0x08001f98:    fbb6f7f0    ....    UDIV     r7,r6,r0
        0x08001f9c:    e00c        ..      B        0x8001fb8 ; __led_blink_handler + 96
        0x08001f9e:    f1b80f00    ....    CMP      r8,#0
        0x08001fa2:    d101        ..      BNE      0x8001fa8 ; __led_blink_handler + 80
        0x08001fa4:    08b7        ..      LSRS     r7,r6,#2
        0x08001fa6:    e007        ..      B        0x8001fb8 ; __led_blink_handler + 96
        0x08001fa8:    2258        X"      MOVS     r2,#0x58
        0x08001faa:    a116        ..      ADR      r1,{pc}+0x5a ; 0x8002004
        0x08001fac:    a01f        ..      ADR      r0,{pc}+0x80 ; 0x800202c
        0x08001fae:    f7fffef9    ....    BL       __0printf$3 ; 0x8001da4
        0x08001fb2:    2004        .       MOVS     r0,#4
        0x08001fb4:    e8bd8ff8    ....    POP      {r3-r11,pc}
        0x08001fb8:    f04f0a00    O...    MOV      r10,#0
        0x08001fbc:    e01d        ..      B        0x8001ffa ; __led_blink_handler + 162
        0x08001fbe:    f04f0900    O...    MOV      r9,#0
        0x08001fc2:    e016        ..      B        0x8001ff2 ; __led_blink_handler + 154
        0x08001fc4:    45b9        .E      CMP      r9,r7
        0x08001fc6:    d207        ..      BCS      0x8001fd8 ; __led_blink_handler + 128
        0x08001fc8:    f1040108    ....    ADD      r1,r4,#8
        0x08001fcc:    f8511025    Q.%.    LDR      r1,[r1,r5,LSL #2]
        0x08001fd0:    6909        .i      LDR      r1,[r1,#0x10]
        0x08001fd2:    6808        .h      LDR      r0,[r1,#0]
        0x08001fd4:    4780        .G      BLX      r0
        0x08001fd6:    e006        ..      B        0x8001fe6 ; __led_blink_handler + 142
        0x08001fd8:    f1040108    ....    ADD      r1,r4,#8
        0x08001fdc:    f8511025    Q.%.    LDR      r1,[r1,r5,LSL #2]
        0x08001fe0:    6909        .i      LDR      r1,[r1,#0x10]
        0x08001fe2:    6848        Hh      LDR      r0,[r1,#4]
        0x08001fe4:    4780        .G      BLX      r0
        0x08001fe6:    6be0        .k      LDR      r0,[r4,#0x3c]
        0x08001fe8:    6801        .h      LDR      r1,[r0,#0]
        0x08001fea:    2001        .       MOVS     r0,#1
        0x08001fec:    4788        .G      BLX      r1
        0x08001fee:    f1090901    ....    ADD      r9,r9,#1
        0x08001ff2:    45b1        .E      CMP      r9,r6
        0x08001ff4:    d3e6        ..      BCC      0x8001fc4 ; __led_blink_handler + 108
        0x08001ff6:    f10a0a01    ....    ADD      r10,r10,#1
        0x08001ffa:    45da        .E      CMP      r10,r11
        0x08001ffc:    d3df        ..      BCC      0x8001fbe ; __led_blink_handler + 102
        0x08001ffe:    9800        ..      LDR      r0,[sp,#0]
        0x08002000:    e7d8        ..      B        0x8001fb4 ; __led_blink_handler + 92
    $d
        0x08002002:    0000        ..      DCW    0
        0x08002004:    425c2e2e    ..\B    DCD    1113337390
        0x08002008:    6c5c5053    SP\l    DCD    1817989203
        0x0800200c:    685c6465    ed\h    DCD    1750885477
        0x08002010:    6c646e61    andl    DCD    1818521185
        0x08002014:    625c7265    er\b    DCD    1650225765
        0x08002018:    6c5f7073    sp_l    DCD    1818194035
        0x0800201c:    685f6465    ed_h    DCD    1751082085
        0x08002020:    6c646e61    andl    DCD    1818521185
        0x08002024:    632e7265    er.c    DCD    1663988325
        0x08002028:    00000000    ....    DCD    0
        0x0800202c:    5f44454c    LED_    DCD    1598309708
        0x08002030:    4f525245    ERRO    DCD    1330795077
        0x08002034:    52415052    RPAR    DCD    1380012114
        0x08002038:    54454d41    AMET    DCD    1413827905
        0x0800203c:    69205245    ER i    DCD    1763725893
        0x08002040:    6966206e    n fi    DCD    1768300654
        0x08002044:    253a656c    le:%    DCD    624584044
        0x08002048:    6c202c73    s, l    DCD    1814047859
        0x0800204c:    3a656e69    ine:    DCD    979725929
        0x08002050:    000a6425    %d..    DCD    680997
    $t
    i.__scatterload_copy
    __scatterload_copy
        0x08002054:    e002        ..      B        0x800205c ; __scatterload_copy + 8
        0x08002056:    c808        ..      LDM      r0!,{r3}
        0x08002058:    1f12        ..      SUBS     r2,r2,#4
        0x0800205a:    c108        ..      STM      r1!,{r3}
        0x0800205c:    2a00        .*      CMP      r2,#0
        0x0800205e:    d1fa        ..      BNE      0x8002056 ; __scatterload_copy + 2
        0x08002060:    4770        pG      BX       lr
    i.__scatterload_null
    __scatterload_null
        0x08002062:    4770        pG      BX       lr
    i.__scatterload_zeroinit
    __scatterload_zeroinit
        0x08002064:    2000        .       MOVS     r0,#0
        0x08002066:    e001        ..      B        0x800206c ; __scatterload_zeroinit + 8
        0x08002068:    c101        ..      STM      r1!,{r0}
        0x0800206a:    1f12        ..      SUBS     r2,r2,#4
        0x0800206c:    2a00        .*      CMP      r2,#0
        0x0800206e:    d1fb        ..      BNE      0x8002068 ; __scatterload_zeroinit + 4
        0x08002070:    4770        pG      BX       lr
        0x08002072:    0000        ..      MOVS     r0,r0
    i._printf_core
    _printf_core
        0x08002074:    e92d4fff    -..O    PUSH     {r0-r11,lr}
        0x08002078:    b08b        ..      SUB      sp,sp,#0x2c
        0x0800207a:    469a        .F      MOV      r10,r3
        0x0800207c:    460f        .F      MOV      r7,r1
        0x0800207e:    4605        .F      MOV      r5,r0
        0x08002080:    2600        .&      MOVS     r6,#0
        0x08002082:    e006        ..      B        0x8002092 ; _printf_core + 30
        0x08002084:    2825        %(      CMP      r0,#0x25
        0x08002086:    d00b        ..      BEQ      0x80020a0 ; _printf_core + 44
        0x08002088:    4652        RF      MOV      r2,r10
        0x0800208a:    990d        ..      LDR      r1,[sp,#0x34]
        0x0800208c:    4790        .G      BLX      r2
        0x0800208e:    1c6d        m.      ADDS     r5,r5,#1
        0x08002090:    1c76        v.      ADDS     r6,r6,#1
        0x08002092:    7828        (x      LDRB     r0,[r5,#0]
        0x08002094:    2800        .(      CMP      r0,#0
        0x08002096:    d1f5        ..      BNE      0x8002084 ; _printf_core + 16
        0x08002098:    b00f        ..      ADD      sp,sp,#0x3c
        0x0800209a:    4630        0F      MOV      r0,r6
        0x0800209c:    e8bd8ff0    ....    POP      {r4-r11,pc}
        0x080020a0:    2400        .$      MOVS     r4,#0
        0x080020a2:    46a0        .F      MOV      r8,r4
        0x080020a4:    2201        ."      MOVS     r2,#1
        0x080020a6:    4960        `I      LDR      r1,[pc,#384] ; [0x8002228] = 0x12809
        0x080020a8:    e000        ..      B        0x80020ac ; _printf_core + 56
        0x080020aa:    4304        .C      ORRS     r4,r4,r0
        0x080020ac:    f8153f01    ...?    LDRB     r3,[r5,#1]!
        0x080020b0:    3b20         ;      SUBS     r3,r3,#0x20
        0x080020b2:    fa02f003    ....    LSL      r0,r2,r3
        0x080020b6:    4208        .B      TST      r0,r1
        0x080020b8:    d1f7        ..      BNE      0x80020aa ; _printf_core + 54
        0x080020ba:    7828        (x      LDRB     r0,[r5,#0]
        0x080020bc:    282e        .(      CMP      r0,#0x2e
        0x080020be:    d117        ..      BNE      0x80020f0 ; _printf_core + 124
        0x080020c0:    f8150f01    ....    LDRB     r0,[r5,#1]!
        0x080020c4:    f0440404    D...    ORR      r4,r4,#4
        0x080020c8:    282a        *(      CMP      r0,#0x2a
        0x080020ca:    d00e        ..      BEQ      0x80020ea ; _printf_core + 118
        0x080020cc:    f06f022f    o./.    MVN      r2,#0x2f
        0x080020d0:    7828        (x      LDRB     r0,[r5,#0]
        0x080020d2:    f1a00130    ..0.    SUB      r1,r0,#0x30
        0x080020d6:    2909        .)      CMP      r1,#9
        0x080020d8:    d80a        ..      BHI      0x80020f0 ; _printf_core + 124
        0x080020da:    eb080188    ....    ADD      r1,r8,r8,LSL #2
        0x080020de:    eb020141    ..A.    ADD      r1,r2,r1,LSL #1
        0x080020e2:    eb000801    ....    ADD      r8,r0,r1
        0x080020e6:    1c6d        m.      ADDS     r5,r5,#1
        0x080020e8:    e7f2        ..      B        0x80020d0 ; _printf_core + 92
        0x080020ea:    f8578b04    W...    LDR      r8,[r7],#4
        0x080020ee:    1c6d        m.      ADDS     r5,r5,#1
        0x080020f0:    7828        (x      LDRB     r0,[r5,#0]
        0x080020f2:    2869        i(      CMP      r0,#0x69
        0x080020f4:    d03e        >.      BEQ      0x8002174 ; _printf_core + 256
        0x080020f6:    dc06        ..      BGT      0x8002106 ; _printf_core + 146
        0x080020f8:    2800        .(      CMP      r0,#0
        0x080020fa:    d0cd        ..      BEQ      0x8002098 ; _printf_core + 36
        0x080020fc:    2863        c(      CMP      r0,#0x63
        0x080020fe:    d00b        ..      BEQ      0x8002118 ; _printf_core + 164
        0x08002100:    2864        d(      CMP      r0,#0x64
        0x08002102:    d104        ..      BNE      0x800210e ; _printf_core + 154
        0x08002104:    e036        6.      B        0x8002174 ; _printf_core + 256
        0x08002106:    2873        s(      CMP      r0,#0x73
        0x08002108:    d010        ..      BEQ      0x800212c ; _printf_core + 184
        0x0800210a:    2875        u(      CMP      r0,#0x75
        0x0800210c:    d04b        K.      BEQ      0x80021a6 ; _printf_core + 306
        0x0800210e:    4652        RF      MOV      r2,r10
        0x08002110:    990d        ..      LDR      r1,[sp,#0x34]
        0x08002112:    4790        .G      BLX      r2
        0x08002114:    1c76        v.      ADDS     r6,r6,#1
        0x08002116:    e085        ..      B        0x8002224 ; _printf_core + 432
        0x08002118:    f8170b04    ....    LDRB     r0,[r7],#4
        0x0800211c:    f88d0000    ....    STRB     r0,[sp,#0]
        0x08002120:    2000        .       MOVS     r0,#0
        0x08002122:    f88d0001    ....    STRB     r0,[sp,#1]
        0x08002126:    46e9        .F      MOV      r9,sp
        0x08002128:    2001        .       MOVS     r0,#1
        0x0800212a:    e003        ..      B        0x8002134 ; _printf_core + 192
        0x0800212c:    f8579b04    W...    LDR      r9,[r7],#4
        0x08002130:    f04f30ff    O..0    MOV      r0,#0xffffffff
        0x08002134:    0761        a.      LSLS     r1,r4,#29
        0x08002136:    f04f0400    O...    MOV      r4,#0
        0x0800213a:    d401        ..      BMI      0x8002140 ; _printf_core + 204
        0x0800213c:    e00a        ..      B        0x8002154 ; _printf_core + 224
        0x0800213e:    1c64        d.      ADDS     r4,r4,#1
        0x08002140:    4544        DE      CMP      r4,r8
        0x08002142:    da0d        ..      BGE      0x8002160 ; _printf_core + 236
        0x08002144:    4284        .B      CMP      r4,r0
        0x08002146:    dbfa        ..      BLT      0x800213e ; _printf_core + 202
        0x08002148:    f8191004    ....    LDRB     r1,[r9,r4]
        0x0800214c:    2900        .)      CMP      r1,#0
        0x0800214e:    d1f6        ..      BNE      0x800213e ; _printf_core + 202
        0x08002150:    e006        ..      B        0x8002160 ; _printf_core + 236
        0x08002152:    1c64        d.      ADDS     r4,r4,#1
        0x08002154:    4284        .B      CMP      r4,r0
        0x08002156:    dbfc        ..      BLT      0x8002152 ; _printf_core + 222
        0x08002158:    f8191004    ....    LDRB     r1,[r9,r4]
        0x0800215c:    2900        .)      CMP      r1,#0
        0x0800215e:    d1f8        ..      BNE      0x8002152 ; _printf_core + 222
        0x08002160:    4426        &D      ADD      r6,r6,r4
        0x08002162:    e004        ..      B        0x800216e ; _printf_core + 250
        0x08002164:    f8190b01    ....    LDRB     r0,[r9],#1
        0x08002168:    4652        RF      MOV      r2,r10
        0x0800216a:    990d        ..      LDR      r1,[sp,#0x34]
        0x0800216c:    4790        .G      BLX      r2
        0x0800216e:    1e64        d.      SUBS     r4,r4,#1
        0x08002170:    d2f8        ..      BCS      0x8002164 ; _printf_core + 240
        0x08002172:    e057        W.      B        0x8002224 ; _printf_core + 432
        0x08002174:    cf01        ..      LDM      r7!,{r0}
        0x08002176:    f04f0b0a    O...    MOV      r11,#0xa
        0x0800217a:    2800        .(      CMP      r0,#0
        0x0800217c:    da02        ..      BGE      0x8002184 ; _printf_core + 272
        0x0800217e:    4240        @B      RSBS     r0,r0,#0
        0x08002180:    212d        -!      MOVS     r1,#0x2d
        0x08002182:    e002        ..      B        0x800218a ; _printf_core + 278
        0x08002184:    0521        !.      LSLS     r1,r4,#20
        0x08002186:    d504        ..      BPL      0x8002192 ; _printf_core + 286
        0x08002188:    212b        +!      MOVS     r1,#0x2b
        0x0800218a:    f88d1024    ..$.    STRB     r1,[sp,#0x24]
        0x0800218e:    2101        .!      MOVS     r1,#1
        0x08002190:    e003        ..      B        0x800219a ; _printf_core + 294
        0x08002192:    07e1        ..      LSLS     r1,r4,#31
        0x08002194:    d005        ..      BEQ      0x80021a2 ; _printf_core + 302
        0x08002196:    2120         !      MOVS     r1,#0x20
        0x08002198:    e7f7        ..      B        0x800218a ; _printf_core + 278
        0x0800219a:    f10d0920    .. .    ADD      r9,sp,#0x20
        0x0800219e:    9108        ..      STR      r1,[sp,#0x20]
        0x080021a0:    e00c        ..      B        0x80021bc ; _printf_core + 328
        0x080021a2:    2100        .!      MOVS     r1,#0
        0x080021a4:    e7f9        ..      B        0x800219a ; _printf_core + 294
        0x080021a6:    cf01        ..      LDM      r7!,{r0}
        0x080021a8:    f04f0b0a    O...    MOV      r11,#0xa
        0x080021ac:    e7f9        ..      B        0x80021a2 ; _printf_core + 302
        0x080021ae:    4659        YF      MOV      r1,r11
        0x080021b0:    f7fef8c5    ....    BL       __aeabi_uidiv ; 0x800033e
        0x080021b4:    f1010230    ..0.    ADD      r2,r1,#0x30
        0x080021b8:    f8092d01    ...-    STRB     r2,[r9,#-1]!
        0x080021bc:    2800        .(      CMP      r0,#0
        0x080021be:    d1f6        ..      BNE      0x80021ae ; _printf_core + 314
        0x080021c0:    ebad0009    ....    SUB      r0,sp,r9
        0x080021c4:    f1000b20    .. .    ADD      r11,r0,#0x20
        0x080021c8:    0760        `.      LSLS     r0,r4,#29
        0x080021ca:    d401        ..      BMI      0x80021d0 ; _printf_core + 348
        0x080021cc:    f04f0801    O...    MOV      r8,#1
        0x080021d0:    45d8        .E      CMP      r8,r11
        0x080021d2:    dd02        ..      BLE      0x80021da ; _printf_core + 358
        0x080021d4:    eba8000b    ....    SUB      r0,r8,r11
        0x080021d8:    e000        ..      B        0x80021dc ; _printf_core + 360
        0x080021da:    2000        .       MOVS     r0,#0
        0x080021dc:    4680        .F      MOV      r8,r0
        0x080021de:    2400        .$      MOVS     r4,#0
        0x080021e0:    e006        ..      B        0x80021f0 ; _printf_core + 380
        0x080021e2:    a809        ..      ADD      r0,sp,#0x24
        0x080021e4:    4652        RF      MOV      r2,r10
        0x080021e6:    5d00        .]      LDRB     r0,[r0,r4]
        0x080021e8:    990d        ..      LDR      r1,[sp,#0x34]
        0x080021ea:    4790        .G      BLX      r2
        0x080021ec:    1c64        d.      ADDS     r4,r4,#1
        0x080021ee:    1c76        v.      ADDS     r6,r6,#1
        0x080021f0:    9808        ..      LDR      r0,[sp,#0x20]
        0x080021f2:    4284        .B      CMP      r4,r0
        0x080021f4:    dbf5        ..      BLT      0x80021e2 ; _printf_core + 366
        0x080021f6:    e004        ..      B        0x8002202 ; _printf_core + 398
        0x080021f8:    2030        0       MOVS     r0,#0x30
        0x080021fa:    4652        RF      MOV      r2,r10
        0x080021fc:    990d        ..      LDR      r1,[sp,#0x34]
        0x080021fe:    4790        .G      BLX      r2
        0x08002200:    1c76        v.      ADDS     r6,r6,#1
        0x08002202:    f1b80100    ....    SUBS     r1,r8,#0
        0x08002206:    f1a80801    ....    SUB      r8,r8,#1
        0x0800220a:    dcf5        ..      BGT      0x80021f8 ; _printf_core + 388
        0x0800220c:    e005        ..      B        0x800221a ; _printf_core + 422
        0x0800220e:    f8190b01    ....    LDRB     r0,[r9],#1
        0x08002212:    4652        RF      MOV      r2,r10
        0x08002214:    990d        ..      LDR      r1,[sp,#0x34]
        0x08002216:    4790        .G      BLX      r2
        0x08002218:    1c76        v.      ADDS     r6,r6,#1
        0x0800221a:    f1bb0100    ....    SUBS     r1,r11,#0
        0x0800221e:    f1ab0b01    ....    SUB      r11,r11,#1
        0x08002222:    dcf4        ..      BGT      0x800220e ; _printf_core + 410
        0x08002224:    1c6d        m.      ADDS     r5,r5,#1
        0x08002226:    e734        4.      B        0x8002092 ; _printf_core + 30
    $d
        0x08002228:    00012809    .(..    DCD    75785
    $t
    i.fputc
    fputc
        0x0800222c:    b513        ..      PUSH     {r0,r1,r4,lr}
        0x0800222e:    460c        .F      MOV      r4,r1
        0x08002230:    f64f73ff    O..s    MOV      r3,#0xffff
        0x08002234:    2201        ."      MOVS     r2,#1
        0x08002236:    4669        iF      MOV      r1,sp
        0x08002238:    4802        .H      LDR      r0,[pc,#8] ; [0x8002244] = 0x200000e8
        0x0800223a:    f7fff9ab    ....    BL       HAL_UART_Transmit ; 0x8001594
        0x0800223e:    9800        ..      LDR      r0,[sp,#0]
        0x08002240:    bd1c        ..      POP      {r2-r4,pc}
    $d
        0x08002242:    0000        ..      DCW    0
        0x08002244:    200000e8    ...     DCD    536871144
    $t
    i.get_time_ms_handler_1
    get_time_ms_handler_1
        0x08002248:    b510        ..      PUSH     {r4,lr}
        0x0800224a:    4604        .F      MOV      r4,r0
        0x0800224c:    b90c        ..      CBNZ     r4,0x8002252 ; get_time_ms_handler_1 + 10
        0x0800224e:    2004        .       MOVS     r0,#4
        0x08002250:    bd10        ..      POP      {r4,pc}
        0x08002252:    f7fef9ab    ....    BL       HAL_GetTick ; 0x80005ac
        0x08002256:    6020         `      STR      r0,[r4,#0]
        0x08002258:    2000        .       MOVS     r0,#0
        0x0800225a:    e7f9        ..      B        0x8002250 ; get_time_ms_handler_1 + 8
    i.handler_led_control
    handler_led_control
        0x0800225c:    e92d43fe    -..C    PUSH     {r1-r9,lr}
        0x08002260:    4604        .F      MOV      r4,r0
        0x08002262:    460d        .F      MOV      r5,r1
        0x08002264:    4616        .F      MOV      r6,r2
        0x08002266:    461f        .F      MOV      r7,r3
        0x08002268:    f8dd9028    ..(.    LDR      r9,[sp,#0x28]
        0x0800226c:    2000        .       MOVS     r0,#0
        0x0800226e:    9000        ..      STR      r0,[sp,#0]
        0x08002270:    9001        ..      STR      r0,[sp,#4]
        0x08002272:    9002        ..      STR      r0,[sp,#8]
        0x08002274:    4680        .F      MOV      r8,r0
        0x08002276:    b15c        \.      CBZ      r4,0x8002290 ; handler_led_control + 52
        0x08002278:    f2427010    B..p    MOV      r0,#0x2710
        0x0800227c:    4285        .B      CMP      r5,r0
        0x0800227e:    d807        ..      BHI      0x8002290 ; handler_led_control + 52
        0x08002280:    f5b67f7a    ..z.    CMP      r6,#0x3e8
        0x08002284:    d804        ..      BHI      0x8002290 ; handler_led_control + 52
        0x08002286:    2f03        ./      CMP      r7,#3
        0x08002288:    da02        ..      BGE      0x8002290 ; handler_led_control + 52
        0x0800228a:    f1b90f0a    ....    CMP      r9,#0xa
        0x0800228e:    dd08        ..      BLE      0x80022a2 ; handler_led_control + 70
        0x08002290:    f2401203    @...    MOV      r2,#0x103
        0x08002294:    a114        ..      ADR      r1,{pc}+0x54 ; 0x80022e8
        0x08002296:    a01e        ..      ADR      r0,{pc}+0x7a ; 0x8002310
        0x08002298:    f7fffd84    ....    BL       __0printf$3 ; 0x8001da4
        0x0800229c:    2004        .       MOVS     r0,#4
        0x0800229e:    e8bd83fe    ....    POP      {r1-r9,pc}
        0x080022a2:    7820         x      LDRB     r0,[r4,#0]
        0x080022a4:    b938        8.      CBNZ     r0,0x80022b6 ; handler_led_control + 90
        0x080022a6:    f44f7286    O..r    MOV      r2,#0x10c
        0x080022aa:    a10f        ..      ADR      r1,{pc}+0x3e ; 0x80022e8
        0x080022ac:    a023        #.      ADR      r0,{pc}+0x90 ; 0x800233c
        0x080022ae:    f7fffd79    ..y.    BL       __0printf$3 ; 0x8001da4
        0x080022b2:    2003        .       MOVS     r0,#3
        0x080022b4:    e7f3        ..      B        0x800229e ; handler_led_control + 66
        0x080022b6:    9500        ..      STR      r5,[sp,#0]
        0x080022b8:    9601        ..      STR      r6,[sp,#4]
        0x080022ba:    f88d7008    ...p    STRB     r7,[sp,#8]
        0x080022be:    6c21        !l      LDR      r1,[r4,#0x40]
        0x080022c0:    6b20         k      LDR      r0,[r4,#0x30]
        0x080022c2:    2200        ."      MOVS     r2,#0
        0x080022c4:    684b        Kh      LDR      r3,[r1,#4]
        0x080022c6:    4669        iF      MOV      r1,sp
        0x080022c8:    4798        .G      BLX      r3
        0x080022ca:    4680        .F      MOV      r8,r0
        0x080022cc:    f1b80f00    ....    CMP      r8,#0
        0x080022d0:    d007        ..      BEQ      0x80022e2 ; handler_led_control + 134
        0x080022d2:    f240121b    @...    MOV      r2,#0x11b
        0x080022d6:    a104        ..      ADR      r1,{pc}+0x12 ; 0x80022e8
        0x080022d8:    a023        #.      ADR      r0,{pc}+0x90 ; 0x8002368
        0x080022da:    f7fffd63    ..c.    BL       __0printf$3 ; 0x8001da4
        0x080022de:    2005        .       MOVS     r0,#5
        0x080022e0:    e7dd        ..      B        0x800229e ; handler_led_control + 66
        0x080022e2:    4640        @F      MOV      r0,r8
        0x080022e4:    e7db        ..      B        0x800229e ; handler_led_control + 66
    $d
        0x080022e6:    0000        ..      DCW    0
        0x080022e8:    425c2e2e    ..\B    DCD    1113337390
        0x080022ec:    6c5c5053    SP\l    DCD    1817989203
        0x080022f0:    685c6465    ed\h    DCD    1750885477
        0x080022f4:    6c646e61    andl    DCD    1818521185
        0x080022f8:    625c7265    er\b    DCD    1650225765
        0x080022fc:    6c5f7073    sp_l    DCD    1818194035
        0x08002300:    685f6465    ed_h    DCD    1751082085
        0x08002304:    6c646e61    andl    DCD    1818521185
        0x08002308:    632e7265    er.c    DCD    1663988325
        0x0800230c:    00000000    ....    DCD    0
        0x08002310:    5f44454c    LED_    DCD    1598309708
        0x08002314:    444e4148    HAND    DCD    1145979208
        0x08002318:    5f52454c    LER_    DCD    1599227212
        0x0800231c:    5f525245    ERR_    DCD    1599230533
        0x08002320:    41524150    PARA    DCD    1095909712
        0x08002324:    6e69204d    M in    DCD    1852383309
        0x08002328:    6c696620     fil    DCD    1818846752
        0x0800232c:    73253a65    e:%s    DCD    1931819621
        0x08002330:    696c202c    , li    DCD    1768693804
        0x08002334:    253a656e    ne:%    DCD    624584046
        0x08002338:    00000a64    d...    DCD    2660
        0x0800233c:    5f44454c    LED_    DCD    1598309708
        0x08002340:    444e4148    HAND    DCD    1145979208
        0x08002344:    5f52454c    LER_    DCD    1599227212
        0x08002348:    5f525245    ERR_    DCD    1599230533
        0x0800234c:    52554f53    SOUR    DCD    1381322579
        0x08002350:    69204543    CE i    DCD    1763722563
        0x08002354:    6966206e    n fi    DCD    1768300654
        0x08002358:    253a656c    le:%    DCD    624584044
        0x0800235c:    6c202c73    s, l    DCD    1814047859
        0x08002360:    3a656e69    ine:    DCD    979725929
        0x08002364:    000a6425    %d..    DCD    680997
        0x08002368:    5f44454c    LED_    DCD    1598309708
        0x0800236c:    444e4148    HAND    DCD    1145979208
        0x08002370:    5f52454c    LER_    DCD    1599227212
        0x08002374:    5f525245    ERR_    DCD    1599230533
        0x08002378:    454d4f4e    NOME    DCD    1162694478
        0x0800237c:    59524f4d    MORY    DCD    1498566477
        0x08002380:    206e6920     in     DCD    544106784
        0x08002384:    656c6966    file    DCD    1701603686
        0x08002388:    2c73253a    :%s,    DCD    745743674
        0x0800238c:    6e696c20     lin    DCD    1852402720
        0x08002390:    64253a65    e:%d    DCD    1680161381
        0x08002394:    0000000a    ....    DCD    10
    $t
    i.handler_led_register
    handler_led_register
        0x08002398:    e92d41f0    -..A    PUSH     {r4-r8,lr}
        0x0800239c:    4604        .F      MOV      r4,r0
        0x0800239e:    460d        .F      MOV      r5,r1
        0x080023a0:    4616        .F      MOV      r6,r2
        0x080023a2:    2700        .'      MOVS     r7,#0
        0x080023a4:    b10c        ..      CBZ      r4,0x80023aa ; handler_led_register + 18
        0x080023a6:    b105        ..      CBZ      r5,0x80023aa ; handler_led_register + 18
        0x080023a8:    b946        F.      CBNZ     r6,0x80023bc ; handler_led_register + 36
        0x080023aa:    f2401237    @.7.    MOV      r2,#0x137
        0x080023ae:    a117        ..      ADR      r1,{pc}+0x5e ; 0x800240c
        0x080023b0:    a020         .      ADR      r0,{pc}+0x84 ; 0x8002434
        0x080023b2:    f7fffcf7    ....    BL       __0printf$3 ; 0x8001da4
        0x080023b6:    2004        .       MOVS     r0,#4
        0x080023b8:    e8bd81f0    ....    POP      {r4-r8,pc}
        0x080023bc:    7820         x      LDRB     r0,[r4,#0]
        0x080023be:    b938        8.      CBNZ     r0,0x80023d0 ; handler_led_register + 56
        0x080023c0:    f44f72a0    O..r    MOV      r2,#0x140
        0x080023c4:    a111        ..      ADR      r1,{pc}+0x48 ; 0x800240c
        0x080023c6:    a026        &.      ADR      r0,{pc}+0x9a ; 0x8002460
        0x080023c8:    f7fffcec    ....    BL       __0printf$3 ; 0x8001da4
        0x080023cc:    2003        .       MOVS     r0,#3
        0x080023ce:    e7f3        ..      B        0x80023b8 ; handler_led_register + 32
        0x080023d0:    6c61        al      LDR      r1,[r4,#0x44]
        0x080023d2:    6808        .h      LDR      r0,[r1,#0]
        0x080023d4:    4780        .G      BLX      r0
        0x080023d6:    6860        `h      LDR      r0,[r4,#4]
        0x080023d8:    280a        .(      CMP      r0,#0xa
        0x080023da:    d307        ..      BCC      0x80023ec ; handler_led_register + 84
        0x080023dc:    f44f72a6    O..r    MOV      r2,#0x14c
        0x080023e0:    a10a        ..      ADR      r1,{pc}+0x2c ; 0x800240c
        0x080023e2:    a02a        *.      ADR      r0,{pc}+0xaa ; 0x800248c
        0x080023e4:    f7fffcde    ....    BL       __0printf$3 ; 0x8001da4
        0x080023e8:    2705        .'      MOVS     r7,#5
        0x080023ea:    e009        ..      B        0x8002400 ; handler_led_register + 104
        0x080023ec:    f1040008    ....    ADD      r0,r4,#8
        0x080023f0:    6861        ah      LDR      r1,[r4,#4]
        0x080023f2:    f8405021    @.!P    STR      r5,[r0,r1,LSL #2]
        0x080023f6:    7920         y      LDRB     r0,[r4,#4]
        0x080023f8:    7030        0p      STRB     r0,[r6,#0]
        0x080023fa:    6860        `h      LDR      r0,[r4,#4]
        0x080023fc:    1c40        @.      ADDS     r0,r0,#1
        0x080023fe:    6060        ``      STR      r0,[r4,#4]
        0x08002400:    6c61        al      LDR      r1,[r4,#0x44]
        0x08002402:    6848        Hh      LDR      r0,[r1,#4]
        0x08002404:    4780        .G      BLX      r0
        0x08002406:    4638        8F      MOV      r0,r7
        0x08002408:    e7d6        ..      B        0x80023b8 ; handler_led_register + 32
    $d
        0x0800240a:    0000        ..      DCW    0
        0x0800240c:    425c2e2e    ..\B    DCD    1113337390
        0x08002410:    6c5c5053    SP\l    DCD    1817989203
        0x08002414:    685c6465    ed\h    DCD    1750885477
        0x08002418:    6c646e61    andl    DCD    1818521185
        0x0800241c:    625c7265    er\b    DCD    1650225765
        0x08002420:    6c5f7073    sp_l    DCD    1818194035
        0x08002424:    685f6465    ed_h    DCD    1751082085
        0x08002428:    6c646e61    andl    DCD    1818521185
        0x0800242c:    632e7265    er.c    DCD    1663988325
        0x08002430:    00000000    ....    DCD    0
        0x08002434:    5f44454c    LED_    DCD    1598309708
        0x08002438:    444e4148    HAND    DCD    1145979208
        0x0800243c:    5f52454c    LER_    DCD    1599227212
        0x08002440:    5f525245    ERR_    DCD    1599230533
        0x08002444:    41524150    PARA    DCD    1095909712
        0x08002448:    6e69204d    M in    DCD    1852383309
        0x0800244c:    6c696620     fil    DCD    1818846752
        0x08002450:    73253a65    e:%s    DCD    1931819621
        0x08002454:    696c202c    , li    DCD    1768693804
        0x08002458:    253a656e    ne:%    DCD    624584046
        0x0800245c:    00000a64    d...    DCD    2660
        0x08002460:    5f44454c    LED_    DCD    1598309708
        0x08002464:    444e4148    HAND    DCD    1145979208
        0x08002468:    5f52454c    LER_    DCD    1599227212
        0x0800246c:    5f525245    ERR_    DCD    1599230533
        0x08002470:    52554f53    SOUR    DCD    1381322579
        0x08002474:    69204543    CE i    DCD    1763722563
        0x08002478:    6966206e    n fi    DCD    1768300654
        0x0800247c:    253a656c    le:%    DCD    624584044
        0x08002480:    6c202c73    s, l    DCD    1814047859
        0x08002484:    3a656e69    ine:    DCD    979725929
        0x08002488:    000a6425    %d..    DCD    680997
        0x0800248c:    5f44454c    LED_    DCD    1598309708
        0x08002490:    444e4148    HAND    DCD    1145979208
        0x08002494:    5f52454c    LER_    DCD    1599227212
        0x08002498:    5f525245    ERR_    DCD    1599230533
        0x0800249c:    454d4f4e    NOME    DCD    1162694478
        0x080024a0:    59524f4d    MORY    DCD    1498566477
        0x080024a4:    206e6920     in     DCD    544106784
        0x080024a8:    656c6966    file    DCD    1701603686
        0x080024ac:    2c73253a    :%s,    DCD    745743674
        0x080024b0:    6e696c20     lin    DCD    1852402720
        0x080024b4:    64253a65    e:%d    DCD    1680161381
        0x080024b8:    0000000a    ....    DCD    10
    $t
    i.handler_thread
    handler_thread
        0x080024bc:    b5fe        ..      PUSH     {r1-r7,lr}
        0x080024be:    4605        .F      MOV      r5,r0
        0x080024c0:    2600        .&      MOVS     r6,#0
        0x080024c2:    b935        5.      CBNZ     r5,0x80024d2 ; handler_thread + 22
        0x080024c4:    22d7        ."      MOVS     r2,#0xd7
        0x080024c6:    a10d        ..      ADR      r1,{pc}+0x36 ; 0x80024fc
        0x080024c8:    a016        ..      ADR      r0,{pc}+0x5c ; 0x8002524
        0x080024ca:    f7fffc6b    ..k.    BL       __0printf$3 ; 0x8001da4
        0x080024ce:    2004        .       MOVS     r0,#4
        0x080024d0:    bdfe        ..      POP      {r1-r7,pc}
        0x080024d2:    462c        ,F      MOV      r4,r5
        0x080024d4:    bf00        ..      NOP      
        0x080024d6:    6c21        !l      LDR      r1,[r4,#0x40]
        0x080024d8:    6b20         k      LDR      r0,[r4,#0x30]
        0x080024da:    2200        ."      MOVS     r2,#0
        0x080024dc:    688b        .h      LDR      r3,[r1,#8]
        0x080024de:    4669        iF      MOV      r1,sp
        0x080024e0:    4798        .G      BLX      r3
        0x080024e2:    4606        .F      MOV      r6,r0
        0x080024e4:    b926        &.      CBNZ     r6,0x80024f0 ; handler_thread + 52
        0x080024e6:    4620         F      MOV      r0,r4
        0x080024e8:    e89d000e    ....    LDM      sp,{r1-r3}
        0x080024ec:    f7fffc92    ....    BL       __event_process ; 0x8001e14
        0x080024f0:    6be0        .k      LDR      r0,[r4,#0x3c]
        0x080024f2:    6801        .h      LDR      r1,[r0,#0]
        0x080024f4:    2064        d       MOVS     r0,#0x64
        0x080024f6:    4788        .G      BLX      r1
        0x080024f8:    e7ed        ..      B        0x80024d6 ; handler_thread + 26
    $d
        0x080024fa:    0000        ..      DCW    0
        0x080024fc:    425c2e2e    ..\B    DCD    1113337390
        0x08002500:    6c5c5053    SP\l    DCD    1817989203
        0x08002504:    685c6465    ed\h    DCD    1750885477
        0x08002508:    6c646e61    andl    DCD    1818521185
        0x0800250c:    625c7265    er\b    DCD    1650225765
        0x08002510:    6c5f7073    sp_l    DCD    1818194035
        0x08002514:    685f6465    ed_h    DCD    1751082085
        0x08002518:    6c646e61    andl    DCD    1818521185
        0x0800251c:    632e7265    er.c    DCD    1663988325
        0x08002520:    00000000    ....    DCD    0
        0x08002524:    5f44454c    LED_    DCD    1598309708
        0x08002528:    444e4148    HAND    DCD    1145979208
        0x0800252c:    5f52454c    LER_    DCD    1599227212
        0x08002530:    5f525245    ERR_    DCD    1599230533
        0x08002534:    41524150    PARA    DCD    1095909712
        0x08002538:    6e69204d    M in    DCD    1852383309
        0x0800253c:    6c696620     fil    DCD    1818846752
        0x08002540:    73253a65    e:%s    DCD    1931819621
        0x08002544:    696c202c    , li    DCD    1768693804
        0x08002548:    253a656e    ne:%    DCD    624584046
        0x0800254c:    00000a64    d...    DCD    2660
    $t
    i.led_driver_init
    led_driver_init
        0x08002550:    b570        p.      PUSH     {r4-r6,lr}
        0x08002552:    4604        .F      MOV      r4,r0
        0x08002554:    2500        .%      MOVS     r5,#0
        0x08002556:    b934        4.      CBNZ     r4,0x8002566 ; led_driver_init + 22
        0x08002558:    2236        6"      MOVS     r2,#0x36
        0x0800255a:    a105        ..      ADR      r1,{pc}+0x16 ; 0x8002570
        0x0800255c:    a00d        ..      ADR      r0,{pc}+0x38 ; 0x8002594
        0x0800255e:    f7fffc21    ..!.    BL       __0printf$3 ; 0x8001da4
        0x08002562:    2004        .       MOVS     r0,#4
        0x08002564:    bd70        p.      POP      {r4-r6,pc}
        0x08002566:    6921        !i      LDR      r1,[r4,#0x10]
        0x08002568:    6848        Hh      LDR      r0,[r1,#4]
        0x0800256a:    4780        .G      BLX      r0
        0x0800256c:    4628        (F      MOV      r0,r5
        0x0800256e:    e7f9        ..      B        0x8002564 ; led_driver_init + 20
    $d
        0x08002570:    425c2e2e    ..\B    DCD    1113337390
        0x08002574:    6c5c5053    SP\l    DCD    1817989203
        0x08002578:    645c6465    ed\d    DCD    1683776613
        0x0800257c:    65766972    rive    DCD    1702259058
        0x08002580:    73625c72    r\bs    DCD    1935826034
        0x08002584:    656c5f70    p_le    DCD    1701601136
        0x08002588:    72645f64    d_dr    DCD    1919180644
        0x0800258c:    72657669    iver    DCD    1919252073
        0x08002590:    0000632e    .c..    DCD    25390
        0x08002594:    5f44454c    LED_    DCD    1598309708
        0x08002598:    4f525245    ERRO    DCD    1330795077
        0x0800259c:    52415052    RPAR    DCD    1380012114
        0x080025a0:    54454d41    AMET    DCD    1413827905
        0x080025a4:    69205245    ER i    DCD    1763725893
        0x080025a8:    6966206e    n fi    DCD    1768300654
        0x080025ac:    253a656c    le:%    DCD    624584044
        0x080025b0:    6c202c73    s, l    DCD    1814047859
        0x080025b4:    3a656e69    ine:    DCD    979725929
        0x080025b8:    000a6425    %d..    DCD    680997
    $t
    i.led_driver_inst
    led_driver_inst
        0x080025bc:    b570        p.      PUSH     {r4-r6,lr}
        0x080025be:    4604        .F      MOV      r4,r0
        0x080025c0:    460d        .F      MOV      r5,r1
        0x080025c2:    2600        .&      MOVS     r6,#0
        0x080025c4:    b104        ..      CBZ      r4,0x80025c8 ; led_driver_inst + 12
        0x080025c6:    b935        5.      CBNZ     r5,0x80025d6 ; led_driver_inst + 26
        0x080025c8:    2252        R"      MOVS     r2,#0x52
        0x080025ca:    a114        ..      ADR      r1,{pc}+0x52 ; 0x800261c
        0x080025cc:    a01c        ..      ADR      r0,{pc}+0x74 ; 0x8002640
        0x080025ce:    f7fffbe9    ....    BL       __0printf$3 ; 0x8001da4
        0x080025d2:    2004        .       MOVS     r0,#4
        0x080025d4:    bd70        p.      POP      {r4-r6,pc}
        0x080025d6:    7820         x      LDRB     r0,[r4,#0]
        0x080025d8:    2801        .(      CMP      r0,#1
        0x080025da:    d106        ..      BNE      0x80025ea ; led_driver_inst + 46
        0x080025dc:    225c        \"      MOVS     r2,#0x5c
        0x080025de:    a10f        ..      ADR      r1,{pc}+0x3e ; 0x800261c
        0x080025e0:    a021        !.      ADR      r0,{pc}+0x88 ; 0x8002668
        0x080025e2:    f7fffbdf    ....    BL       __0printf$3 ; 0x8001da4
        0x080025e6:    2003        .       MOVS     r0,#3
        0x080025e8:    e7f4        ..      B        0x80025d4 ; led_driver_inst + 24
        0x080025ea:    6125        %a      STR      r5,[r4,#0x10]
        0x080025ec:    2000        .       MOVS     r0,#0
        0x080025ee:    60a0        .`      STR      r0,[r4,#8]
        0x080025f0:    6060        ``      STR      r0,[r4,#4]
        0x080025f2:    2002        .       MOVS     r0,#2
        0x080025f4:    7320         s      STRB     r0,[r4,#0xc]
        0x080025f6:    4620         F      MOV      r0,r4
        0x080025f8:    f7ffffaa    ....    BL       led_driver_init ; 0x8002550
        0x080025fc:    4606        .F      MOV      r6,r0
        0x080025fe:    b146        F.      CBZ      r6,0x8002612 ; led_driver_inst + 86
        0x08002600:    226d        m"      MOVS     r2,#0x6d
        0x08002602:    a106        ..      ADR      r1,{pc}+0x1a ; 0x800261c
        0x08002604:    a023        #.      ADR      r0,{pc}+0x90 ; 0x8002694
        0x08002606:    f7fffbcd    ....    BL       __0printf$3 ; 0x8001da4
        0x0800260a:    2000        .       MOVS     r0,#0
        0x0800260c:    6120         a      STR      r0,[r4,#0x10]
        0x0800260e:    4630        0F      MOV      r0,r6
        0x08002610:    e7e0        ..      B        0x80025d4 ; led_driver_inst + 24
        0x08002612:    2001        .       MOVS     r0,#1
        0x08002614:    7020         p      STRB     r0,[r4,#0]
        0x08002616:    4630        0F      MOV      r0,r6
        0x08002618:    e7dc        ..      B        0x80025d4 ; led_driver_inst + 24
    $d
        0x0800261a:    0000        ..      DCW    0
        0x0800261c:    425c2e2e    ..\B    DCD    1113337390
        0x08002620:    6c5c5053    SP\l    DCD    1817989203
        0x08002624:    645c6465    ed\d    DCD    1683776613
        0x08002628:    65766972    rive    DCD    1702259058
        0x0800262c:    73625c72    r\bs    DCD    1935826034
        0x08002630:    656c5f70    p_le    DCD    1701601136
        0x08002634:    72645f64    d_dr    DCD    1919180644
        0x08002638:    72657669    iver    DCD    1919252073
        0x0800263c:    0000632e    .c..    DCD    25390
        0x08002640:    5f44454c    LED_    DCD    1598309708
        0x08002644:    4f525245    ERRO    DCD    1330795077
        0x08002648:    52415052    RPAR    DCD    1380012114
        0x0800264c:    54454d41    AMET    DCD    1413827905
        0x08002650:    69205245    ER i    DCD    1763725893
        0x08002654:    6966206e    n fi    DCD    1768300654
        0x08002658:    253a656c    le:%    DCD    624584044
        0x0800265c:    6c202c73    s, l    DCD    1814047859
        0x08002660:    3a656e69    ine:    DCD    979725929
        0x08002664:    000a6425    %d..    DCD    680997
        0x08002668:    5f44454c    LED_    DCD    1598309708
        0x0800266c:    4f525245    ERRO    DCD    1330795077
        0x08002670:    45525f52    R_RE    DCD    1163026258
        0x08002674:    52554f53    SOUR    DCD    1381322579
        0x08002678:    20534543    CES     DCD    542328131
        0x0800267c:    66206e69    in f    DCD    1713401449
        0x08002680:    3a656c69    ile:    DCD    979725417
        0x08002684:    202c7325    %s,     DCD    539783973
        0x08002688:    656e696c    line    DCD    1701734764
        0x0800268c:    0a64253a    :%d.    DCD    174335290
        0x08002690:    00000000    ....    DCD    0
        0x08002694:    2044454c    LED     DCD    541345100
        0x08002698:    74696e69    init    DCD    1953066601
        0x0800269c:    69616620     fai    DCD    1767990816
        0x080026a0:    3a64656c    led:    DCD    979658092
        0x080026a4:    202c7325    %s,     DCD    539783973
        0x080026a8:    656e696c    line    DCD    1701734764
        0x080026ac:    0a64253a    :%d.    DCD    174335290
        0x080026b0:    00000000    ....    DCD    0
    $t
    i.led_handler_inst
    led_handler_inst
        0x080026b4:    e92d47fc    -..G    PUSH     {r2-r10,lr}
        0x080026b8:    4604        .F      MOV      r4,r0
        0x080026ba:    460e        .F      MOV      r6,r1
        0x080026bc:    4617        .F      MOV      r7,r2
        0x080026be:    4698        .F      MOV      r8,r3
        0x080026c0:    e9dd9a0a    ....    LDRD     r9,r10,[sp,#0x28]
        0x080026c4:    2500        .%      MOVS     r5,#0
        0x080026c6:    b154        T.      CBZ      r4,0x80026de ; led_handler_inst + 42
        0x080026c8:    b14e        N.      CBZ      r6,0x80026de ; led_handler_inst + 42
        0x080026ca:    b147        G.      CBZ      r7,0x80026de ; led_handler_inst + 42
        0x080026cc:    f1b80f00    ....    CMP      r8,#0
        0x080026d0:    d005        ..      BEQ      0x80026de ; led_handler_inst + 42
        0x080026d2:    f1b90f00    ....    CMP      r9,#0
        0x080026d6:    d002        ..      BEQ      0x80026de ; led_handler_inst + 42
        0x080026d8:    f1ba0f00    ....    CMP      r10,#0
        0x080026dc:    d108        ..      BNE      0x80026f0 ; led_handler_inst + 60
        0x080026de:    f2401275    @.u.    MOV      r2,#0x175
        0x080026e2:    a133        3.      ADR      r1,{pc}+0xce ; 0x80027b0
        0x080026e4:    a03c        <.      ADR      r0,{pc}+0xf4 ; 0x80027d8
        0x080026e6:    f7fffb5d    ..].    BL       __0printf$3 ; 0x8001da4
        0x080026ea:    2004        .       MOVS     r0,#4
        0x080026ec:    e8bd87fc    ....    POP      {r2-r10,pc}
        0x080026f0:    7820         x      LDRB     r0,[r4,#0]
        0x080026f2:    2801        .(      CMP      r0,#1
        0x080026f4:    d107        ..      BNE      0x8002706 ; led_handler_inst + 82
        0x080026f6:    f44f72bf    O..r    MOV      r2,#0x17e
        0x080026fa:    a12d        -.      ADR      r1,{pc}+0xb6 ; 0x80027b0
        0x080026fc:    a041        A.      ADR      r0,{pc}+0x108 ; 0x8002804
        0x080026fe:    f7fffb51    ..Q.    BL       __0printf$3 ; 0x8001da4
        0x08002702:    2003        .       MOVS     r0,#3
        0x08002704:    e7f2        ..      B        0x80026ec ; led_handler_inst + 56
        0x08002706:    f8c4a038    ..8.    STR      r10,[r4,#0x38]
        0x0800270a:    63e6        .c      STR      r6,[r4,#0x3c]
        0x0800270c:    6427        'd      STR      r7,[r4,#0x40]
        0x0800270e:    f8c48044    ..D.    STR      r8,[r4,#0x44]
        0x08002712:    f8c49048    ..H.    STR      r9,[r4,#0x48]
        0x08002716:    4846        FH      LDR      r0,[pc,#280] ; [0x8002830] = 0x800225d
        0x08002718:    64e0        .d      STR      r0,[r4,#0x4c]
        0x0800271a:    4846        FH      LDR      r0,[pc,#280] ; [0x8002834] = 0x8002399
        0x0800271c:    6520         e      STR      r0,[r4,#0x50]
        0x0800271e:    6c20         l      LDR      r0,[r4,#0x40]
        0x08002720:    f1040230    ..0.    ADD      r2,r4,#0x30
        0x08002724:    210c        .!      MOVS     r1,#0xc
        0x08002726:    6803        .h      LDR      r3,[r0,#0]
        0x08002728:    200a        .       MOVS     r0,#0xa
        0x0800272a:    4798        .G      BLX      r3
        0x0800272c:    4605        .F      MOV      r5,r0
        0x0800272e:    b13d        =.      CBZ      r5,0x8002740 ; led_handler_inst + 140
        0x08002730:    f44f72cb    O..r    MOV      r2,#0x196
        0x08002734:    a11e        ..      ADR      r1,{pc}+0x7c ; 0x80027b0
        0x08002736:    a040        @.      ADR      r0,{pc}+0x102 ; 0x8002838
        0x08002738:    f7fffb34    ..4.    BL       __0printf$3 ; 0x8001da4
        0x0800273c:    2001        .       MOVS     r0,#1
        0x0800273e:    e7d5        ..      B        0x80026ec ; led_handler_inst + 56
        0x08002740:    2000        .       MOVS     r0,#0
        0x08002742:    6060        ``      STR      r0,[r4,#4]
        0x08002744:    210a        .!      MOVS     r1,#0xa
        0x08002746:    f1040008    ....    ADD      r0,r4,#8
        0x0800274a:    f7fffb57    ..W.    BL       __array_init ; 0x8001dfc
        0x0800274e:    4605        .F      MOV      r5,r0
        0x08002750:    b15d        ].      CBZ      r5,0x800276a ; led_handler_inst + 182
        0x08002752:    f24012a3    @...    MOV      r2,#0x1a3
        0x08002756:    a116        ..      ADR      r1,{pc}+0x5a ; 0x80027b0
        0x08002758:    a037        7.      ADR      r0,{pc}+0xe0 ; 0x8002838
        0x0800275a:    f7fffb23    ..#.    BL       __0printf$3 ; 0x8001da4
        0x0800275e:    6c22        "l      LDR      r2,[r4,#0x40]
        0x08002760:    6b20         k      LDR      r0,[r4,#0x30]
        0x08002762:    68d1        .h      LDR      r1,[r2,#0xc]
        0x08002764:    4788        .G      BLX      r1
        0x08002766:    2001        .       MOVS     r0,#1
        0x08002768:    e7c0        ..      B        0x80026ec ; led_handler_inst + 56
        0x0800276a:    2110        .!      MOVS     r1,#0x10
        0x0800276c:    6b60        `k      LDR      r0,[r4,#0x34]
        0x0800276e:    e9cd1000    ....    STRD     r1,r0,[sp,#0]
        0x08002772:    6ca0        .l      LDR      r0,[r4,#0x48]
        0x08002774:    4623        #F      MOV      r3,r4
        0x08002776:    014a        J.      LSLS     r2,r1,#5
        0x08002778:    a139        9.      ADR      r1,{pc}+0xe8 ; 0x8002860
        0x0800277a:    f8d0c000    ....    LDR      r12,[r0,#0]
        0x0800277e:    483c        <H      LDR      r0,[pc,#240] ; [0x8002870] = 0x80024bd
        0x08002780:    47e0        .G      BLX      r12
        0x08002782:    4605        .F      MOV      r5,r0
        0x08002784:    b17d        }.      CBZ      r5,0x80027a6 ; led_handler_inst + 242
        0x08002786:    f44f72da    O..r    MOV      r2,#0x1b4
        0x0800278a:    a109        ..      ADR      r1,{pc}+0x26 ; 0x80027b0
        0x0800278c:    a02a        *.      ADR      r0,{pc}+0xac ; 0x8002838
        0x0800278e:    f7fffb09    ....    BL       __0printf$3 ; 0x8001da4
        0x08002792:    6c22        "l      LDR      r2,[r4,#0x40]
        0x08002794:    6b20         k      LDR      r0,[r4,#0x30]
        0x08002796:    68d1        .h      LDR      r1,[r2,#0xc]
        0x08002798:    4788        .G      BLX      r1
        0x0800279a:    6ca2        .l      LDR      r2,[r4,#0x48]
        0x0800279c:    6b60        `k      LDR      r0,[r4,#0x34]
        0x0800279e:    6851        Qh      LDR      r1,[r2,#4]
        0x080027a0:    4788        .G      BLX      r1
        0x080027a2:    2001        .       MOVS     r0,#1
        0x080027a4:    e7a2        ..      B        0x80026ec ; led_handler_inst + 56
        0x080027a6:    2001        .       MOVS     r0,#1
        0x080027a8:    7020         p      STRB     r0,[r4,#0]
        0x080027aa:    4628        (F      MOV      r0,r5
        0x080027ac:    e79e        ..      B        0x80026ec ; led_handler_inst + 56
    $d
        0x080027ae:    0000        ..      DCW    0
        0x080027b0:    425c2e2e    ..\B    DCD    1113337390
        0x080027b4:    6c5c5053    SP\l    DCD    1817989203
        0x080027b8:    685c6465    ed\h    DCD    1750885477
        0x080027bc:    6c646e61    andl    DCD    1818521185
        0x080027c0:    625c7265    er\b    DCD    1650225765
        0x080027c4:    6c5f7073    sp_l    DCD    1818194035
        0x080027c8:    685f6465    ed_h    DCD    1751082085
        0x080027cc:    6c646e61    andl    DCD    1818521185
        0x080027d0:    632e7265    er.c    DCD    1663988325
        0x080027d4:    00000000    ....    DCD    0
        0x080027d8:    5f44454c    LED_    DCD    1598309708
        0x080027dc:    444e4148    HAND    DCD    1145979208
        0x080027e0:    5f52454c    LER_    DCD    1599227212
        0x080027e4:    5f525245    ERR_    DCD    1599230533
        0x080027e8:    41524150    PARA    DCD    1095909712
        0x080027ec:    6e69204d    M in    DCD    1852383309
        0x080027f0:    6c696620     fil    DCD    1818846752
        0x080027f4:    73253a65    e:%s    DCD    1931819621
        0x080027f8:    696c202c    , li    DCD    1768693804
        0x080027fc:    253a656e    ne:%    DCD    624584046
        0x08002800:    00000a64    d...    DCD    2660
        0x08002804:    5f44454c    LED_    DCD    1598309708
        0x08002808:    444e4148    HAND    DCD    1145979208
        0x0800280c:    5f52454c    LER_    DCD    1599227212
        0x08002810:    5f525245    ERR_    DCD    1599230533
        0x08002814:    52554f53    SOUR    DCD    1381322579
        0x08002818:    69204543    CE i    DCD    1763722563
        0x0800281c:    6966206e    n fi    DCD    1768300654
        0x08002820:    253a656c    le:%    DCD    624584044
        0x08002824:    6c202c73    s, l    DCD    1814047859
        0x08002828:    3a656e69    ine:    DCD    979725929
        0x0800282c:    000a6425    %d..    DCD    680997
        0x08002830:    0800225d    ]"..    DCD    134226525
        0x08002834:    08002399    .#..    DCD    134226841
        0x08002838:    5f44454c    LED_    DCD    1598309708
        0x0800283c:    444e4148    HAND    DCD    1145979208
        0x08002840:    5f52454c    LER_    DCD    1599227212
        0x08002844:    4f525245    ERRO    DCD    1330795077
        0x08002848:    6e692052    R in    DCD    1852383314
        0x0800284c:    6c696620     fil    DCD    1818846752
        0x08002850:    73253a65    e:%s    DCD    1931819621
        0x08002854:    696c202c    , li    DCD    1768693804
        0x08002858:    253a656e    ne:%    DCD    624584046
        0x0800285c:    00000a64    d...    DCD    2660
        0x08002860:    646e6168    hand    DCD    1684955496
        0x08002864:    5f72656c    ler_    DCD    1601332588
        0x08002868:    65726874    thre    DCD    1701996660
        0x0800286c:    00006461    ad..    DCD    25697
        0x08002870:    080024bd    .$..    DCD    134227133
    $t
    i.led_off_myown
    led_off_myown
        0x08002874:    b510        ..      PUSH     {r4,lr}
        0x08002876:    a002        ..      ADR      r0,{pc}+0xa ; 0x8002880
        0x08002878:    f7fffa94    ....    BL       __0printf$3 ; 0x8001da4
        0x0800287c:    2000        .       MOVS     r0,#0
        0x0800287e:    bd10        ..      POP      {r4,pc}
    $d
        0x08002880:    2064656c    led     DCD    543450476
        0x08002884:    6f207369    is o    DCD    1864397673
        0x08002888:    0a0d6666    ff..    DCD    168650342
        0x0800288c:    00000000    ....    DCD    0
    $t
    i.led_on_myown
    led_on_myown
        0x08002890:    b510        ..      PUSH     {r4,lr}
        0x08002892:    a002        ..      ADR      r0,{pc}+0xa ; 0x800289c
        0x08002894:    f7fffa86    ....    BL       __0printf$3 ; 0x8001da4
        0x08002898:    2000        .       MOVS     r0,#0
        0x0800289a:    bd10        ..      POP      {r4,pc}
    $d
        0x0800289c:    2064656c    led     DCD    543450476
        0x080028a0:    6f207369    is o    DCD    1864397673
        0x080028a4:    000a0d6e    n...    DCD    658798
    $t
    i.main
    main
        0x080028a8:    f7fdfe92    ....    BL       HAL_Init ; 0x80005d0
        0x080028ac:    f7feffd2    ....    BL       SystemClock_Config ; 0x8001854
        0x080028b0:    f7fefee2    ....    BL       MX_GPIO_Init ; 0x8001678
        0x080028b4:    f7feff38    ..8.    BL       MX_RTC_Init ; 0x8001728
        0x080028b8:    f7feff50    ..P.    BL       MX_USART1_UART_Init ; 0x800175c
        0x080028bc:    f000f816    ....    BL       osKernelInitialize ; 0x80028ec
        0x080028c0:    f7fefeca    ....    BL       MX_FREERTOS_Init ; 0x8001658
        0x080028c4:    f000f828    ..(.    BL       osKernelStart ; 0x8002918
        0x080028c8:    bf00        ..      NOP      
        0x080028ca:    e7fe        ..      B        0x80028ca ; main + 34
    i.osDelay
    osDelay
        0x080028cc:    b570        p.      PUSH     {r4-r6,lr}
        0x080028ce:    4605        .F      MOV      r5,r0
        0x080028d0:    f7fffb3e    ..>.    BL       __get_IPSR ; 0x8001f50
        0x080028d4:    b110        ..      CBZ      r0,0x80028dc ; osDelay + 16
        0x080028d6:    f06f0405    o...    MVN      r4,#5
        0x080028da:    e004        ..      B        0x80028e6 ; osDelay + 26
        0x080028dc:    2400        .$      MOVS     r4,#0
        0x080028de:    b115        ..      CBZ      r5,0x80028e6 ; osDelay + 26
        0x080028e0:    4628        (F      MOV      r0,r5
        0x080028e2:    f001f8ab    ....    BL       vTaskDelay ; 0x8003a3c
        0x080028e6:    4620         F      MOV      r0,r4
        0x080028e8:    bd70        p.      POP      {r4-r6,pc}
        0x080028ea:    0000        ..      MOVS     r0,r0
    i.osKernelInitialize
    osKernelInitialize
        0x080028ec:    b510        ..      PUSH     {r4,lr}
        0x080028ee:    f7fffb2f    ../.    BL       __get_IPSR ; 0x8001f50
        0x080028f2:    b110        ..      CBZ      r0,0x80028fa ; osKernelInitialize + 14
        0x080028f4:    f06f0405    o...    MVN      r4,#5
        0x080028f8:    e009        ..      B        0x800290e ; osKernelInitialize + 34
        0x080028fa:    4806        .H      LDR      r0,[pc,#24] ; [0x8002914] = 0x20000064
        0x080028fc:    6800        .h      LDR      r0,[r0,#0]
        0x080028fe:    b920         .      CBNZ     r0,0x800290a ; osKernelInitialize + 30
        0x08002900:    2001        .       MOVS     r0,#1
        0x08002902:    4904        .I      LDR      r1,[pc,#16] ; [0x8002914] = 0x20000064
        0x08002904:    6008        .`      STR      r0,[r1,#0]
        0x08002906:    2400        .$      MOVS     r4,#0
        0x08002908:    e001        ..      B        0x800290e ; osKernelInitialize + 34
        0x0800290a:    f04f34ff    O..4    MOV      r4,#0xffffffff
        0x0800290e:    4620         F      MOV      r0,r4
        0x08002910:    bd10        ..      POP      {r4,pc}
    $d
        0x08002912:    0000        ..      DCW    0
        0x08002914:    20000064    d..     DCD    536871012
    $t
    i.osKernelStart
    osKernelStart
        0x08002918:    b570        p.      PUSH     {r4-r6,lr}
        0x0800291a:    f7fffb19    ....    BL       __get_IPSR ; 0x8001f50
        0x0800291e:    b110        ..      CBZ      r0,0x8002926 ; osKernelStart + 14
        0x08002920:    f06f0405    o...    MVN      r4,#5
        0x08002924:    e01f        ..      B        0x8002966 ; osKernelStart + 78
        0x08002926:    4811        .H      LDR      r0,[pc,#68] ; [0x800296c] = 0x20000064
        0x08002928:    6800        .h      LDR      r0,[r0,#0]
        0x0800292a:    2801        .(      CMP      r0,#1
        0x0800292c:    d119        ..      BNE      0x8002962 ; osKernelStart + 74
        0x0800292e:    bf00        ..      NOP      
        0x08002930:    1f80        ..      SUBS     r0,r0,#6
        0x08002932:    2100        .!      MOVS     r1,#0
        0x08002934:    2800        .(      CMP      r0,#0
        0x08002936:    db04        ..      BLT      0x8002942 ; osKernelStart + 42
        0x08002938:    070a        ..      LSLS     r2,r1,#28
        0x0800293a:    0e13        ..      LSRS     r3,r2,#24
        0x0800293c:    4a0c        .J      LDR      r2,[pc,#48] ; [0x8002970] = 0xe000e400
        0x0800293e:    5413        .T      STRB     r3,[r2,r0]
        0x08002940:    e006        ..      B        0x8002950 ; osKernelStart + 56
        0x08002942:    070a        ..      LSLS     r2,r1,#28
        0x08002944:    0e15        ..      LSRS     r5,r2,#24
        0x08002946:    4a0b        .J      LDR      r2,[pc,#44] ; [0x8002974] = 0xe000ed18
        0x08002948:    f000030f    ....    AND      r3,r0,#0xf
        0x0800294c:    1f1b        ..      SUBS     r3,r3,#4
        0x0800294e:    54d5        .T      STRB     r5,[r2,r3]
        0x08002950:    bf00        ..      NOP      
        0x08002952:    bf00        ..      NOP      
        0x08002954:    2002        .       MOVS     r0,#2
        0x08002956:    4905        .I      LDR      r1,[pc,#20] ; [0x800296c] = 0x20000064
        0x08002958:    6008        .`      STR      r0,[r1,#0]
        0x0800295a:    f001f94f    ..O.    BL       vTaskStartScheduler ; 0x8003bfc
        0x0800295e:    2400        .$      MOVS     r4,#0
        0x08002960:    e001        ..      B        0x8002966 ; osKernelStart + 78
        0x08002962:    f04f34ff    O..4    MOV      r4,#0xffffffff
        0x08002966:    4620         F      MOV      r0,r4
        0x08002968:    bd70        p.      POP      {r4-r6,pc}
    $d
        0x0800296a:    0000        ..      DCW    0
        0x0800296c:    20000064    d..     DCD    536871012
        0x08002970:    e000e400    ....    DCD    3758154752
        0x08002974:    e000ed18    ....    DCD    3758157080
    $t
    i.osThreadNew
    osThreadNew
        0x08002978:    e92d47ff    -..G    PUSH     {r0-r10,lr}
        0x0800297c:    4680        .F      MOV      r8,r0
        0x0800297e:    4689        .F      MOV      r9,r1
        0x08002980:    4614        .F      MOV      r4,r2
        0x08002982:    2000        .       MOVS     r0,#0
        0x08002984:    9003        ..      STR      r0,[sp,#0xc]
        0x08002986:    f7fffae3    ....    BL       __get_IPSR ; 0x8001f50
        0x0800298a:    2800        .(      CMP      r0,#0
        0x0800298c:    d14e        N.      BNE      0x8002a2c ; osThreadNew + 180
        0x0800298e:    f1b80f00    ....    CMP      r8,#0
        0x08002992:    d04b        K.      BEQ      0x8002a2c ; osThreadNew + 180
        0x08002994:    2680        .&      MOVS     r6,#0x80
        0x08002996:    2518        .%      MOVS     r5,#0x18
        0x08002998:    4682        .F      MOV      r10,r0
        0x0800299a:    1e47        G.      SUBS     r7,r0,#1
        0x0800299c:    b344        D.      CBZ      r4,0x80029f0 ; osThreadNew + 120
        0x0800299e:    6820         h      LDR      r0,[r4,#0]
        0x080029a0:    b108        ..      CBZ      r0,0x80029a6 ; osThreadNew + 46
        0x080029a2:    f8d4a000    ....    LDR      r10,[r4,#0]
        0x080029a6:    69a0        .i      LDR      r0,[r4,#0x18]
        0x080029a8:    b100        ..      CBZ      r0,0x80029ac ; osThreadNew + 52
        0x080029aa:    69a5        .i      LDR      r5,[r4,#0x18]
        0x080029ac:    b12d        -.      CBZ      r5,0x80029ba ; osThreadNew + 66
        0x080029ae:    2d38        8-      CMP      r5,#0x38
        0x080029b0:    d803        ..      BHI      0x80029ba ; osThreadNew + 66
        0x080029b2:    7920         y      LDRB     r0,[r4,#4]
        0x080029b4:    f0000001    ....    AND      r0,r0,#1
        0x080029b8:    b118        ..      CBZ      r0,0x80029c2 ; osThreadNew + 74
        0x080029ba:    2000        .       MOVS     r0,#0
        0x080029bc:    b004        ..      ADD      sp,sp,#0x10
        0x080029be:    e8bd87f0    ....    POP      {r4-r10,pc}
        0x080029c2:    6960        `i      LDR      r0,[r4,#0x14]
        0x080029c4:    b108        ..      CBZ      r0,0x80029ca ; osThreadNew + 82
        0x080029c6:    6960        `i      LDR      r0,[r4,#0x14]
        0x080029c8:    0886        ..      LSRS     r6,r0,#2
        0x080029ca:    68a0        .h      LDR      r0,[r4,#8]
        0x080029cc:    b140        @.      CBZ      r0,0x80029e0 ; osThreadNew + 104
        0x080029ce:    68e0        .h      LDR      r0,[r4,#0xc]
        0x080029d0:    285c        \(      CMP      r0,#0x5c
        0x080029d2:    d305        ..      BCC      0x80029e0 ; osThreadNew + 104
        0x080029d4:    6920         i      LDR      r0,[r4,#0x10]
        0x080029d6:    b118        ..      CBZ      r0,0x80029e0 ; osThreadNew + 104
        0x080029d8:    6960        `i      LDR      r0,[r4,#0x14]
        0x080029da:    b108        ..      CBZ      r0,0x80029e0 ; osThreadNew + 104
        0x080029dc:    2701        .'      MOVS     r7,#1
        0x080029de:    e008        ..      B        0x80029f2 ; osThreadNew + 122
        0x080029e0:    68a0        .h      LDR      r0,[r4,#8]
        0x080029e2:    b930        0.      CBNZ     r0,0x80029f2 ; osThreadNew + 122
        0x080029e4:    68e0        .h      LDR      r0,[r4,#0xc]
        0x080029e6:    b920         .      CBNZ     r0,0x80029f2 ; osThreadNew + 122
        0x080029e8:    6920         i      LDR      r0,[r4,#0x10]
        0x080029ea:    b910        ..      CBNZ     r0,0x80029f2 ; osThreadNew + 122
        0x080029ec:    2700        .'      MOVS     r7,#0
        0x080029ee:    e000        ..      B        0x80029f2 ; osThreadNew + 122
        0x080029f0:    2700        .'      MOVS     r7,#0
        0x080029f2:    2f01        ./      CMP      r7,#1
        0x080029f4:    d10c        ..      BNE      0x8002a10 ; osThreadNew + 152
        0x080029f6:    6921        !i      LDR      r1,[r4,#0x10]
        0x080029f8:    68a0        .h      LDR      r0,[r4,#8]
        0x080029fa:    464b        KF      MOV      r3,r9
        0x080029fc:    4632        2F      MOV      r2,r6
        0x080029fe:    e9cd5100    ...Q    STRD     r5,r1,[sp,#0]
        0x08002a02:    9002        ..      STR      r0,[sp,#8]
        0x08002a04:    4651        QF      MOV      r1,r10
        0x08002a06:    4640        @F      MOV      r0,r8
        0x08002a08:    f001fdda    ....    BL       xTaskCreateStatic ; 0x80045c0
        0x08002a0c:    9003        ..      STR      r0,[sp,#0xc]
        0x08002a0e:    e00d        ..      B        0x8002a2c ; osThreadNew + 180
        0x08002a10:    b967        g.      CBNZ     r7,0x8002a2c ; osThreadNew + 180
        0x08002a12:    a803        ..      ADD      r0,sp,#0xc
        0x08002a14:    b2b2        ..      UXTH     r2,r6
        0x08002a16:    464b        KF      MOV      r3,r9
        0x08002a18:    4651        QF      MOV      r1,r10
        0x08002a1a:    e9cd5000    ...P    STRD     r5,r0,[sp,#0]
        0x08002a1e:    4640        @F      MOV      r0,r8
        0x08002a20:    f001fd9c    ....    BL       xTaskCreate ; 0x800455c
        0x08002a24:    2801        .(      CMP      r0,#1
        0x08002a26:    d001        ..      BEQ      0x8002a2c ; osThreadNew + 180
        0x08002a28:    2000        .       MOVS     r0,#0
        0x08002a2a:    9003        ..      STR      r0,[sp,#0xc]
        0x08002a2c:    9803        ..      LDR      r0,[sp,#0xc]
        0x08002a2e:    e7c5        ..      B        0x80029bc ; osThreadNew + 68
    i.os_critical_enter_handler_1
    os_critical_enter_handler_1
        0x08002a30:    b510        ..      PUSH     {r4,lr}
        0x08002a32:    f000feab    ....    BL       vPortEnterCritical ; 0x800378c
        0x08002a36:    2000        .       MOVS     r0,#0
        0x08002a38:    bd10        ..      POP      {r4,pc}
    i.os_critical_exit_handler_1
    os_critical_exit_handler_1
        0x08002a3a:    b510        ..      PUSH     {r4,lr}
        0x08002a3c:    f000fed0    ....    BL       vPortExitCritical ; 0x80037e0
        0x08002a40:    2000        .       MOVS     r0,#0
        0x08002a42:    bd10        ..      POP      {r4,pc}
    i.os_delay_ms_handler_1
    os_delay_ms_handler_1
        0x08002a44:    b510        ..      PUSH     {r4,lr}
        0x08002a46:    4604        .F      MOV      r4,r0
        0x08002a48:    4620         F      MOV      r0,r4
        0x08002a4a:    f000fff7    ....    BL       vTaskDelay ; 0x8003a3c
        0x08002a4e:    2000        .       MOVS     r0,#0
        0x08002a50:    bd10        ..      POP      {r4,pc}
    i.os_queue_create_handler_1
    os_queue_create_handler_1
        0x08002a52:    e92d41f0    -..A    PUSH     {r4-r8,lr}
        0x08002a56:    4606        .F      MOV      r6,r0
        0x08002a58:    460f        .F      MOV      r7,r1
        0x08002a5a:    4614        .F      MOV      r4,r2
        0x08002a5c:    2500        .%      MOVS     r5,#0
        0x08002a5e:    2200        ."      MOVS     r2,#0
        0x08002a60:    4639        9F      MOV      r1,r7
        0x08002a62:    4630        0F      MOV      r0,r6
        0x08002a64:    f001fa44    ..D.    BL       xQueueGenericCreate ; 0x8003ef0
        0x08002a68:    4605        .F      MOV      r5,r0
        0x08002a6a:    b915        ..      CBNZ     r5,0x8002a72 ; os_queue_create_handler_1 + 32
        0x08002a6c:    2003        .       MOVS     r0,#3
        0x08002a6e:    e8bd81f0    ....    POP      {r4-r8,pc}
        0x08002a72:    6025        %`      STR      r5,[r4,#0]
        0x08002a74:    2000        .       MOVS     r0,#0
        0x08002a76:    e7fa        ..      B        0x8002a6e ; os_queue_create_handler_1 + 28
    i.os_queue_delete_handler_1
    os_queue_delete_handler_1
        0x08002a78:    b510        ..      PUSH     {r4,lr}
        0x08002a7a:    4604        .F      MOV      r4,r0
        0x08002a7c:    b90c        ..      CBNZ     r4,0x8002a82 ; os_queue_delete_handler_1 + 10
        0x08002a7e:    2004        .       MOVS     r0,#4
        0x08002a80:    bd10        ..      POP      {r4,pc}
        0x08002a82:    4620         F      MOV      r0,r4
        0x08002a84:    f000ff82    ....    BL       vQueueDelete ; 0x800398c
        0x08002a88:    2000        .       MOVS     r0,#0
        0x08002a8a:    e7f9        ..      B        0x8002a80 ; os_queue_delete_handler_1 + 8
    i.os_queue_get_handler_1
    os_queue_get_handler_1
        0x08002a8c:    b570        p.      PUSH     {r4-r6,lr}
        0x08002a8e:    4604        .F      MOV      r4,r0
        0x08002a90:    460d        .F      MOV      r5,r1
        0x08002a92:    4616        .F      MOV      r6,r2
        0x08002a94:    b10c        ..      CBZ      r4,0x8002a9a ; os_queue_get_handler_1 + 14
        0x08002a96:    b105        ..      CBZ      r5,0x8002a9a ; os_queue_get_handler_1 + 14
        0x08002a98:    e001        ..      B        0x8002a9e ; os_queue_get_handler_1 + 18
        0x08002a9a:    2004        .       MOVS     r0,#4
        0x08002a9c:    bd70        p.      POP      {r4-r6,pc}
        0x08002a9e:    4632        2F      MOV      r2,r6
        0x08002aa0:    4629        )F      MOV      r1,r5
        0x08002aa2:    4620         F      MOV      r0,r4
        0x08002aa4:    f001fc60    ..`.    BL       xQueueReceive ; 0x8004368
        0x08002aa8:    2801        .(      CMP      r0,#1
        0x08002aaa:    d001        ..      BEQ      0x8002ab0 ; os_queue_get_handler_1 + 36
        0x08002aac:    2001        .       MOVS     r0,#1
        0x08002aae:    e7f5        ..      B        0x8002a9c ; os_queue_get_handler_1 + 16
        0x08002ab0:    2000        .       MOVS     r0,#0
        0x08002ab2:    e7f3        ..      B        0x8002a9c ; os_queue_get_handler_1 + 16
    i.os_queue_put_handler_1
    os_queue_put_handler_1
        0x08002ab4:    b570        p.      PUSH     {r4-r6,lr}
        0x08002ab6:    4604        .F      MOV      r4,r0
        0x08002ab8:    460d        .F      MOV      r5,r1
        0x08002aba:    4616        .F      MOV      r6,r2
        0x08002abc:    b10c        ..      CBZ      r4,0x8002ac2 ; os_queue_put_handler_1 + 14
        0x08002abe:    b105        ..      CBZ      r5,0x8002ac2 ; os_queue_put_handler_1 + 14
        0x08002ac0:    e001        ..      B        0x8002ac6 ; os_queue_put_handler_1 + 18
        0x08002ac2:    2003        .       MOVS     r0,#3
        0x08002ac4:    bd70        p.      POP      {r4-r6,pc}
        0x08002ac6:    2300        .#      MOVS     r3,#0
        0x08002ac8:    4632        2F      MOV      r2,r6
        0x08002aca:    4629        )F      MOV      r1,r5
        0x08002acc:    4620         F      MOV      r0,r4
        0x08002ace:    f001faf9    ....    BL       xQueueGenericSend ; 0x80040c4
        0x08002ad2:    2801        .(      CMP      r0,#1
        0x08002ad4:    d001        ..      BEQ      0x8002ada ; os_queue_put_handler_1 + 38
        0x08002ad6:    2001        .       MOVS     r0,#1
        0x08002ad8:    e7f4        ..      B        0x8002ac4 ; os_queue_put_handler_1 + 16
        0x08002ada:    2000        .       MOVS     r0,#0
        0x08002adc:    e7f2        ..      B        0x8002ac4 ; os_queue_put_handler_1 + 16
        0x08002ade:    0000        ..      MOVS     r0,r0
    i.prvAddCurrentTaskToDelayedList
    prvAddCurrentTaskToDelayedList
        0x08002ae0:    e92d41f0    -..A    PUSH     {r4-r8,lr}
        0x08002ae4:    4605        .F      MOV      r5,r0
        0x08002ae6:    460e        .F      MOV      r6,r1
        0x08002ae8:    4816        .H      LDR      r0,[pc,#88] ; [0x8002b44] = 0x20000028
        0x08002aea:    6807        .h      LDR      r7,[r0,#0]
        0x08002aec:    4816        .H      LDR      r0,[pc,#88] ; [0x8002b48] = 0x20000014
        0x08002aee:    6800        .h      LDR      r0,[r0,#0]
        0x08002af0:    1d00        ..      ADDS     r0,r0,#4
        0x08002af2:    f000fde8    ....    BL       uxListRemove ; 0x80036c6
        0x08002af6:    1c68        h.      ADDS     r0,r5,#1
        0x08002af8:    b938        8.      CBNZ     r0,0x8002b0a ; prvAddCurrentTaskToDelayedList + 42
        0x08002afa:    b136        6.      CBZ      r6,0x8002b0a ; prvAddCurrentTaskToDelayedList + 42
        0x08002afc:    4812        .H      LDR      r0,[pc,#72] ; [0x8002b48] = 0x20000014
        0x08002afe:    6801        .h      LDR      r1,[r0,#0]
        0x08002b00:    1d09        ..      ADDS     r1,r1,#4
        0x08002b02:    4812        .H      LDR      r0,[pc,#72] ; [0x8002b4c] = 0x20000668
        0x08002b04:    f000fe36    ..6.    BL       vListInsertEnd ; 0x8003774
        0x08002b08:    e01a        ..      B        0x8002b40 ; prvAddCurrentTaskToDelayedList + 96
        0x08002b0a:    197c        |.      ADDS     r4,r7,r5
        0x08002b0c:    480e        .H      LDR      r0,[pc,#56] ; [0x8002b48] = 0x20000014
        0x08002b0e:    6800        .h      LDR      r0,[r0,#0]
        0x08002b10:    6044        D`      STR      r4,[r0,#4]
        0x08002b12:    42bc        .B      CMP      r4,r7
        0x08002b14:    d207        ..      BCS      0x8002b26 ; prvAddCurrentTaskToDelayedList + 70
        0x08002b16:    480c        .H      LDR      r0,[pc,#48] ; [0x8002b48] = 0x20000014
        0x08002b18:    6801        .h      LDR      r1,[r0,#0]
        0x08002b1a:    1d09        ..      ADDS     r1,r1,#4
        0x08002b1c:    480c        .H      LDR      r0,[pc,#48] ; [0x8002b50] = 0x2000001c
        0x08002b1e:    6800        .h      LDR      r0,[r0,#0]
        0x08002b20:    f000fe0e    ....    BL       vListInsert ; 0x8003740
        0x08002b24:    e00c        ..      B        0x8002b40 ; prvAddCurrentTaskToDelayedList + 96
        0x08002b26:    4808        .H      LDR      r0,[pc,#32] ; [0x8002b48] = 0x20000014
        0x08002b28:    6801        .h      LDR      r1,[r0,#0]
        0x08002b2a:    1d09        ..      ADDS     r1,r1,#4
        0x08002b2c:    4809        .H      LDR      r0,[pc,#36] ; [0x8002b54] = 0x20000018
        0x08002b2e:    6800        .h      LDR      r0,[r0,#0]
        0x08002b30:    f000fe06    ....    BL       vListInsert ; 0x8003740
        0x08002b34:    4808        .H      LDR      r0,[pc,#32] ; [0x8002b58] = 0x20000044
        0x08002b36:    6800        .h      LDR      r0,[r0,#0]
        0x08002b38:    4284        .B      CMP      r4,r0
        0x08002b3a:    d201        ..      BCS      0x8002b40 ; prvAddCurrentTaskToDelayedList + 96
        0x08002b3c:    4806        .H      LDR      r0,[pc,#24] ; [0x8002b58] = 0x20000044
        0x08002b3e:    6004        .`      STR      r4,[r0,#0]
        0x08002b40:    e8bd81f0    ....    POP      {r4-r8,pc}
    $d
        0x08002b44:    20000028    (..     DCD    536870952
        0x08002b48:    20000014    ...     DCD    536870932
        0x08002b4c:    20000668    h..     DCD    536872552
        0x08002b50:    2000001c    ...     DCD    536870940
        0x08002b54:    20000018    ...     DCD    536870936
        0x08002b58:    20000044    D..     DCD    536870980
    $t
    i.prvAddNewTaskToReadyList
    prvAddNewTaskToReadyList
        0x08002b5c:    b510        ..      PUSH     {r4,lr}
        0x08002b5e:    4604        .F      MOV      r4,r0
        0x08002b60:    f000fe14    ....    BL       vPortEnterCritical ; 0x800378c
        0x08002b64:    4824        $H      LDR      r0,[pc,#144] ; [0x8002bf8] = 0x20000024
        0x08002b66:    6800        .h      LDR      r0,[r0,#0]
        0x08002b68:    1c40        @.      ADDS     r0,r0,#1
        0x08002b6a:    4923        #I      LDR      r1,[pc,#140] ; [0x8002bf8] = 0x20000024
        0x08002b6c:    6008        .`      STR      r0,[r1,#0]
        0x08002b6e:    4823        #H      LDR      r0,[pc,#140] ; [0x8002bfc] = 0x20000014
        0x08002b70:    6800        .h      LDR      r0,[r0,#0]
        0x08002b72:    b940        @.      CBNZ     r0,0x8002b86 ; prvAddNewTaskToReadyList + 42
        0x08002b74:    4821        !H      LDR      r0,[pc,#132] ; [0x8002bfc] = 0x20000014
        0x08002b76:    6004        .`      STR      r4,[r0,#0]
        0x08002b78:    4608        .F      MOV      r0,r1
        0x08002b7a:    6800        .h      LDR      r0,[r0,#0]
        0x08002b7c:    2801        .(      CMP      r0,#1
        0x08002b7e:    d10d        ..      BNE      0x8002b9c ; prvAddNewTaskToReadyList + 64
        0x08002b80:    f000f9fc    ....    BL       prvInitialiseTaskLists ; 0x8002f7c
        0x08002b84:    e00a        ..      B        0x8002b9c ; prvAddNewTaskToReadyList + 64
        0x08002b86:    481e        .H      LDR      r0,[pc,#120] ; [0x8002c00] = 0x20000030
        0x08002b88:    6800        .h      LDR      r0,[r0,#0]
        0x08002b8a:    b938        8.      CBNZ     r0,0x8002b9c ; prvAddNewTaskToReadyList + 64
        0x08002b8c:    481b        .H      LDR      r0,[pc,#108] ; [0x8002bfc] = 0x20000014
        0x08002b8e:    6800        .h      LDR      r0,[r0,#0]
        0x08002b90:    6ac0        .j      LDR      r0,[r0,#0x2c]
        0x08002b92:    6ae1        .j      LDR      r1,[r4,#0x2c]
        0x08002b94:    4288        .B      CMP      r0,r1
        0x08002b96:    d801        ..      BHI      0x8002b9c ; prvAddNewTaskToReadyList + 64
        0x08002b98:    4818        .H      LDR      r0,[pc,#96] ; [0x8002bfc] = 0x20000014
        0x08002b9a:    6004        .`      STR      r4,[r0,#0]
        0x08002b9c:    4819        .H      LDR      r0,[pc,#100] ; [0x8002c04] = 0x20000040
        0x08002b9e:    6800        .h      LDR      r0,[r0,#0]
        0x08002ba0:    1c40        @.      ADDS     r0,r0,#1
        0x08002ba2:    4918        .I      LDR      r1,[pc,#96] ; [0x8002c04] = 0x20000040
        0x08002ba4:    6008        .`      STR      r0,[r1,#0]
        0x08002ba6:    4608        .F      MOV      r0,r1
        0x08002ba8:    6800        .h      LDR      r0,[r0,#0]
        0x08002baa:    6460        `d      STR      r0,[r4,#0x44]
        0x08002bac:    4916        .I      LDR      r1,[pc,#88] ; [0x8002c08] = 0x2000002c
        0x08002bae:    6ae0        .j      LDR      r0,[r4,#0x2c]
        0x08002bb0:    6809        .h      LDR      r1,[r1,#0]
        0x08002bb2:    4288        .B      CMP      r0,r1
        0x08002bb4:    d902        ..      BLS      0x8002bbc ; prvAddNewTaskToReadyList + 96
        0x08002bb6:    4914        .I      LDR      r1,[pc,#80] ; [0x8002c08] = 0x2000002c
        0x08002bb8:    6ae0        .j      LDR      r0,[r4,#0x2c]
        0x08002bba:    6008        .`      STR      r0,[r1,#0]
        0x08002bbc:    6ae1        .j      LDR      r1,[r4,#0x2c]
        0x08002bbe:    eb010181    ....    ADD      r1,r1,r1,LSL #2
        0x08002bc2:    4a12        .J      LDR      r2,[pc,#72] ; [0x8002c0c] = 0x200001b8
        0x08002bc4:    eb020081    ....    ADD      r0,r2,r1,LSL #2
        0x08002bc8:    1d21        !.      ADDS     r1,r4,#4
        0x08002bca:    f000fdd3    ....    BL       vListInsertEnd ; 0x8003774
        0x08002bce:    f000fe07    ....    BL       vPortExitCritical ; 0x80037e0
        0x08002bd2:    480b        .H      LDR      r0,[pc,#44] ; [0x8002c00] = 0x20000030
        0x08002bd4:    6800        .h      LDR      r0,[r0,#0]
        0x08002bd6:    b168        h.      CBZ      r0,0x8002bf4 ; prvAddNewTaskToReadyList + 152
        0x08002bd8:    4808        .H      LDR      r0,[pc,#32] ; [0x8002bfc] = 0x20000014
        0x08002bda:    6800        .h      LDR      r0,[r0,#0]
        0x08002bdc:    6ac0        .j      LDR      r0,[r0,#0x2c]
        0x08002bde:    6ae1        .j      LDR      r1,[r4,#0x2c]
        0x08002be0:    4288        .B      CMP      r0,r1
        0x08002be2:    d207        ..      BCS      0x8002bf4 ; prvAddNewTaskToReadyList + 152
        0x08002be4:    f04f5080    O..P    MOV      r0,#0x10000000
        0x08002be8:    4909        .I      LDR      r1,[pc,#36] ; [0x8002c10] = 0xe000ed04
        0x08002bea:    6008        .`      STR      r0,[r1,#0]
        0x08002bec:    f3bf8f4f    ..O.    DSB      
        0x08002bf0:    f3bf8f6f    ..o.    ISB      
        0x08002bf4:    bd10        ..      POP      {r4,pc}
    $d
        0x08002bf6:    0000        ..      DCW    0
        0x08002bf8:    20000024    $..     DCD    536870948
        0x08002bfc:    20000014    ...     DCD    536870932
        0x08002c00:    20000030    0..     DCD    536870960
        0x08002c04:    20000040    @..     DCD    536870976
        0x08002c08:    2000002c    ,..     DCD    536870956
        0x08002c0c:    200001b8    ...     DCD    536871352
        0x08002c10:    e000ed04    ....    DCD    3758157060
    $t
    i.prvCheckForValidListAndQueue
    prvCheckForValidListAndQueue
        0x08002c14:    b508        ..      PUSH     {r3,lr}
        0x08002c16:    f000fdb9    ....    BL       vPortEnterCritical ; 0x800378c
        0x08002c1a:    4812        .H      LDR      r0,[pc,#72] ; [0x8002c64] = 0x20000058
        0x08002c1c:    6800        .h      LDR      r0,[r0,#0]
        0x08002c1e:    b9e8        ..      CBNZ     r0,0x8002c5c ; prvCheckForValidListAndQueue + 72
        0x08002c20:    4811        .H      LDR      r0,[pc,#68] ; [0x8002c68] = 0x2000067c
        0x08002c22:    f000fd7d    ..}.    BL       vListInitialise ; 0x8003720
        0x08002c26:    4811        .H      LDR      r0,[pc,#68] ; [0x8002c6c] = 0x20000690
        0x08002c28:    f000fd7a    ..z.    BL       vListInitialise ; 0x8003720
        0x08002c2c:    480e        .H      LDR      r0,[pc,#56] ; [0x8002c68] = 0x2000067c
        0x08002c2e:    4910        .I      LDR      r1,[pc,#64] ; [0x8002c70] = 0x20000050
        0x08002c30:    6008        .`      STR      r0,[r1,#0]
        0x08002c32:    480e        .H      LDR      r0,[pc,#56] ; [0x8002c6c] = 0x20000690
        0x08002c34:    490f        .I      LDR      r1,[pc,#60] ; [0x8002c74] = 0x20000054
        0x08002c36:    6008        .`      STR      r0,[r1,#0]
        0x08002c38:    2000        .       MOVS     r0,#0
        0x08002c3a:    4b0f        .K      LDR      r3,[pc,#60] ; [0x8002c78] = 0x200006a4
        0x08002c3c:    4a0f        .J      LDR      r2,[pc,#60] ; [0x8002c7c] = 0x200006f4
        0x08002c3e:    2110        .!      MOVS     r1,#0x10
        0x08002c40:    9000        ..      STR      r0,[sp,#0]
        0x08002c42:    200a        .       MOVS     r0,#0xa
        0x08002c44:    f001f981    ....    BL       xQueueGenericCreateStatic ; 0x8003f4a
        0x08002c48:    4906        .I      LDR      r1,[pc,#24] ; [0x8002c64] = 0x20000058
        0x08002c4a:    6008        .`      STR      r0,[r1,#0]
        0x08002c4c:    4608        .F      MOV      r0,r1
        0x08002c4e:    6800        .h      LDR      r0,[r0,#0]
        0x08002c50:    b120         .      CBZ      r0,0x8002c5c ; prvCheckForValidListAndQueue + 72
        0x08002c52:    a10b        ..      ADR      r1,{pc}+0x2e ; 0x8002c80
        0x08002c54:    4803        .H      LDR      r0,[pc,#12] ; [0x8002c64] = 0x20000058
        0x08002c56:    6800        .h      LDR      r0,[r0,#0]
        0x08002c58:    f000fe82    ....    BL       vQueueAddToRegistry ; 0x8003960
        0x08002c5c:    f000fdc0    ....    BL       vPortExitCritical ; 0x80037e0
        0x08002c60:    bd08        ..      POP      {r3,pc}
    $d
        0x08002c62:    0000        ..      DCW    0
        0x08002c64:    20000058    X..     DCD    536871000
        0x08002c68:    2000067c    |..     DCD    536872572
        0x08002c6c:    20000690    ...     DCD    536872592
        0x08002c70:    20000050    P..     DCD    536870992
        0x08002c74:    20000054    T..     DCD    536870996
        0x08002c78:    200006a4    ...     DCD    536872612
        0x08002c7c:    200006f4    ...     DCD    536872692
        0x08002c80:    51726d54    TmrQ    DCD    1366453588
        0x08002c84:    00000000    ....    DCD    0
    $t
    i.prvCheckTasksWaitingTermination
    prvCheckTasksWaitingTermination
        0x08002c88:    b510        ..      PUSH     {r4,lr}
        0x08002c8a:    e016        ..      B        0x8002cba ; prvCheckTasksWaitingTermination + 50
        0x08002c8c:    f000fd7e    ..~.    BL       vPortEnterCritical ; 0x800378c
        0x08002c90:    480c        .H      LDR      r0,[pc,#48] ; [0x8002cc4] = 0x20000654
        0x08002c92:    68c0        .h      LDR      r0,[r0,#0xc]
        0x08002c94:    68c4        .h      LDR      r4,[r0,#0xc]
        0x08002c96:    1d20         .      ADDS     r0,r4,#4
        0x08002c98:    f000fd15    ....    BL       uxListRemove ; 0x80036c6
        0x08002c9c:    480a        .H      LDR      r0,[pc,#40] ; [0x8002cc8] = 0x20000024
        0x08002c9e:    6800        .h      LDR      r0,[r0,#0]
        0x08002ca0:    1e40        @.      SUBS     r0,r0,#1
        0x08002ca2:    4909        .I      LDR      r1,[pc,#36] ; [0x8002cc8] = 0x20000024
        0x08002ca4:    6008        .`      STR      r0,[r1,#0]
        0x08002ca6:    4809        .H      LDR      r0,[pc,#36] ; [0x8002ccc] = 0x20000020
        0x08002ca8:    6800        .h      LDR      r0,[r0,#0]
        0x08002caa:    1e40        @.      SUBS     r0,r0,#1
        0x08002cac:    4907        .I      LDR      r1,[pc,#28] ; [0x8002ccc] = 0x20000020
        0x08002cae:    6008        .`      STR      r0,[r1,#0]
        0x08002cb0:    f000fd96    ....    BL       vPortExitCritical ; 0x80037e0
        0x08002cb4:    4620         F      MOV      r0,r4
        0x08002cb6:    f000f85f    .._.    BL       prvDeleteTCB ; 0x8002d78
        0x08002cba:    4804        .H      LDR      r0,[pc,#16] ; [0x8002ccc] = 0x20000020
        0x08002cbc:    6800        .h      LDR      r0,[r0,#0]
        0x08002cbe:    2800        .(      CMP      r0,#0
        0x08002cc0:    d1e4        ..      BNE      0x8002c8c ; prvCheckTasksWaitingTermination + 4
        0x08002cc2:    bd10        ..      POP      {r4,pc}
    $d
        0x08002cc4:    20000654    T..     DCD    536872532
        0x08002cc8:    20000024    $..     DCD    536870948
        0x08002ccc:    20000020     ..     DCD    536870944
    $t
    i.prvCopyDataFromQueue
    prvCopyDataFromQueue
        0x08002cd0:    b570        p.      PUSH     {r4-r6,lr}
        0x08002cd2:    4604        .F      MOV      r4,r0
        0x08002cd4:    460d        .F      MOV      r5,r1
        0x08002cd6:    6c20         l      LDR      r0,[r4,#0x40]
        0x08002cd8:    b170        p.      CBZ      r0,0x8002cf8 ; prvCopyDataFromQueue + 40
        0x08002cda:    6c21        !l      LDR      r1,[r4,#0x40]
        0x08002cdc:    68e0        .h      LDR      r0,[r4,#0xc]
        0x08002cde:    4401        .D      ADD      r1,r1,r0
        0x08002ce0:    60e1        .`      STR      r1,[r4,#0xc]
        0x08002ce2:    e9d41002    ....    LDRD     r1,r0,[r4,#8]
        0x08002ce6:    4288        .B      CMP      r0,r1
        0x08002ce8:    d301        ..      BCC      0x8002cee ; prvCopyDataFromQueue + 30
        0x08002cea:    6821        !h      LDR      r1,[r4,#0]
        0x08002cec:    60e1        .`      STR      r1,[r4,#0xc]
        0x08002cee:    4628        (F      MOV      r0,r5
        0x08002cf0:    6c22        "l      LDR      r2,[r4,#0x40]
        0x08002cf2:    68e1        .h      LDR      r1,[r4,#0xc]
        0x08002cf4:    f7fdfaff    ....    BL       __aeabi_memcpy ; 0x80002f6
        0x08002cf8:    bd70        p.      POP      {r4-r6,pc}
    i.prvCopyDataToQueue
    prvCopyDataToQueue
        0x08002cfa:    e92d41f0    -..A    PUSH     {r4-r8,lr}
        0x08002cfe:    4604        .F      MOV      r4,r0
        0x08002d00:    460f        .F      MOV      r7,r1
        0x08002d02:    4615        .F      MOV      r5,r2
        0x08002d04:    f04f0800    O...    MOV      r8,#0
        0x08002d08:    6ba6        .k      LDR      r6,[r4,#0x38]
        0x08002d0a:    6c20         l      LDR      r0,[r4,#0x40]
        0x08002d0c:    b948        H.      CBNZ     r0,0x8002d22 ; prvCopyDataToQueue + 40
        0x08002d0e:    6820         h      LDR      r0,[r4,#0]
        0x08002d10:    2800        .(      CMP      r0,#0
        0x08002d12:    d12c        ,.      BNE      0x8002d6e ; prvCopyDataToQueue + 116
        0x08002d14:    68a0        .h      LDR      r0,[r4,#8]
        0x08002d16:    f001fd69    ..i.    BL       xTaskPriorityDisinherit ; 0x80047ec
        0x08002d1a:    4680        .F      MOV      r8,r0
        0x08002d1c:    2000        .       MOVS     r0,#0
        0x08002d1e:    60a0        .`      STR      r0,[r4,#8]
        0x08002d20:    e025        %.      B        0x8002d6e ; prvCopyDataToQueue + 116
        0x08002d22:    b97d        }.      CBNZ     r5,0x8002d44 ; prvCopyDataToQueue + 74
        0x08002d24:    4639        9F      MOV      r1,r7
        0x08002d26:    6c22        "l      LDR      r2,[r4,#0x40]
        0x08002d28:    6860        `h      LDR      r0,[r4,#4]
        0x08002d2a:    f7fdfae4    ....    BL       __aeabi_memcpy ; 0x80002f6
        0x08002d2e:    6c21        !l      LDR      r1,[r4,#0x40]
        0x08002d30:    6860        `h      LDR      r0,[r4,#4]
        0x08002d32:    4408        .D      ADD      r0,r0,r1
        0x08002d34:    6060        ``      STR      r0,[r4,#4]
        0x08002d36:    e9d40101    ....    LDRD     r0,r1,[r4,#4]
        0x08002d3a:    4288        .B      CMP      r0,r1
        0x08002d3c:    d317        ..      BCC      0x8002d6e ; prvCopyDataToQueue + 116
        0x08002d3e:    6820         h      LDR      r0,[r4,#0]
        0x08002d40:    6060        ``      STR      r0,[r4,#4]
        0x08002d42:    e014        ..      B        0x8002d6e ; prvCopyDataToQueue + 116
        0x08002d44:    4639        9F      MOV      r1,r7
        0x08002d46:    6c22        "l      LDR      r2,[r4,#0x40]
        0x08002d48:    68e0        .h      LDR      r0,[r4,#0xc]
        0x08002d4a:    f7fdfad4    ....    BL       __aeabi_memcpy ; 0x80002f6
        0x08002d4e:    6c21        !l      LDR      r1,[r4,#0x40]
        0x08002d50:    68e0        .h      LDR      r0,[r4,#0xc]
        0x08002d52:    1a41        A.      SUBS     r1,r0,r1
        0x08002d54:    60e1        .`      STR      r1,[r4,#0xc]
        0x08002d56:    6821        !h      LDR      r1,[r4,#0]
        0x08002d58:    68e0        .h      LDR      r0,[r4,#0xc]
        0x08002d5a:    4288        .B      CMP      r0,r1
        0x08002d5c:    d203        ..      BCS      0x8002d66 ; prvCopyDataToQueue + 108
        0x08002d5e:    6c21        !l      LDR      r1,[r4,#0x40]
        0x08002d60:    68a0        .h      LDR      r0,[r4,#8]
        0x08002d62:    1a41        A.      SUBS     r1,r0,r1
        0x08002d64:    60e1        .`      STR      r1,[r4,#0xc]
        0x08002d66:    2d02        .-      CMP      r5,#2
        0x08002d68:    d101        ..      BNE      0x8002d6e ; prvCopyDataToQueue + 116
        0x08002d6a:    b106        ..      CBZ      r6,0x8002d6e ; prvCopyDataToQueue + 116
        0x08002d6c:    1e76        v.      SUBS     r6,r6,#1
        0x08002d6e:    1c70        p.      ADDS     r0,r6,#1
        0x08002d70:    63a0        .c      STR      r0,[r4,#0x38]
        0x08002d72:    4640        @F      MOV      r0,r8
        0x08002d74:    e8bd81f0    ....    POP      {r4-r8,pc}
    i.prvDeleteTCB
    prvDeleteTCB
        0x08002d78:    b510        ..      PUSH     {r4,lr}
        0x08002d7a:    4604        .F      MOV      r4,r0
        0x08002d7c:    f8940059    ..Y.    LDRB     r0,[r4,#0x59]
        0x08002d80:    b930        0.      CBNZ     r0,0x8002d90 ; prvDeleteTCB + 24
        0x08002d82:    6b20         k      LDR      r0,[r4,#0x30]
        0x08002d84:    f000fd4a    ..J.    BL       vPortFree ; 0x800381c
        0x08002d88:    4620         F      MOV      r0,r4
        0x08002d8a:    f000fd47    ..G.    BL       vPortFree ; 0x800381c
        0x08002d8e:    e01a        ..      B        0x8002dc6 ; prvDeleteTCB + 78
        0x08002d90:    f8940059    ..Y.    LDRB     r0,[r4,#0x59]
        0x08002d94:    2801        .(      CMP      r0,#1
        0x08002d96:    d103        ..      BNE      0x8002da0 ; prvDeleteTCB + 40
        0x08002d98:    4620         F      MOV      r0,r4
        0x08002d9a:    f000fd3f    ..?.    BL       vPortFree ; 0x800381c
        0x08002d9e:    e012        ..      B        0x8002dc6 ; prvDeleteTCB + 78
        0x08002da0:    f8940059    ..Y.    LDRB     r0,[r4,#0x59]
        0x08002da4:    2802        .(      CMP      r0,#2
        0x08002da6:    d101        ..      BNE      0x8002dac ; prvDeleteTCB + 52
        0x08002da8:    2001        .       MOVS     r0,#1
        0x08002daa:    e000        ..      B        0x8002dae ; prvDeleteTCB + 54
        0x08002dac:    2000        .       MOVS     r0,#0
        0x08002dae:    b950        P.      CBNZ     r0,0x8002dc6 ; prvDeleteTCB + 78
        0x08002db0:    bf00        ..      NOP      
        0x08002db2:    2050        P       MOVS     r0,#0x50
        0x08002db4:    f3808811    ....    MSR      BASEPRI,r0
        0x08002db8:    f3bf8f4f    ..O.    DSB      
        0x08002dbc:    f3bf8f6f    ..o.    ISB      
        0x08002dc0:    bf00        ..      NOP      
        0x08002dc2:    bf00        ..      NOP      
        0x08002dc4:    e7fe        ..      B        0x8002dc4 ; prvDeleteTCB + 76
        0x08002dc6:    bd10        ..      POP      {r4,pc}
    i.prvGetNextExpireTime
    prvGetNextExpireTime
        0x08002dc8:    4601        .F      MOV      r1,r0
        0x08002dca:    4a08        .J      LDR      r2,[pc,#32] ; [0x8002dec] = 0x20000050
        0x08002dcc:    6812        .h      LDR      r2,[r2,#0]
        0x08002dce:    6812        .h      LDR      r2,[r2,#0]
        0x08002dd0:    b90a        ..      CBNZ     r2,0x8002dd6 ; prvGetNextExpireTime + 14
        0x08002dd2:    2201        ."      MOVS     r2,#1
        0x08002dd4:    e000        ..      B        0x8002dd8 ; prvGetNextExpireTime + 16
        0x08002dd6:    2200        ."      MOVS     r2,#0
        0x08002dd8:    600a        .`      STR      r2,[r1,#0]
        0x08002dda:    680a        .h      LDR      r2,[r1,#0]
        0x08002ddc:    b922        ".      CBNZ     r2,0x8002de8 ; prvGetNextExpireTime + 32
        0x08002dde:    4a03        .J      LDR      r2,[pc,#12] ; [0x8002dec] = 0x20000050
        0x08002de0:    6812        .h      LDR      r2,[r2,#0]
        0x08002de2:    68d2        .h      LDR      r2,[r2,#0xc]
        0x08002de4:    6810        .h      LDR      r0,[r2,#0]
        0x08002de6:    e000        ..      B        0x8002dea ; prvGetNextExpireTime + 34
        0x08002de8:    2000        .       MOVS     r0,#0
        0x08002dea:    4770        pG      BX       lr
    $d
        0x08002dec:    20000050    P..     DCD    536870992
    $t
    i.prvHeapInit
    prvHeapInit
        0x08002df0:    b530        0.      PUSH     {r4,r5,lr}
        0x08002df2:    f44f5370    O.pS    MOV      r3,#0x3c00
        0x08002df6:    4817        .H      LDR      r0,[pc,#92] ; [0x8002e54] = 0x20000e4c
        0x08002df8:    f0000407    ....    AND      r4,r0,#7
        0x08002dfc:    b12c        ,.      CBZ      r4,0x8002e0a ; prvHeapInit + 26
        0x08002dfe:    1dc0        ..      ADDS     r0,r0,#7
        0x08002e00:    f0200007     ...    BIC      r0,r0,#7
        0x08002e04:    4c13        .L      LDR      r4,[pc,#76] ; [0x8002e54] = 0x20000e4c
        0x08002e06:    1b04        ..      SUBS     r4,r0,r4
        0x08002e08:    1b1b        ..      SUBS     r3,r3,r4
        0x08002e0a:    4602        .F      MOV      r2,r0
        0x08002e0c:    4c12        .L      LDR      r4,[pc,#72] ; [0x8002e58] = 0x20000068
        0x08002e0e:    6022        "`      STR      r2,[r4,#0]
        0x08002e10:    2400        .$      MOVS     r4,#0
        0x08002e12:    4d11        .M      LDR      r5,[pc,#68] ; [0x8002e58] = 0x20000068
        0x08002e14:    606c        l`      STR      r4,[r5,#4]
        0x08002e16:    18d0        ..      ADDS     r0,r2,r3
        0x08002e18:    3808        .8      SUBS     r0,r0,#8
        0x08002e1a:    f0200007     ...    BIC      r0,r0,#7
        0x08002e1e:    4c0f        .L      LDR      r4,[pc,#60] ; [0x8002e5c] = 0x20000070
        0x08002e20:    6020         `      STR      r0,[r4,#0]
        0x08002e22:    2400        .$      MOVS     r4,#0
        0x08002e24:    4d0d        .M      LDR      r5,[pc,#52] ; [0x8002e5c] = 0x20000070
        0x08002e26:    682d        -h      LDR      r5,[r5,#0]
        0x08002e28:    606c        l`      STR      r4,[r5,#4]
        0x08002e2a:    4d0c        .M      LDR      r5,[pc,#48] ; [0x8002e5c] = 0x20000070
        0x08002e2c:    682d        -h      LDR      r5,[r5,#0]
        0x08002e2e:    602c        ,`      STR      r4,[r5,#0]
        0x08002e30:    4611        .F      MOV      r1,r2
        0x08002e32:    1a44        D.      SUBS     r4,r0,r1
        0x08002e34:    604c        L`      STR      r4,[r1,#4]
        0x08002e36:    4c09        .L      LDR      r4,[pc,#36] ; [0x8002e5c] = 0x20000070
        0x08002e38:    6824        $h      LDR      r4,[r4,#0]
        0x08002e3a:    600c        .`      STR      r4,[r1,#0]
        0x08002e3c:    4d08        .M      LDR      r5,[pc,#32] ; [0x8002e60] = 0x20000078
        0x08002e3e:    684c        Lh      LDR      r4,[r1,#4]
        0x08002e40:    602c        ,`      STR      r4,[r5,#0]
        0x08002e42:    4d08        .M      LDR      r5,[pc,#32] ; [0x8002e64] = 0x20000074
        0x08002e44:    684c        Lh      LDR      r4,[r1,#4]
        0x08002e46:    602c        ,`      STR      r4,[r5,#0]
        0x08002e48:    f04f4400    O..D    MOV      r4,#0x80000000
        0x08002e4c:    4d06        .M      LDR      r5,[pc,#24] ; [0x8002e68] = 0x20000084
        0x08002e4e:    602c        ,`      STR      r4,[r5,#0]
        0x08002e50:    bd30        0.      POP      {r4,r5,pc}
    $d
        0x08002e52:    0000        ..      DCW    0
        0x08002e54:    20000e4c    L..     DCD    536874572
        0x08002e58:    20000068    h..     DCD    536871016
        0x08002e5c:    20000070    p..     DCD    536871024
        0x08002e60:    20000078    x..     DCD    536871032
        0x08002e64:    20000074    t..     DCD    536871028
        0x08002e68:    20000084    ...     DCD    536871044
    $t
    i.prvIdleTask
    prvIdleTask
        0x08002e6c:    bf00        ..      NOP      
        0x08002e6e:    f7ffff0b    ....    BL       prvCheckTasksWaitingTermination ; 0x8002c88
        0x08002e72:    4806        .H      LDR      r0,[pc,#24] ; [0x8002e8c] = 0x200001b8
        0x08002e74:    6800        .h      LDR      r0,[r0,#0]
        0x08002e76:    2801        .(      CMP      r0,#1
        0x08002e78:    d9f9        ..      BLS      0x8002e6e ; prvIdleTask + 2
        0x08002e7a:    f04f5080    O..P    MOV      r0,#0x10000000
        0x08002e7e:    4904        .I      LDR      r1,[pc,#16] ; [0x8002e90] = 0xe000ed04
        0x08002e80:    6008        .`      STR      r0,[r1,#0]
        0x08002e82:    f3bf8f4f    ..O.    DSB      
        0x08002e86:    f3bf8f6f    ..o.    ISB      
        0x08002e8a:    e7f0        ..      B        0x8002e6e ; prvIdleTask + 2
    $d
        0x08002e8c:    200001b8    ...     DCD    536871352
        0x08002e90:    e000ed04    ....    DCD    3758157060
    $t
    i.prvInitialiseNewQueue
    prvInitialiseNewQueue
        0x08002e94:    e92d41f0    -..A    PUSH     {r4-r8,lr}
        0x08002e98:    4606        .F      MOV      r6,r0
        0x08002e9a:    460d        .F      MOV      r5,r1
        0x08002e9c:    4617        .F      MOV      r7,r2
        0x08002e9e:    4698        .F      MOV      r8,r3
        0x08002ea0:    9c06        ..      LDR      r4,[sp,#0x18]
        0x08002ea2:    b90d        ..      CBNZ     r5,0x8002ea8 ; prvInitialiseNewQueue + 20
        0x08002ea4:    6024        $`      STR      r4,[r4,#0]
        0x08002ea6:    e000        ..      B        0x8002eaa ; prvInitialiseNewQueue + 22
        0x08002ea8:    6027        '`      STR      r7,[r4,#0]
        0x08002eaa:    63e6        .c      STR      r6,[r4,#0x3c]
        0x08002eac:    6425        %d      STR      r5,[r4,#0x40]
        0x08002eae:    2101        .!      MOVS     r1,#1
        0x08002eb0:    4620         F      MOV      r0,r4
        0x08002eb2:    f001f8bb    ....    BL       xQueueGenericReset ; 0x800402c
        0x08002eb6:    f884804c    ..L.    STRB     r8,[r4,#0x4c]
        0x08002eba:    e8bd81f0    ....    POP      {r4-r8,pc}
    i.prvInitialiseNewTask
    prvInitialiseNewTask
        0x08002ebe:    e92d5ff0    -.._    PUSH     {r4-r12,lr}
        0x08002ec2:    4682        .F      MOV      r10,r0
        0x08002ec4:    460e        .F      MOV      r6,r1
        0x08002ec6:    4690        .F      MOV      r8,r2
        0x08002ec8:    469b        .F      MOV      r11,r3
        0x08002eca:    9f0a        ..      LDR      r7,[sp,#0x28]
        0x08002ecc:    9c0c        ..      LDR      r4,[sp,#0x30]
        0x08002ece:    ea4f0188    O...    LSL      r1,r8,#2
        0x08002ed2:    22a5        ."      MOVS     r2,#0xa5
        0x08002ed4:    6b20         k      LDR      r0,[r4,#0x30]
        0x08002ed6:    f7fdfa20    .. .    BL       __aeabi_memset ; 0x800031a
        0x08002eda:    f1a80001    ....    SUB      r0,r8,#1
        0x08002ede:    6b21        !k      LDR      r1,[r4,#0x30]
        0x08002ee0:    eb010980    ....    ADD      r9,r1,r0,LSL #2
        0x08002ee4:    f0290907    )...    BIC      r9,r9,#7
        0x08002ee8:    f0090007    ....    AND      r0,r9,#7
        0x08002eec:    b908        ..      CBNZ     r0,0x8002ef2 ; prvInitialiseNewTask + 52
        0x08002eee:    2001        .       MOVS     r0,#1
        0x08002ef0:    e000        ..      B        0x8002ef4 ; prvInitialiseNewTask + 54
        0x08002ef2:    2000        .       MOVS     r0,#0
        0x08002ef4:    b950        P.      CBNZ     r0,0x8002f0c ; prvInitialiseNewTask + 78
        0x08002ef6:    bf00        ..      NOP      
        0x08002ef8:    2050        P       MOVS     r0,#0x50
        0x08002efa:    f3808811    ....    MSR      BASEPRI,r0
        0x08002efe:    f3bf8f4f    ..O.    DSB      
        0x08002f02:    f3bf8f6f    ..o.    ISB      
        0x08002f06:    bf00        ..      NOP      
        0x08002f08:    bf00        ..      NOP      
        0x08002f0a:    e7fe        ..      B        0x8002f0a ; prvInitialiseNewTask + 76
        0x08002f0c:    b186        ..      CBZ      r6,0x8002f30 ; prvInitialiseNewTask + 114
        0x08002f0e:    2500        .%      MOVS     r5,#0
        0x08002f10:    e007        ..      B        0x8002f22 ; prvInitialiseNewTask + 100
        0x08002f12:    5d71        q]      LDRB     r1,[r6,r5]
        0x08002f14:    f1040034    ..4.    ADD      r0,r4,#0x34
        0x08002f18:    5541        AU      STRB     r1,[r0,r5]
        0x08002f1a:    5d70        p]      LDRB     r0,[r6,r5]
        0x08002f1c:    b900        ..      CBNZ     r0,0x8002f20 ; prvInitialiseNewTask + 98
        0x08002f1e:    e002        ..      B        0x8002f26 ; prvInitialiseNewTask + 104
        0x08002f20:    1c6d        m.      ADDS     r5,r5,#1
        0x08002f22:    2d10        .-      CMP      r5,#0x10
        0x08002f24:    d3f5        ..      BCC      0x8002f12 ; prvInitialiseNewTask + 84
        0x08002f26:    bf00        ..      NOP      
        0x08002f28:    2100        .!      MOVS     r1,#0
        0x08002f2a:    2043        C       MOVS     r0,#0x43
        0x08002f2c:    5501        .U      STRB     r1,[r0,r4]
        0x08002f2e:    e002        ..      B        0x8002f36 ; prvInitialiseNewTask + 120
        0x08002f30:    2000        .       MOVS     r0,#0
        0x08002f32:    f8840034    ..4.    STRB     r0,[r4,#0x34]
        0x08002f36:    2f38        8/      CMP      r7,#0x38
        0x08002f38:    d300        ..      BCC      0x8002f3c ; prvInitialiseNewTask + 126
        0x08002f3a:    2737        7'      MOVS     r7,#0x37
        0x08002f3c:    62e7        .b      STR      r7,[r4,#0x2c]
        0x08002f3e:    64e7        .d      STR      r7,[r4,#0x4c]
        0x08002f40:    2000        .       MOVS     r0,#0
        0x08002f42:    6520         e      STR      r0,[r4,#0x50]
        0x08002f44:    1d20         .      ADDS     r0,r4,#4
        0x08002f46:    f000fbf8    ....    BL       vListInitialiseItem ; 0x800373a
        0x08002f4a:    f1040018    ....    ADD      r0,r4,#0x18
        0x08002f4e:    f000fbf4    ....    BL       vListInitialiseItem ; 0x800373a
        0x08002f52:    6124        $a      STR      r4,[r4,#0x10]
        0x08002f54:    f1c70038    ..8.    RSB      r0,r7,#0x38
        0x08002f58:    61a0        .a      STR      r0,[r4,#0x18]
        0x08002f5a:    6264        db      STR      r4,[r4,#0x24]
        0x08002f5c:    2000        .       MOVS     r0,#0
        0x08002f5e:    6560        `e      STR      r0,[r4,#0x54]
        0x08002f60:    f8840058    ..X.    STRB     r0,[r4,#0x58]
        0x08002f64:    465a        ZF      MOV      r2,r11
        0x08002f66:    4651        QF      MOV      r1,r10
        0x08002f68:    4648        HF      MOV      r0,r9
        0x08002f6a:    f000fb71    ..q.    BL       pxPortInitialiseStack ; 0x8003650
        0x08002f6e:    6020         `      STR      r0,[r4,#0]
        0x08002f70:    980b        ..      LDR      r0,[sp,#0x2c]
        0x08002f72:    b108        ..      CBZ      r0,0x8002f78 ; prvInitialiseNewTask + 186
        0x08002f74:    980b        ..      LDR      r0,[sp,#0x2c]
        0x08002f76:    6004        .`      STR      r4,[r0,#0]
        0x08002f78:    e8bd9ff0    ....    POP      {r4-r12,pc}
    i.prvInitialiseTaskLists
    prvInitialiseTaskLists
        0x08002f7c:    b510        ..      PUSH     {r4,lr}
        0x08002f7e:    2400        .$      MOVS     r4,#0
        0x08002f80:    e007        ..      B        0x8002f92 ; prvInitialiseTaskLists + 22
        0x08002f82:    eb040184    ....    ADD      r1,r4,r4,LSL #2
        0x08002f86:    4a0f        .J      LDR      r2,[pc,#60] ; [0x8002fc4] = 0x200001b8
        0x08002f88:    eb020081    ....    ADD      r0,r2,r1,LSL #2
        0x08002f8c:    f000fbc8    ....    BL       vListInitialise ; 0x8003720
        0x08002f90:    1c64        d.      ADDS     r4,r4,#1
        0x08002f92:    2c38        8,      CMP      r4,#0x38
        0x08002f94:    d3f5        ..      BCC      0x8002f82 ; prvInitialiseTaskLists + 6
        0x08002f96:    480c        .H      LDR      r0,[pc,#48] ; [0x8002fc8] = 0x20000618
        0x08002f98:    f000fbc2    ....    BL       vListInitialise ; 0x8003720
        0x08002f9c:    480b        .H      LDR      r0,[pc,#44] ; [0x8002fcc] = 0x2000062c
        0x08002f9e:    f000fbbf    ....    BL       vListInitialise ; 0x8003720
        0x08002fa2:    480b        .H      LDR      r0,[pc,#44] ; [0x8002fd0] = 0x20000640
        0x08002fa4:    f000fbbc    ....    BL       vListInitialise ; 0x8003720
        0x08002fa8:    480a        .H      LDR      r0,[pc,#40] ; [0x8002fd4] = 0x20000654
        0x08002faa:    f000fbb9    ....    BL       vListInitialise ; 0x8003720
        0x08002fae:    480a        .H      LDR      r0,[pc,#40] ; [0x8002fd8] = 0x20000668
        0x08002fb0:    f000fbb6    ....    BL       vListInitialise ; 0x8003720
        0x08002fb4:    4804        .H      LDR      r0,[pc,#16] ; [0x8002fc8] = 0x20000618
        0x08002fb6:    4909        .I      LDR      r1,[pc,#36] ; [0x8002fdc] = 0x20000018
        0x08002fb8:    6008        .`      STR      r0,[r1,#0]
        0x08002fba:    4804        .H      LDR      r0,[pc,#16] ; [0x8002fcc] = 0x2000062c
        0x08002fbc:    4908        .I      LDR      r1,[pc,#32] ; [0x8002fe0] = 0x2000001c
        0x08002fbe:    6008        .`      STR      r0,[r1,#0]
        0x08002fc0:    bd10        ..      POP      {r4,pc}
    $d
        0x08002fc2:    0000        ..      DCW    0
        0x08002fc4:    200001b8    ...     DCD    536871352
        0x08002fc8:    20000618    ...     DCD    536872472
        0x08002fcc:    2000062c    ,..     DCD    536872492
        0x08002fd0:    20000640    @..     DCD    536872512
        0x08002fd4:    20000654    T..     DCD    536872532
        0x08002fd8:    20000668    h..     DCD    536872552
        0x08002fdc:    20000018    ...     DCD    536870936
        0x08002fe0:    2000001c    ...     DCD    536870940
    $t
    i.prvInsertBlockIntoFreeList
    prvInsertBlockIntoFreeList
        0x08002fe4:    b510        ..      PUSH     {r4,lr}
        0x08002fe6:    4601        .F      MOV      r1,r0
        0x08002fe8:    4816        .H      LDR      r0,[pc,#88] ; [0x8003044] = 0x20000068
        0x08002fea:    e000        ..      B        0x8002fee ; prvInsertBlockIntoFreeList + 10
        0x08002fec:    6800        .h      LDR      r0,[r0,#0]
        0x08002fee:    6803        .h      LDR      r3,[r0,#0]
        0x08002ff0:    428b        .B      CMP      r3,r1
        0x08002ff2:    d3fb        ..      BCC      0x8002fec ; prvInsertBlockIntoFreeList + 8
        0x08002ff4:    4602        .F      MOV      r2,r0
        0x08002ff6:    6843        Ch      LDR      r3,[r0,#4]
        0x08002ff8:    4413        .D      ADD      r3,r3,r2
        0x08002ffa:    428b        .B      CMP      r3,r1
        0x08002ffc:    d104        ..      BNE      0x8003008 ; prvInsertBlockIntoFreeList + 36
        0x08002ffe:    6843        Ch      LDR      r3,[r0,#4]
        0x08003000:    684c        Lh      LDR      r4,[r1,#4]
        0x08003002:    4423        #D      ADD      r3,r3,r4
        0x08003004:    6043        C`      STR      r3,[r0,#4]
        0x08003006:    4601        .F      MOV      r1,r0
        0x08003008:    460a        .F      MOV      r2,r1
        0x0800300a:    684b        Kh      LDR      r3,[r1,#4]
        0x0800300c:    4413        .D      ADD      r3,r3,r2
        0x0800300e:    6804        .h      LDR      r4,[r0,#0]
        0x08003010:    42a3        .B      CMP      r3,r4
        0x08003012:    d111        ..      BNE      0x8003038 ; prvInsertBlockIntoFreeList + 84
        0x08003014:    4c0c        .L      LDR      r4,[pc,#48] ; [0x8003048] = 0x20000070
        0x08003016:    6803        .h      LDR      r3,[r0,#0]
        0x08003018:    6824        $h      LDR      r4,[r4,#0]
        0x0800301a:    42a3        .B      CMP      r3,r4
        0x0800301c:    d008        ..      BEQ      0x8003030 ; prvInsertBlockIntoFreeList + 76
        0x0800301e:    684b        Kh      LDR      r3,[r1,#4]
        0x08003020:    6804        .h      LDR      r4,[r0,#0]
        0x08003022:    6864        dh      LDR      r4,[r4,#4]
        0x08003024:    4423        #D      ADD      r3,r3,r4
        0x08003026:    604b        K`      STR      r3,[r1,#4]
        0x08003028:    6803        .h      LDR      r3,[r0,#0]
        0x0800302a:    681b        .h      LDR      r3,[r3,#0]
        0x0800302c:    600b        .`      STR      r3,[r1,#0]
        0x0800302e:    e005        ..      B        0x800303c ; prvInsertBlockIntoFreeList + 88
        0x08003030:    4b05        .K      LDR      r3,[pc,#20] ; [0x8003048] = 0x20000070
        0x08003032:    681b        .h      LDR      r3,[r3,#0]
        0x08003034:    600b        .`      STR      r3,[r1,#0]
        0x08003036:    e001        ..      B        0x800303c ; prvInsertBlockIntoFreeList + 88
        0x08003038:    6803        .h      LDR      r3,[r0,#0]
        0x0800303a:    600b        .`      STR      r3,[r1,#0]
        0x0800303c:    4288        .B      CMP      r0,r1
        0x0800303e:    d000        ..      BEQ      0x8003042 ; prvInsertBlockIntoFreeList + 94
        0x08003040:    6001        .`      STR      r1,[r0,#0]
        0x08003042:    bd10        ..      POP      {r4,pc}
    $d
        0x08003044:    20000068    h..     DCD    536871016
        0x08003048:    20000070    p..     DCD    536871024
    $t
    i.prvInsertTimerInActiveList
    prvInsertTimerInActiveList
        0x0800304c:    e92d41f0    -..A    PUSH     {r4-r8,lr}
        0x08003050:    4604        .F      MOV      r4,r0
        0x08003052:    460d        .F      MOV      r5,r1
        0x08003054:    4616        .F      MOV      r6,r2
        0x08003056:    461f        .F      MOV      r7,r3
        0x08003058:    f04f0800    O...    MOV      r8,#0
        0x0800305c:    6065        e`      STR      r5,[r4,#4]
        0x0800305e:    6124        $a      STR      r4,[r4,#0x10]
        0x08003060:    42b5        .B      CMP      r5,r6
        0x08003062:    d80c        ..      BHI      0x800307e ; prvInsertTimerInActiveList + 50
        0x08003064:    1bf0        ..      SUBS     r0,r6,r7
        0x08003066:    69a1        .i      LDR      r1,[r4,#0x18]
        0x08003068:    4288        .B      CMP      r0,r1
        0x0800306a:    d302        ..      BCC      0x8003072 ; prvInsertTimerInActiveList + 38
        0x0800306c:    f04f0801    O...    MOV      r8,#1
        0x08003070:    e011        ..      B        0x8003096 ; prvInsertTimerInActiveList + 74
        0x08003072:    1d21        !.      ADDS     r1,r4,#4
        0x08003074:    4809        .H      LDR      r0,[pc,#36] ; [0x800309c] = 0x20000054
        0x08003076:    6800        .h      LDR      r0,[r0,#0]
        0x08003078:    f000fb62    ..b.    BL       vListInsert ; 0x8003740
        0x0800307c:    e00b        ..      B        0x8003096 ; prvInsertTimerInActiveList + 74
        0x0800307e:    42be        .B      CMP      r6,r7
        0x08003080:    d204        ..      BCS      0x800308c ; prvInsertTimerInActiveList + 64
        0x08003082:    42bd        .B      CMP      r5,r7
        0x08003084:    d302        ..      BCC      0x800308c ; prvInsertTimerInActiveList + 64
        0x08003086:    f04f0801    O...    MOV      r8,#1
        0x0800308a:    e004        ..      B        0x8003096 ; prvInsertTimerInActiveList + 74
        0x0800308c:    1d21        !.      ADDS     r1,r4,#4
        0x0800308e:    4804        .H      LDR      r0,[pc,#16] ; [0x80030a0] = 0x20000050
        0x08003090:    6800        .h      LDR      r0,[r0,#0]
        0x08003092:    f000fb55    ..U.    BL       vListInsert ; 0x8003740
        0x08003096:    4640        @F      MOV      r0,r8
        0x08003098:    e8bd81f0    ....    POP      {r4-r8,pc}
    $d
        0x0800309c:    20000054    T..     DCD    536870996
        0x080030a0:    20000050    P..     DCD    536870992
    $t
    i.prvIsQueueEmpty
    prvIsQueueEmpty
        0x080030a4:    b570        p.      PUSH     {r4-r6,lr}
        0x080030a6:    4605        .F      MOV      r5,r0
        0x080030a8:    f000fb70    ..p.    BL       vPortEnterCritical ; 0x800378c
        0x080030ac:    6ba8        .k      LDR      r0,[r5,#0x38]
        0x080030ae:    b908        ..      CBNZ     r0,0x80030b4 ; prvIsQueueEmpty + 16
        0x080030b0:    2401        .$      MOVS     r4,#1
        0x080030b2:    e000        ..      B        0x80030b6 ; prvIsQueueEmpty + 18
        0x080030b4:    2400        .$      MOVS     r4,#0
        0x080030b6:    f000fb93    ....    BL       vPortExitCritical ; 0x80037e0
        0x080030ba:    4620         F      MOV      r0,r4
        0x080030bc:    bd70        p.      POP      {r4-r6,pc}
    i.prvIsQueueFull
    prvIsQueueFull
        0x080030be:    b570        p.      PUSH     {r4-r6,lr}
        0x080030c0:    4605        .F      MOV      r5,r0
        0x080030c2:    f000fb63    ..c.    BL       vPortEnterCritical ; 0x800378c
        0x080030c6:    6ba8        .k      LDR      r0,[r5,#0x38]
        0x080030c8:    6be9        .k      LDR      r1,[r5,#0x3c]
        0x080030ca:    4288        .B      CMP      r0,r1
        0x080030cc:    d101        ..      BNE      0x80030d2 ; prvIsQueueFull + 20
        0x080030ce:    2401        .$      MOVS     r4,#1
        0x080030d0:    e000        ..      B        0x80030d4 ; prvIsQueueFull + 22
        0x080030d2:    2400        .$      MOVS     r4,#0
        0x080030d4:    f000fb84    ....    BL       vPortExitCritical ; 0x80037e0
        0x080030d8:    4620         F      MOV      r0,r4
        0x080030da:    bd70        p.      POP      {r4-r6,pc}
    i.prvProcessExpiredTimer
    prvProcessExpiredTimer
        0x080030dc:    b5f8        ..      PUSH     {r3-r7,lr}
        0x080030de:    4605        .F      MOV      r5,r0
        0x080030e0:    460f        .F      MOV      r7,r1
        0x080030e2:    481a        .H      LDR      r0,[pc,#104] ; [0x800314c] = 0x20000050
        0x080030e4:    6800        .h      LDR      r0,[r0,#0]
        0x080030e6:    68c0        .h      LDR      r0,[r0,#0xc]
        0x080030e8:    68c4        .h      LDR      r4,[r0,#0xc]
        0x080030ea:    1d20         .      ADDS     r0,r4,#4
        0x080030ec:    f000faeb    ....    BL       uxListRemove ; 0x80036c6
        0x080030f0:    f8940028    ..(.    LDRB     r0,[r4,#0x28]
        0x080030f4:    f0000004    ....    AND      r0,r0,#4
        0x080030f8:    b1e8        ..      CBZ      r0,0x8003136 ; prvProcessExpiredTimer + 90
        0x080030fa:    69a0        .i      LDR      r0,[r4,#0x18]
        0x080030fc:    1941        A.      ADDS     r1,r0,r5
        0x080030fe:    462b        +F      MOV      r3,r5
        0x08003100:    463a        :F      MOV      r2,r7
        0x08003102:    4620         F      MOV      r0,r4
        0x08003104:    f7ffffa2    ....    BL       prvInsertTimerInActiveList ; 0x800304c
        0x08003108:    b1d8        ..      CBZ      r0,0x8003142 ; prvProcessExpiredTimer + 102
        0x0800310a:    2000        .       MOVS     r0,#0
        0x0800310c:    4603        .F      MOV      r3,r0
        0x0800310e:    462a        *F      MOV      r2,r5
        0x08003110:    4601        .F      MOV      r1,r0
        0x08003112:    9000        ..      STR      r0,[sp,#0]
        0x08003114:    4620         F      MOV      r0,r4
        0x08003116:    f001fcc5    ....    BL       xTimerGenericCommand ; 0x8004aa4
        0x0800311a:    4606        .F      MOV      r6,r0
        0x0800311c:    b956        V.      CBNZ     r6,0x8003134 ; prvProcessExpiredTimer + 88
        0x0800311e:    bf00        ..      NOP      
        0x08003120:    2050        P       MOVS     r0,#0x50
        0x08003122:    f3808811    ....    MSR      BASEPRI,r0
        0x08003126:    f3bf8f4f    ..O.    DSB      
        0x0800312a:    f3bf8f6f    ..o.    ISB      
        0x0800312e:    bf00        ..      NOP      
        0x08003130:    bf00        ..      NOP      
        0x08003132:    e7fe        ..      B        0x8003132 ; prvProcessExpiredTimer + 86
        0x08003134:    e005        ..      B        0x8003142 ; prvProcessExpiredTimer + 102
        0x08003136:    f8940028    ..(.    LDRB     r0,[r4,#0x28]
        0x0800313a:    f0200001     ...    BIC      r0,r0,#1
        0x0800313e:    f8840028    ..(.    STRB     r0,[r4,#0x28]
        0x08003142:    4620         F      MOV      r0,r4
        0x08003144:    6a21        !j      LDR      r1,[r4,#0x20]
        0x08003146:    4788        .G      BLX      r1
        0x08003148:    bdf8        ..      POP      {r3-r7,pc}
    $d
        0x0800314a:    0000        ..      DCW    0
        0x0800314c:    20000050    P..     DCD    536870992
    $t
    i.prvProcessReceivedCommands
    prvProcessReceivedCommands
        0x08003150:    b5f0        ..      PUSH     {r4-r7,lr}
        0x08003152:    b087        ..      SUB      sp,sp,#0x1c
        0x08003154:    e0a0        ..      B        0x8003298 ; prvProcessReceivedCommands + 328
        0x08003156:    9803        ..      LDR      r0,[sp,#0xc]
        0x08003158:    2800        .(      CMP      r0,#0
        0x0800315a:    da11        ..      BGE      0x8003180 ; prvProcessReceivedCommands + 48
        0x0800315c:    ae04        ..      ADD      r6,sp,#0x10
        0x0800315e:    b956        V.      CBNZ     r6,0x8003176 ; prvProcessReceivedCommands + 38
        0x08003160:    bf00        ..      NOP      
        0x08003162:    2050        P       MOVS     r0,#0x50
        0x08003164:    f3808811    ....    MSR      BASEPRI,r0
        0x08003168:    f3bf8f4f    ..O.    DSB      
        0x0800316c:    f3bf8f6f    ..o.    ISB      
        0x08003170:    bf00        ..      NOP      
        0x08003172:    bf00        ..      NOP      
        0x08003174:    e7fe        ..      B        0x8003174 ; prvProcessReceivedCommands + 36
        0x08003176:    e9d62000    ...     LDRD     r2,r0,[r6,#0]
        0x0800317a:    68b1        .h      LDR      r1,[r6,#8]
        0x0800317c:    4790        .G      BLX      r2
        0x0800317e:    bf00        ..      NOP      
        0x08003180:    9803        ..      LDR      r0,[sp,#0xc]
        0x08003182:    2800        .(      CMP      r0,#0
        0x08003184:    dbe6        ..      BLT      0x8003154 ; prvProcessReceivedCommands + 4
        0x08003186:    9c05        ..      LDR      r4,[sp,#0x14]
        0x08003188:    6960        `i      LDR      r0,[r4,#0x14]
        0x0800318a:    b908        ..      CBNZ     r0,0x8003190 ; prvProcessReceivedCommands + 64
        0x0800318c:    2001        .       MOVS     r0,#1
        0x0800318e:    e000        ..      B        0x8003192 ; prvProcessReceivedCommands + 66
        0x08003190:    2000        .       MOVS     r0,#0
        0x08003192:    b910        ..      CBNZ     r0,0x800319a ; prvProcessReceivedCommands + 74
        0x08003194:    1d20         .      ADDS     r0,r4,#4
        0x08003196:    f000fa96    ....    BL       uxListRemove ; 0x80036c6
        0x0800319a:    a802        ..      ADD      r0,sp,#8
        0x0800319c:    f000f8de    ....    BL       prvSampleTimeNow ; 0x800335c
        0x080031a0:    4605        .F      MOV      r5,r0
        0x080031a2:    9803        ..      LDR      r0,[sp,#0xc]
        0x080031a4:    280a        .(      CMP      r0,#0xa
        0x080031a6:    d275        u.      BCS      0x8003294 ; prvProcessReceivedCommands + 324
        0x080031a8:    e8dff000    ....    TBB      [pc,r0]
    $d
        0x080031ac:    39070509    ...9    DCD    956761353
        0x080031b0:    08066341    Ac..    DCD    134636353
        0x080031b4:    423a        :B      DCW    16954
    $t
        0x080031b6:    bf00        ..      NOP      
        0x080031b8:    bf00        ..      NOP      
        0x080031ba:    bf00        ..      NOP      
        0x080031bc:    bf00        ..      NOP      
        0x080031be:    f8940028    ..(.    LDRB     r0,[r4,#0x28]
        0x080031c2:    f0400001    @...    ORR      r0,r0,#1
        0x080031c6:    f8840028    ..(.    STRB     r0,[r4,#0x28]
        0x080031ca:    9804        ..      LDR      r0,[sp,#0x10]
        0x080031cc:    69a2        .i      LDR      r2,[r4,#0x18]
        0x080031ce:    1881        ..      ADDS     r1,r0,r2
        0x080031d0:    4603        .F      MOV      r3,r0
        0x080031d2:    462a        *F      MOV      r2,r5
        0x080031d4:    4620         F      MOV      r0,r4
        0x080031d6:    f7ffff39    ..9.    BL       prvInsertTimerInActiveList ; 0x800304c
        0x080031da:    b1f8        ..      CBZ      r0,0x800321c ; prvProcessReceivedCommands + 204
        0x080031dc:    4620         F      MOV      r0,r4
        0x080031de:    6a21        !j      LDR      r1,[r4,#0x20]
        0x080031e0:    4788        .G      BLX      r1
        0x080031e2:    f8940028    ..(.    LDRB     r0,[r4,#0x28]
        0x080031e6:    f0000004    ....    AND      r0,r0,#4
        0x080031ea:    b1b8        ..      CBZ      r0,0x800321c ; prvProcessReceivedCommands + 204
        0x080031ec:    2000        .       MOVS     r0,#0
        0x080031ee:    9000        ..      STR      r0,[sp,#0]
        0x080031f0:    9804        ..      LDR      r0,[sp,#0x10]
        0x080031f2:    69a1        .i      LDR      r1,[r4,#0x18]
        0x080031f4:    1842        B.      ADDS     r2,r0,r1
        0x080031f6:    2300        .#      MOVS     r3,#0
        0x080031f8:    4619        .F      MOV      r1,r3
        0x080031fa:    4620         F      MOV      r0,r4
        0x080031fc:    f001fc52    ..R.    BL       xTimerGenericCommand ; 0x8004aa4
        0x08003200:    4607        .F      MOV      r7,r0
        0x08003202:    b957        W.      CBNZ     r7,0x800321a ; prvProcessReceivedCommands + 202
        0x08003204:    bf00        ..      NOP      
        0x08003206:    2050        P       MOVS     r0,#0x50
        0x08003208:    f3808811    ....    MSR      BASEPRI,r0
        0x0800320c:    f3bf8f4f    ..O.    DSB      
        0x08003210:    f3bf8f6f    ..o.    ISB      
        0x08003214:    bf00        ..      NOP      
        0x08003216:    bf00        ..      NOP      
        0x08003218:    e7fe        ..      B        0x8003218 ; prvProcessReceivedCommands + 200
        0x0800321a:    bf00        ..      NOP      
        0x0800321c:    e03b        ;.      B        0x8003296 ; prvProcessReceivedCommands + 326
        0x0800321e:    bf00        ..      NOP      
        0x08003220:    f8940028    ..(.    LDRB     r0,[r4,#0x28]
        0x08003224:    f0200001     ...    BIC      r0,r0,#1
        0x08003228:    f8840028    ..(.    STRB     r0,[r4,#0x28]
        0x0800322c:    e033        3.      B        0x8003296 ; prvProcessReceivedCommands + 326
        0x0800322e:    bf00        ..      NOP      
        0x08003230:    f8940028    ..(.    LDRB     r0,[r4,#0x28]
        0x08003234:    f0400001    @...    ORR      r0,r0,#1
        0x08003238:    f8840028    ..(.    STRB     r0,[r4,#0x28]
        0x0800323c:    9804        ..      LDR      r0,[sp,#0x10]
        0x0800323e:    61a0        .a      STR      r0,[r4,#0x18]
        0x08003240:    69a0        .i      LDR      r0,[r4,#0x18]
        0x08003242:    b108        ..      CBZ      r0,0x8003248 ; prvProcessReceivedCommands + 248
        0x08003244:    2001        .       MOVS     r0,#1
        0x08003246:    e000        ..      B        0x800324a ; prvProcessReceivedCommands + 250
        0x08003248:    2000        .       MOVS     r0,#0
        0x0800324a:    b950        P.      CBNZ     r0,0x8003262 ; prvProcessReceivedCommands + 274
        0x0800324c:    bf00        ..      NOP      
        0x0800324e:    2050        P       MOVS     r0,#0x50
        0x08003250:    f3808811    ....    MSR      BASEPRI,r0
        0x08003254:    f3bf8f4f    ..O.    DSB      
        0x08003258:    f3bf8f6f    ..o.    ISB      
        0x0800325c:    bf00        ..      NOP      
        0x0800325e:    bf00        ..      NOP      
        0x08003260:    e7fe        ..      B        0x8003260 ; prvProcessReceivedCommands + 272
        0x08003262:    69a0        .i      LDR      r0,[r4,#0x18]
        0x08003264:    1941        A.      ADDS     r1,r0,r5
        0x08003266:    462b        +F      MOV      r3,r5
        0x08003268:    462a        *F      MOV      r2,r5
        0x0800326a:    4620         F      MOV      r0,r4
        0x0800326c:    f7fffeee    ....    BL       prvInsertTimerInActiveList ; 0x800304c
        0x08003270:    e011        ..      B        0x8003296 ; prvProcessReceivedCommands + 326
        0x08003272:    f8940028    ..(.    LDRB     r0,[r4,#0x28]
        0x08003276:    f0000002    ....    AND      r0,r0,#2
        0x0800327a:    b918        ..      CBNZ     r0,0x8003284 ; prvProcessReceivedCommands + 308
        0x0800327c:    4620         F      MOV      r0,r4
        0x0800327e:    f000facd    ....    BL       vPortFree ; 0x800381c
        0x08003282:    e005        ..      B        0x8003290 ; prvProcessReceivedCommands + 320
        0x08003284:    f8940028    ..(.    LDRB     r0,[r4,#0x28]
        0x08003288:    f0200001     ...    BIC      r0,r0,#1
        0x0800328c:    f8840028    ..(.    STRB     r0,[r4,#0x28]
        0x08003290:    e001        ..      B        0x8003296 ; prvProcessReceivedCommands + 326
        0x08003292:    e7ff        ..      B        0x8003294 ; prvProcessReceivedCommands + 324
        0x08003294:    bf00        ..      NOP      
        0x08003296:    bf00        ..      NOP      
        0x08003298:    2200        ."      MOVS     r2,#0
        0x0800329a:    a903        ..      ADD      r1,sp,#0xc
        0x0800329c:    4804        .H      LDR      r0,[pc,#16] ; [0x80032b0] = 0x20000058
        0x0800329e:    6800        .h      LDR      r0,[r0,#0]
        0x080032a0:    f001f862    ..b.    BL       xQueueReceive ; 0x8004368
        0x080032a4:    2800        .(      CMP      r0,#0
        0x080032a6:    f47faf56    ..V.    BNE      0x8003156 ; prvProcessReceivedCommands + 6
        0x080032aa:    b007        ..      ADD      sp,sp,#0x1c
        0x080032ac:    bdf0        ..      POP      {r4-r7,pc}
    $d
        0x080032ae:    0000        ..      DCW    0
        0x080032b0:    20000058    X..     DCD    536871000
    $t
    i.prvProcessTimerOrBlockTask
    prvProcessTimerOrBlockTask
        0x080032b4:    b5f8        ..      PUSH     {r3-r7,lr}
        0x080032b6:    4605        .F      MOV      r5,r0
        0x080032b8:    460c        .F      MOV      r4,r1
        0x080032ba:    f000fcfb    ....    BL       vTaskSuspendAll ; 0x8003cb4
        0x080032be:    4668        hF      MOV      r0,sp
        0x080032c0:    f000f84c    ..L.    BL       prvSampleTimeNow ; 0x800335c
        0x080032c4:    4606        .F      MOV      r6,r0
        0x080032c6:    9800        ..      LDR      r0,[sp,#0]
        0x080032c8:    bb20         .      CBNZ     r0,0x8003314 ; prvProcessTimerOrBlockTask + 96
        0x080032ca:    b944        D.      CBNZ     r4,0x80032de ; prvProcessTimerOrBlockTask + 42
        0x080032cc:    42b5        .B      CMP      r5,r6
        0x080032ce:    d806        ..      BHI      0x80032de ; prvProcessTimerOrBlockTask + 42
        0x080032d0:    f001fb2a    ..*.    BL       xTaskResumeAll ; 0x8004928
        0x080032d4:    4631        1F      MOV      r1,r6
        0x080032d6:    4628        (F      MOV      r0,r5
        0x080032d8:    f7ffff00    ....    BL       prvProcessExpiredTimer ; 0x80030dc
        0x080032dc:    e01c        ..      B        0x8003318 ; prvProcessTimerOrBlockTask + 100
        0x080032de:    b13c        <.      CBZ      r4,0x80032f0 ; prvProcessTimerOrBlockTask + 60
        0x080032e0:    480e        .H      LDR      r0,[pc,#56] ; [0x800331c] = 0x20000054
        0x080032e2:    6800        .h      LDR      r0,[r0,#0]
        0x080032e4:    6800        .h      LDR      r0,[r0,#0]
        0x080032e6:    b908        ..      CBNZ     r0,0x80032ec ; prvProcessTimerOrBlockTask + 56
        0x080032e8:    2001        .       MOVS     r0,#1
        0x080032ea:    e000        ..      B        0x80032ee ; prvProcessTimerOrBlockTask + 58
        0x080032ec:    2000        .       MOVS     r0,#0
        0x080032ee:    4604        .F      MOV      r4,r0
        0x080032f0:    1ba9        ..      SUBS     r1,r5,r6
        0x080032f2:    4622        "F      MOV      r2,r4
        0x080032f4:    480a        .H      LDR      r0,[pc,#40] ; [0x8003320] = 0x20000058
        0x080032f6:    6800        .h      LDR      r0,[r0,#0]
        0x080032f8:    f000fb7a    ..z.    BL       vQueueWaitForMessageRestricted ; 0x80039f0
        0x080032fc:    f001fb14    ....    BL       xTaskResumeAll ; 0x8004928
        0x08003300:    b950        P.      CBNZ     r0,0x8003318 ; prvProcessTimerOrBlockTask + 100
        0x08003302:    f04f5080    O..P    MOV      r0,#0x10000000
        0x08003306:    4907        .I      LDR      r1,[pc,#28] ; [0x8003324] = 0xe000ed04
        0x08003308:    6008        .`      STR      r0,[r1,#0]
        0x0800330a:    f3bf8f4f    ..O.    DSB      
        0x0800330e:    f3bf8f6f    ..o.    ISB      
        0x08003312:    e001        ..      B        0x8003318 ; prvProcessTimerOrBlockTask + 100
        0x08003314:    f001fb08    ....    BL       xTaskResumeAll ; 0x8004928
        0x08003318:    bdf8        ..      POP      {r3-r7,pc}
    $d
        0x0800331a:    0000        ..      DCW    0
        0x0800331c:    20000054    T..     DCD    536870996
        0x08003320:    20000058    X..     DCD    536871000
        0x08003324:    e000ed04    ....    DCD    3758157060
    $t
    i.prvResetNextTaskUnblockTime
    prvResetNextTaskUnblockTime
        0x08003328:    490a        .I      LDR      r1,[pc,#40] ; [0x8003354] = 0x20000018
        0x0800332a:    6809        .h      LDR      r1,[r1,#0]
        0x0800332c:    6809        .h      LDR      r1,[r1,#0]
        0x0800332e:    b909        ..      CBNZ     r1,0x8003334 ; prvResetNextTaskUnblockTime + 12
        0x08003330:    2101        .!      MOVS     r1,#1
        0x08003332:    e000        ..      B        0x8003336 ; prvResetNextTaskUnblockTime + 14
        0x08003334:    2100        .!      MOVS     r1,#0
        0x08003336:    b121        !.      CBZ      r1,0x8003342 ; prvResetNextTaskUnblockTime + 26
        0x08003338:    f04f31ff    O..1    MOV      r1,#0xffffffff
        0x0800333c:    4a06        .J      LDR      r2,[pc,#24] ; [0x8003358] = 0x20000044
        0x0800333e:    6011        .`      STR      r1,[r2,#0]
        0x08003340:    e006        ..      B        0x8003350 ; prvResetNextTaskUnblockTime + 40
        0x08003342:    4904        .I      LDR      r1,[pc,#16] ; [0x8003354] = 0x20000018
        0x08003344:    6809        .h      LDR      r1,[r1,#0]
        0x08003346:    68c9        .h      LDR      r1,[r1,#0xc]
        0x08003348:    68c8        .h      LDR      r0,[r1,#0xc]
        0x0800334a:    4a03        .J      LDR      r2,[pc,#12] ; [0x8003358] = 0x20000044
        0x0800334c:    6841        Ah      LDR      r1,[r0,#4]
        0x0800334e:    6011        .`      STR      r1,[r2,#0]
        0x08003350:    4770        pG      BX       lr
    $d
        0x08003352:    0000        ..      DCW    0
        0x08003354:    20000018    ...     DCD    536870936
        0x08003358:    20000044    D..     DCD    536870980
    $t
    i.prvSampleTimeNow
    prvSampleTimeNow
        0x0800335c:    b570        p.      PUSH     {r4-r6,lr}
        0x0800335e:    4604        .F      MOV      r4,r0
        0x08003360:    f001f99c    ....    BL       xTaskGetTickCount ; 0x800469c
        0x08003364:    4605        .F      MOV      r5,r0
        0x08003366:    4807        .H      LDR      r0,[pc,#28] ; [0x8003384] = 0x20000060
        0x08003368:    6800        .h      LDR      r0,[r0,#0]
        0x0800336a:    4285        .B      CMP      r5,r0
        0x0800336c:    d204        ..      BCS      0x8003378 ; prvSampleTimeNow + 28
        0x0800336e:    f000f80b    ....    BL       prvSwitchTimerLists ; 0x8003388
        0x08003372:    2001        .       MOVS     r0,#1
        0x08003374:    6020         `      STR      r0,[r4,#0]
        0x08003376:    e001        ..      B        0x800337c ; prvSampleTimeNow + 32
        0x08003378:    2000        .       MOVS     r0,#0
        0x0800337a:    6020         `      STR      r0,[r4,#0]
        0x0800337c:    4801        .H      LDR      r0,[pc,#4] ; [0x8003384] = 0x20000060
        0x0800337e:    6005        .`      STR      r5,[r0,#0]
        0x08003380:    4628        (F      MOV      r0,r5
        0x08003382:    bd70        p.      POP      {r4-r6,pc}
    $d
        0x08003384:    20000060    `..     DCD    536871008
    $t
    i.prvSwitchTimerLists
    prvSwitchTimerLists
        0x08003388:    e92d43f8    -..C    PUSH     {r3-r9,lr}
        0x0800338c:    e034        4.      B        0x80033f8 ; prvSwitchTimerLists + 112
        0x0800338e:    4825        %H      LDR      r0,[pc,#148] ; [0x8003424] = 0x20000050
        0x08003390:    6800        .h      LDR      r0,[r0,#0]
        0x08003392:    68c0        .h      LDR      r0,[r0,#0xc]
        0x08003394:    6805        .h      LDR      r5,[r0,#0]
        0x08003396:    4823        #H      LDR      r0,[pc,#140] ; [0x8003424] = 0x20000050
        0x08003398:    6800        .h      LDR      r0,[r0,#0]
        0x0800339a:    68c0        .h      LDR      r0,[r0,#0xc]
        0x0800339c:    68c4        .h      LDR      r4,[r0,#0xc]
        0x0800339e:    1d20         .      ADDS     r0,r4,#4
        0x080033a0:    f000f991    ....    BL       uxListRemove ; 0x80036c6
        0x080033a4:    4620         F      MOV      r0,r4
        0x080033a6:    6a21        !j      LDR      r1,[r4,#0x20]
        0x080033a8:    4788        .G      BLX      r1
        0x080033aa:    f8940028    ..(.    LDRB     r0,[r4,#0x28]
        0x080033ae:    f0000004    ....    AND      r0,r0,#4
        0x080033b2:    b308        ..      CBZ      r0,0x80033f8 ; prvSwitchTimerLists + 112
        0x080033b4:    69a0        .i      LDR      r0,[r4,#0x18]
        0x080033b6:    1946        F.      ADDS     r6,r0,r5
        0x080033b8:    42ae        .B      CMP      r6,r5
        0x080033ba:    d907        ..      BLS      0x80033cc ; prvSwitchTimerLists + 68
        0x080033bc:    6066        f`      STR      r6,[r4,#4]
        0x080033be:    6124        $a      STR      r4,[r4,#0x10]
        0x080033c0:    1d21        !.      ADDS     r1,r4,#4
        0x080033c2:    4818        .H      LDR      r0,[pc,#96] ; [0x8003424] = 0x20000050
        0x080033c4:    6800        .h      LDR      r0,[r0,#0]
        0x080033c6:    f000f9bb    ....    BL       vListInsert ; 0x8003740
        0x080033ca:    e015        ..      B        0x80033f8 ; prvSwitchTimerLists + 112
        0x080033cc:    2000        .       MOVS     r0,#0
        0x080033ce:    4603        .F      MOV      r3,r0
        0x080033d0:    462a        *F      MOV      r2,r5
        0x080033d2:    4601        .F      MOV      r1,r0
        0x080033d4:    9000        ..      STR      r0,[sp,#0]
        0x080033d6:    4620         F      MOV      r0,r4
        0x080033d8:    f001fb64    ..d.    BL       xTimerGenericCommand ; 0x8004aa4
        0x080033dc:    4607        .F      MOV      r7,r0
        0x080033de:    b957        W.      CBNZ     r7,0x80033f6 ; prvSwitchTimerLists + 110
        0x080033e0:    bf00        ..      NOP      
        0x080033e2:    2050        P       MOVS     r0,#0x50
        0x080033e4:    f3808811    ....    MSR      BASEPRI,r0
        0x080033e8:    f3bf8f4f    ..O.    DSB      
        0x080033ec:    f3bf8f6f    ..o.    ISB      
        0x080033f0:    bf00        ..      NOP      
        0x080033f2:    bf00        ..      NOP      
        0x080033f4:    e7fe        ..      B        0x80033f4 ; prvSwitchTimerLists + 108
        0x080033f6:    bf00        ..      NOP      
        0x080033f8:    480a        .H      LDR      r0,[pc,#40] ; [0x8003424] = 0x20000050
        0x080033fa:    6800        .h      LDR      r0,[r0,#0]
        0x080033fc:    6800        .h      LDR      r0,[r0,#0]
        0x080033fe:    b908        ..      CBNZ     r0,0x8003404 ; prvSwitchTimerLists + 124
        0x08003400:    2001        .       MOVS     r0,#1
        0x08003402:    e000        ..      B        0x8003406 ; prvSwitchTimerLists + 126
        0x08003404:    2000        .       MOVS     r0,#0
        0x08003406:    2800        .(      CMP      r0,#0
        0x08003408:    d0c1        ..      BEQ      0x800338e ; prvSwitchTimerLists + 6
        0x0800340a:    4806        .H      LDR      r0,[pc,#24] ; [0x8003424] = 0x20000050
        0x0800340c:    f8d08000    ....    LDR      r8,[r0,#0]
        0x08003410:    4805        .H      LDR      r0,[pc,#20] ; [0x8003428] = 0x20000054
        0x08003412:    6800        .h      LDR      r0,[r0,#0]
        0x08003414:    4903        .I      LDR      r1,[pc,#12] ; [0x8003424] = 0x20000050
        0x08003416:    6008        .`      STR      r0,[r1,#0]
        0x08003418:    4803        .H      LDR      r0,[pc,#12] ; [0x8003428] = 0x20000054
        0x0800341a:    f8c08000    ....    STR      r8,[r0,#0]
        0x0800341e:    e8bd83f8    ....    POP      {r3-r9,pc}
    $d
        0x08003422:    0000        ..      DCW    0
        0x08003424:    20000050    P..     DCD    536870992
        0x08003428:    20000054    T..     DCD    536870996
    $t
    i.prvTaskExitError
    prvTaskExitError
        0x0800342c:    480e        .H      LDR      r0,[pc,#56] ; [0x8003468] = 0x20000088
        0x0800342e:    6800        .h      LDR      r0,[r0,#0]
        0x08003430:    1c40        @.      ADDS     r0,r0,#1
        0x08003432:    b908        ..      CBNZ     r0,0x8003438 ; prvTaskExitError + 12
        0x08003434:    2001        .       MOVS     r0,#1
        0x08003436:    e000        ..      B        0x800343a ; prvTaskExitError + 14
        0x08003438:    2000        .       MOVS     r0,#0
        0x0800343a:    b950        P.      CBNZ     r0,0x8003452 ; prvTaskExitError + 38
        0x0800343c:    bf00        ..      NOP      
        0x0800343e:    2050        P       MOVS     r0,#0x50
        0x08003440:    f3808811    ....    MSR      BASEPRI,r0
        0x08003444:    f3bf8f4f    ..O.    DSB      
        0x08003448:    f3bf8f6f    ..o.    ISB      
        0x0800344c:    bf00        ..      NOP      
        0x0800344e:    bf00        ..      NOP      
        0x08003450:    e7fe        ..      B        0x8003450 ; prvTaskExitError + 36
        0x08003452:    bf00        ..      NOP      
        0x08003454:    2050        P       MOVS     r0,#0x50
        0x08003456:    f3808811    ....    MSR      BASEPRI,r0
        0x0800345a:    f3bf8f4f    ..O.    DSB      
        0x0800345e:    f3bf8f6f    ..o.    ISB      
        0x08003462:    bf00        ..      NOP      
        0x08003464:    bf00        ..      NOP      
        0x08003466:    e7fe        ..      B        0x8003466 ; prvTaskExitError + 58
    $d
        0x08003468:    20000088    ...     DCD    536871048
    $t
    i.prvTimerTask
    prvTimerTask
        0x0800346c:    b508        ..      PUSH     {r3,lr}
        0x0800346e:    bf00        ..      NOP      
        0x08003470:    4668        hF      MOV      r0,sp
        0x08003472:    f7fffca9    ....    BL       prvGetNextExpireTime ; 0x8002dc8
        0x08003476:    4604        .F      MOV      r4,r0
        0x08003478:    4620         F      MOV      r0,r4
        0x0800347a:    9900        ..      LDR      r1,[sp,#0]
        0x0800347c:    f7ffff1a    ....    BL       prvProcessTimerOrBlockTask ; 0x80032b4
        0x08003480:    f7fffe66    ..f.    BL       prvProcessReceivedCommands ; 0x8003150
        0x08003484:    e7f4        ..      B        0x8003470 ; prvTimerTask + 4
    i.prvUnlockQueue
    prvUnlockQueue
        0x08003486:    b570        p.      PUSH     {r4-r6,lr}
        0x08003488:    4604        .F      MOV      r4,r0
        0x0800348a:    f000f97f    ....    BL       vPortEnterCritical ; 0x800378c
        0x0800348e:    f9945045    ..EP    LDRSB    r5,[r4,#0x45]
        0x08003492:    e010        ..      B        0x80034b6 ; prvUnlockQueue + 48
        0x08003494:    6a60        `j      LDR      r0,[r4,#0x24]
        0x08003496:    b908        ..      CBNZ     r0,0x800349c ; prvUnlockQueue + 22
        0x08003498:    2001        .       MOVS     r0,#1
        0x0800349a:    e000        ..      B        0x800349e ; prvUnlockQueue + 24
        0x0800349c:    2000        .       MOVS     r0,#0
        0x0800349e:    b938        8.      CBNZ     r0,0x80034b0 ; prvUnlockQueue + 42
        0x080034a0:    f1040024    ..$.    ADD      r0,r4,#0x24
        0x080034a4:    f001f9f4    ....    BL       xTaskRemoveFromEventList ; 0x8004890
        0x080034a8:    b118        ..      CBZ      r0,0x80034b2 ; prvUnlockQueue + 44
        0x080034aa:    f000fb65    ..e.    BL       vTaskMissedYield ; 0x8003b78
        0x080034ae:    e000        ..      B        0x80034b2 ; prvUnlockQueue + 44
        0x080034b0:    e003        ..      B        0x80034ba ; prvUnlockQueue + 52
        0x080034b2:    1e68        h.      SUBS     r0,r5,#1
        0x080034b4:    b245        E.      SXTB     r5,r0
        0x080034b6:    2d00        .-      CMP      r5,#0
        0x080034b8:    dcec        ..      BGT      0x8003494 ; prvUnlockQueue + 14
        0x080034ba:    bf00        ..      NOP      
        0x080034bc:    20ff        .       MOVS     r0,#0xff
        0x080034be:    f8840045    ..E.    STRB     r0,[r4,#0x45]
        0x080034c2:    f000f98d    ....    BL       vPortExitCritical ; 0x80037e0
        0x080034c6:    f000f961    ..a.    BL       vPortEnterCritical ; 0x800378c
        0x080034ca:    f9945044    ..DP    LDRSB    r5,[r4,#0x44]
        0x080034ce:    e010        ..      B        0x80034f2 ; prvUnlockQueue + 108
        0x080034d0:    6920         i      LDR      r0,[r4,#0x10]
        0x080034d2:    b908        ..      CBNZ     r0,0x80034d8 ; prvUnlockQueue + 82
        0x080034d4:    2001        .       MOVS     r0,#1
        0x080034d6:    e000        ..      B        0x80034da ; prvUnlockQueue + 84
        0x080034d8:    2000        .       MOVS     r0,#0
        0x080034da:    b948        H.      CBNZ     r0,0x80034f0 ; prvUnlockQueue + 106
        0x080034dc:    f1040010    ....    ADD      r0,r4,#0x10
        0x080034e0:    f001f9d6    ....    BL       xTaskRemoveFromEventList ; 0x8004890
        0x080034e4:    b108        ..      CBZ      r0,0x80034ea ; prvUnlockQueue + 100
        0x080034e6:    f000fb47    ..G.    BL       vTaskMissedYield ; 0x8003b78
        0x080034ea:    1e68        h.      SUBS     r0,r5,#1
        0x080034ec:    b245        E.      SXTB     r5,r0
        0x080034ee:    e000        ..      B        0x80034f2 ; prvUnlockQueue + 108
        0x080034f0:    e001        ..      B        0x80034f6 ; prvUnlockQueue + 112
        0x080034f2:    2d00        .-      CMP      r5,#0
        0x080034f4:    dcec        ..      BGT      0x80034d0 ; prvUnlockQueue + 74
        0x080034f6:    bf00        ..      NOP      
        0x080034f8:    20ff        .       MOVS     r0,#0xff
        0x080034fa:    f8840044    ..D.    STRB     r0,[r4,#0x44]
        0x080034fe:    f000f96f    ..o.    BL       vPortExitCritical ; 0x80037e0
        0x08003502:    bd70        p.      POP      {r4-r6,pc}
    i.pvPortMalloc
    pvPortMalloc
        0x08003504:    e92d41f0    -..A    PUSH     {r4-r8,lr}
        0x08003508:    4604        .F      MOV      r4,r0
        0x0800350a:    f04f0800    O...    MOV      r8,#0
        0x0800350e:    f000fbd1    ....    BL       vTaskSuspendAll ; 0x8003cb4
        0x08003512:    4849        IH      LDR      r0,[pc,#292] ; [0x8003638] = 0x20000070
        0x08003514:    6800        .h      LDR      r0,[r0,#0]
        0x08003516:    b908        ..      CBNZ     r0,0x800351c ; pvPortMalloc + 24
        0x08003518:    f7fffc6a    ..j.    BL       prvHeapInit ; 0x8002df0
        0x0800351c:    4847        GH      LDR      r0,[pc,#284] ; [0x800363c] = 0x20000084
        0x0800351e:    6800        .h      LDR      r0,[r0,#0]
        0x08003520:    4020         @      ANDS     r0,r0,r4
        0x08003522:    2800        .(      CMP      r0,#0
        0x08003524:    d170        p.      BNE      0x8003608 ; pvPortMalloc + 260
        0x08003526:    b1d4        ..      CBZ      r4,0x800355e ; pvPortMalloc + 90
        0x08003528:    3408        .4      ADDS     r4,r4,#8
        0x0800352a:    f0040007    ....    AND      r0,r4,#7
        0x0800352e:    b1b0        ..      CBZ      r0,0x800355e ; pvPortMalloc + 90
        0x08003530:    f0040007    ....    AND      r0,r4,#7
        0x08003534:    f1c00008    ....    RSB      r0,r0,#8
        0x08003538:    4404        .D      ADD      r4,r4,r0
        0x0800353a:    f0040007    ....    AND      r0,r4,#7
        0x0800353e:    b908        ..      CBNZ     r0,0x8003544 ; pvPortMalloc + 64
        0x08003540:    2001        .       MOVS     r0,#1
        0x08003542:    e000        ..      B        0x8003546 ; pvPortMalloc + 66
        0x08003544:    2000        .       MOVS     r0,#0
        0x08003546:    b950        P.      CBNZ     r0,0x800355e ; pvPortMalloc + 90
        0x08003548:    bf00        ..      NOP      
        0x0800354a:    2050        P       MOVS     r0,#0x50
        0x0800354c:    f3808811    ....    MSR      BASEPRI,r0
        0x08003550:    f3bf8f4f    ..O.    DSB      
        0x08003554:    f3bf8f6f    ..o.    ISB      
        0x08003558:    bf00        ..      NOP      
        0x0800355a:    bf00        ..      NOP      
        0x0800355c:    e7fe        ..      B        0x800355c ; pvPortMalloc + 88
        0x0800355e:    2c00        .,      CMP      r4,#0
        0x08003560:    d052        R.      BEQ      0x8003608 ; pvPortMalloc + 260
        0x08003562:    4837        7H      LDR      r0,[pc,#220] ; [0x8003640] = 0x20000074
        0x08003564:    6800        .h      LDR      r0,[r0,#0]
        0x08003566:    4284        .B      CMP      r4,r0
        0x08003568:    d84e        N.      BHI      0x8003608 ; pvPortMalloc + 260
        0x0800356a:    4e36        6N      LDR      r6,[pc,#216] ; [0x8003644] = 0x20000068
        0x0800356c:    4630        0F      MOV      r0,r6
        0x0800356e:    6805        .h      LDR      r5,[r0,#0]
        0x08003570:    e001        ..      B        0x8003576 ; pvPortMalloc + 114
        0x08003572:    462e        .F      MOV      r6,r5
        0x08003574:    682d        -h      LDR      r5,[r5,#0]
        0x08003576:    6868        hh      LDR      r0,[r5,#4]
        0x08003578:    42a0        .B      CMP      r0,r4
        0x0800357a:    d202        ..      BCS      0x8003582 ; pvPortMalloc + 126
        0x0800357c:    6828        (h      LDR      r0,[r5,#0]
        0x0800357e:    2800        .(      CMP      r0,#0
        0x08003580:    d1f7        ..      BNE      0x8003572 ; pvPortMalloc + 110
        0x08003582:    482d        -H      LDR      r0,[pc,#180] ; [0x8003638] = 0x20000070
        0x08003584:    6800        .h      LDR      r0,[r0,#0]
        0x08003586:    4285        .B      CMP      r5,r0
        0x08003588:    d03e        >.      BEQ      0x8003608 ; pvPortMalloc + 260
        0x0800358a:    6830        0h      LDR      r0,[r6,#0]
        0x0800358c:    f1000808    ....    ADD      r8,r0,#8
        0x08003590:    6828        (h      LDR      r0,[r5,#0]
        0x08003592:    6030        0`      STR      r0,[r6,#0]
        0x08003594:    6868        hh      LDR      r0,[r5,#4]
        0x08003596:    1b00        ..      SUBS     r0,r0,r4
        0x08003598:    2810        .(      CMP      r0,#0x10
        0x0800359a:    d919        ..      BLS      0x80035d0 ; pvPortMalloc + 204
        0x0800359c:    192f        /.      ADDS     r7,r5,r4
        0x0800359e:    f0070007    ....    AND      r0,r7,#7
        0x080035a2:    b908        ..      CBNZ     r0,0x80035a8 ; pvPortMalloc + 164
        0x080035a4:    2001        .       MOVS     r0,#1
        0x080035a6:    e000        ..      B        0x80035aa ; pvPortMalloc + 166
        0x080035a8:    2000        .       MOVS     r0,#0
        0x080035aa:    b950        P.      CBNZ     r0,0x80035c2 ; pvPortMalloc + 190
        0x080035ac:    bf00        ..      NOP      
        0x080035ae:    2050        P       MOVS     r0,#0x50
        0x080035b0:    f3808811    ....    MSR      BASEPRI,r0
        0x080035b4:    f3bf8f4f    ..O.    DSB      
        0x080035b8:    f3bf8f6f    ..o.    ISB      
        0x080035bc:    bf00        ..      NOP      
        0x080035be:    bf00        ..      NOP      
        0x080035c0:    e7fe        ..      B        0x80035c0 ; pvPortMalloc + 188
        0x080035c2:    6868        hh      LDR      r0,[r5,#4]
        0x080035c4:    1b00        ..      SUBS     r0,r0,r4
        0x080035c6:    6078        x`      STR      r0,[r7,#4]
        0x080035c8:    606c        l`      STR      r4,[r5,#4]
        0x080035ca:    4638        8F      MOV      r0,r7
        0x080035cc:    f7fffd0a    ....    BL       prvInsertBlockIntoFreeList ; 0x8002fe4
        0x080035d0:    491b        .I      LDR      r1,[pc,#108] ; [0x8003640] = 0x20000074
        0x080035d2:    6868        hh      LDR      r0,[r5,#4]
        0x080035d4:    6809        .h      LDR      r1,[r1,#0]
        0x080035d6:    1a08        ..      SUBS     r0,r1,r0
        0x080035d8:    4919        .I      LDR      r1,[pc,#100] ; [0x8003640] = 0x20000074
        0x080035da:    6008        .`      STR      r0,[r1,#0]
        0x080035dc:    4608        .F      MOV      r0,r1
        0x080035de:    6800        .h      LDR      r0,[r0,#0]
        0x080035e0:    4919        .I      LDR      r1,[pc,#100] ; [0x8003648] = 0x20000078
        0x080035e2:    6809        .h      LDR      r1,[r1,#0]
        0x080035e4:    4288        .B      CMP      r0,r1
        0x080035e6:    d203        ..      BCS      0x80035f0 ; pvPortMalloc + 236
        0x080035e8:    4815        .H      LDR      r0,[pc,#84] ; [0x8003640] = 0x20000074
        0x080035ea:    6800        .h      LDR      r0,[r0,#0]
        0x080035ec:    4916        .I      LDR      r1,[pc,#88] ; [0x8003648] = 0x20000078
        0x080035ee:    6008        .`      STR      r0,[r1,#0]
        0x080035f0:    4912        .I      LDR      r1,[pc,#72] ; [0x800363c] = 0x20000084
        0x080035f2:    6868        hh      LDR      r0,[r5,#4]
        0x080035f4:    6809        .h      LDR      r1,[r1,#0]
        0x080035f6:    4308        .C      ORRS     r0,r0,r1
        0x080035f8:    6068        h`      STR      r0,[r5,#4]
        0x080035fa:    2000        .       MOVS     r0,#0
        0x080035fc:    6028        (`      STR      r0,[r5,#0]
        0x080035fe:    4813        .H      LDR      r0,[pc,#76] ; [0x800364c] = 0x2000007c
        0x08003600:    6800        .h      LDR      r0,[r0,#0]
        0x08003602:    1c40        @.      ADDS     r0,r0,#1
        0x08003604:    4911        .I      LDR      r1,[pc,#68] ; [0x800364c] = 0x2000007c
        0x08003606:    6008        .`      STR      r0,[r1,#0]
        0x08003608:    f001f98e    ....    BL       xTaskResumeAll ; 0x8004928
        0x0800360c:    f0080007    ....    AND      r0,r8,#7
        0x08003610:    b908        ..      CBNZ     r0,0x8003616 ; pvPortMalloc + 274
        0x08003612:    2001        .       MOVS     r0,#1
        0x08003614:    e000        ..      B        0x8003618 ; pvPortMalloc + 276
        0x08003616:    2000        .       MOVS     r0,#0
        0x08003618:    b950        P.      CBNZ     r0,0x8003630 ; pvPortMalloc + 300
        0x0800361a:    bf00        ..      NOP      
        0x0800361c:    2050        P       MOVS     r0,#0x50
        0x0800361e:    f3808811    ....    MSR      BASEPRI,r0
        0x08003622:    f3bf8f4f    ..O.    DSB      
        0x08003626:    f3bf8f6f    ..o.    ISB      
        0x0800362a:    bf00        ..      NOP      
        0x0800362c:    bf00        ..      NOP      
        0x0800362e:    e7fe        ..      B        0x800362e ; pvPortMalloc + 298
        0x08003630:    4640        @F      MOV      r0,r8
        0x08003632:    e8bd81f0    ....    POP      {r4-r8,pc}
    $d
        0x08003636:    0000        ..      DCW    0
        0x08003638:    20000070    p..     DCD    536871024
        0x0800363c:    20000084    ...     DCD    536871044
        0x08003640:    20000074    t..     DCD    536871028
        0x08003644:    20000068    h..     DCD    536871016
        0x08003648:    20000078    x..     DCD    536871032
        0x0800364c:    2000007c    |..     DCD    536871036
    $t
    i.pxPortInitialiseStack
    pxPortInitialiseStack
        0x08003650:    1f00        ..      SUBS     r0,r0,#4
        0x08003652:    f04f7380    O..s    MOV      r3,#0x1000000
        0x08003656:    6003        .`      STR      r3,[r0,#0]
        0x08003658:    1f00        ..      SUBS     r0,r0,#4
        0x0800365a:    f0210301    !...    BIC      r3,r1,#1
        0x0800365e:    6003        .`      STR      r3,[r0,#0]
        0x08003660:    1f00        ..      SUBS     r0,r0,#4
        0x08003662:    4b05        .K      LDR      r3,[pc,#20] ; [0x8003678] = 0x800342d
        0x08003664:    6003        .`      STR      r3,[r0,#0]
        0x08003666:    3814        .8      SUBS     r0,r0,#0x14
        0x08003668:    6002        .`      STR      r2,[r0,#0]
        0x0800366a:    1f00        ..      SUBS     r0,r0,#4
        0x0800366c:    f06f0302    o...    MVN      r3,#2
        0x08003670:    6003        .`      STR      r3,[r0,#0]
        0x08003672:    3820         8      SUBS     r0,r0,#0x20
        0x08003674:    4770        pG      BX       lr
    $d
        0x08003676:    0000        ..      DCW    0
        0x08003678:    0800342d    -4..    DCD    134231085
    $t
    i.thread_create_handler_1
    thread_create_handler_1
        0x0800367c:    e92d47fc    -..G    PUSH     {r2-r10,lr}
        0x08003680:    4605        .F      MOV      r5,r0
        0x08003682:    460e        .F      MOV      r6,r1
        0x08003684:    4614        .F      MOV      r4,r2
        0x08003686:    461f        .F      MOV      r7,r3
        0x08003688:    e9dd890a    ....    LDRD     r8,r9,[sp,#0x28]
        0x0800368c:    f04f0a01    O...    MOV      r10,#1
        0x08003690:    b2a2        ..      UXTH     r2,r4
        0x08003692:    463b        ;F      MOV      r3,r7
        0x08003694:    4631        1F      MOV      r1,r6
        0x08003696:    4628        (F      MOV      r0,r5
        0x08003698:    e9cd8900    ....    STRD     r8,r9,[sp,#0]
        0x0800369c:    f000ff5e    ..^.    BL       xTaskCreate ; 0x800455c
        0x080036a0:    4682        .F      MOV      r10,r0
        0x080036a2:    f1ba0f01    ....    CMP      r10,#1
        0x080036a6:    d002        ..      BEQ      0x80036ae ; thread_create_handler_1 + 50
        0x080036a8:    2001        .       MOVS     r0,#1
        0x080036aa:    e8bd87fc    ....    POP      {r2-r10,pc}
        0x080036ae:    2000        .       MOVS     r0,#0
        0x080036b0:    e7fb        ..      B        0x80036aa ; thread_create_handler_1 + 46
    i.thread_delete_handler_1
    thread_delete_handler_1
        0x080036b2:    b510        ..      PUSH     {r4,lr}
        0x080036b4:    4604        .F      MOV      r4,r0
        0x080036b6:    b90c        ..      CBNZ     r4,0x80036bc ; thread_delete_handler_1 + 10
        0x080036b8:    2004        .       MOVS     r0,#4
        0x080036ba:    bd10        ..      POP      {r4,pc}
        0x080036bc:    4620         F      MOV      r0,r4
        0x080036be:    f000f9eb    ....    BL       vTaskDelete ; 0x8003a98
        0x080036c2:    2000        .       MOVS     r0,#0
        0x080036c4:    e7f9        ..      B        0x80036ba ; thread_delete_handler_1 + 8
    i.uxListRemove
    uxListRemove
        0x080036c6:    4601        .F      MOV      r1,r0
        0x080036c8:    690a        .i      LDR      r2,[r1,#0x10]
        0x080036ca:    e9d13001    ...0    LDRD     r3,r0,[r1,#4]
        0x080036ce:    6098        .`      STR      r0,[r3,#8]
        0x080036d0:    e9d10301    ....    LDRD     r0,r3,[r1,#4]
        0x080036d4:    6058        X`      STR      r0,[r3,#4]
        0x080036d6:    6850        Ph      LDR      r0,[r2,#4]
        0x080036d8:    4288        .B      CMP      r0,r1
        0x080036da:    d101        ..      BNE      0x80036e0 ; uxListRemove + 26
        0x080036dc:    6888        .h      LDR      r0,[r1,#8]
        0x080036de:    6050        P`      STR      r0,[r2,#4]
        0x080036e0:    2000        .       MOVS     r0,#0
        0x080036e2:    6108        .a      STR      r0,[r1,#0x10]
        0x080036e4:    6810        .h      LDR      r0,[r2,#0]
        0x080036e6:    1e40        @.      SUBS     r0,r0,#1
        0x080036e8:    6010        .`      STR      r0,[r2,#0]
        0x080036ea:    6810        .h      LDR      r0,[r2,#0]
        0x080036ec:    4770        pG      BX       lr
        0x080036ee:    0000        ..      MOVS     r0,r0
    i.vApplicationGetIdleTaskMemory
    vApplicationGetIdleTaskMemory
        0x080036f0:    4b03        .K      LDR      r3,[pc,#12] ; [0x8003700] = 0x20000794
        0x080036f2:    6003        .`      STR      r3,[r0,#0]
        0x080036f4:    4b03        .K      LDR      r3,[pc,#12] ; [0x8003704] = 0x200007f0
        0x080036f6:    600b        .`      STR      r3,[r1,#0]
        0x080036f8:    2380        .#      MOVS     r3,#0x80
        0x080036fa:    6013        .`      STR      r3,[r2,#0]
        0x080036fc:    4770        pG      BX       lr
    $d
        0x080036fe:    0000        ..      DCW    0
        0x08003700:    20000794    ...     DCD    536872852
        0x08003704:    200007f0    ...     DCD    536872944
    $t
    i.vApplicationGetTimerTaskMemory
    vApplicationGetTimerTaskMemory
        0x08003708:    4b03        .K      LDR      r3,[pc,#12] ; [0x8003718] = 0x200009f0
        0x0800370a:    6003        .`      STR      r3,[r0,#0]
        0x0800370c:    4b03        .K      LDR      r3,[pc,#12] ; [0x800371c] = 0x20000a4c
        0x0800370e:    600b        .`      STR      r3,[r1,#0]
        0x08003710:    f44f7380    O..s    MOV      r3,#0x100
        0x08003714:    6013        .`      STR      r3,[r2,#0]
        0x08003716:    4770        pG      BX       lr
    $d
        0x08003718:    200009f0    ...     DCD    536873456
        0x0800371c:    20000a4c    L..     DCD    536873548
    $t
    i.vListInitialise
    vListInitialise
        0x08003720:    f1000108    ....    ADD      r1,r0,#8
        0x08003724:    6041        A`      STR      r1,[r0,#4]
        0x08003726:    f04f31ff    O..1    MOV      r1,#0xffffffff
        0x0800372a:    6081        .`      STR      r1,[r0,#8]
        0x0800372c:    f1000108    ....    ADD      r1,r0,#8
        0x08003730:    60c1        .`      STR      r1,[r0,#0xc]
        0x08003732:    6101        .a      STR      r1,[r0,#0x10]
        0x08003734:    2100        .!      MOVS     r1,#0
        0x08003736:    6001        .`      STR      r1,[r0,#0]
        0x08003738:    4770        pG      BX       lr
    i.vListInitialiseItem
    vListInitialiseItem
        0x0800373a:    2100        .!      MOVS     r1,#0
        0x0800373c:    6101        .a      STR      r1,[r0,#0x10]
        0x0800373e:    4770        pG      BX       lr
    i.vListInsert
    vListInsert
        0x08003740:    b510        ..      PUSH     {r4,lr}
        0x08003742:    4602        .F      MOV      r2,r0
        0x08003744:    680b        .h      LDR      r3,[r1,#0]
        0x08003746:    1c5c        \.      ADDS     r4,r3,#1
        0x08003748:    b90c        ..      CBNZ     r4,0x800374e ; vListInsert + 14
        0x0800374a:    6910        .i      LDR      r0,[r2,#0x10]
        0x0800374c:    e007        ..      B        0x800375e ; vListInsert + 30
        0x0800374e:    f1020008    ....    ADD      r0,r2,#8
        0x08003752:    e000        ..      B        0x8003756 ; vListInsert + 22
        0x08003754:    6840        @h      LDR      r0,[r0,#4]
        0x08003756:    6844        Dh      LDR      r4,[r0,#4]
        0x08003758:    6824        $h      LDR      r4,[r4,#0]
        0x0800375a:    429c        .B      CMP      r4,r3
        0x0800375c:    d9fa        ..      BLS      0x8003754 ; vListInsert + 20
        0x0800375e:    6844        Dh      LDR      r4,[r0,#4]
        0x08003760:    604c        L`      STR      r4,[r1,#4]
        0x08003762:    684c        Lh      LDR      r4,[r1,#4]
        0x08003764:    60a1        .`      STR      r1,[r4,#8]
        0x08003766:    6088        .`      STR      r0,[r1,#8]
        0x08003768:    6041        A`      STR      r1,[r0,#4]
        0x0800376a:    610a        .a      STR      r2,[r1,#0x10]
        0x0800376c:    6814        .h      LDR      r4,[r2,#0]
        0x0800376e:    1c64        d.      ADDS     r4,r4,#1
        0x08003770:    6014        .`      STR      r4,[r2,#0]
        0x08003772:    bd10        ..      POP      {r4,pc}
    i.vListInsertEnd
    vListInsertEnd
        0x08003774:    6842        Bh      LDR      r2,[r0,#4]
        0x08003776:    604a        J`      STR      r2,[r1,#4]
        0x08003778:    6893        .h      LDR      r3,[r2,#8]
        0x0800377a:    608b        .`      STR      r3,[r1,#8]
        0x0800377c:    6893        .h      LDR      r3,[r2,#8]
        0x0800377e:    6059        Y`      STR      r1,[r3,#4]
        0x08003780:    6091        .`      STR      r1,[r2,#8]
        0x08003782:    6108        .a      STR      r0,[r1,#0x10]
        0x08003784:    6803        .h      LDR      r3,[r0,#0]
        0x08003786:    1c5b        [.      ADDS     r3,r3,#1
        0x08003788:    6003        .`      STR      r3,[r0,#0]
        0x0800378a:    4770        pG      BX       lr
    i.vPortEnterCritical
    vPortEnterCritical
        0x0800378c:    bf00        ..      NOP      
        0x0800378e:    2050        P       MOVS     r0,#0x50
        0x08003790:    f3808811    ....    MSR      BASEPRI,r0
        0x08003794:    f3bf8f4f    ..O.    DSB      
        0x08003798:    f3bf8f6f    ..o.    ISB      
        0x0800379c:    bf00        ..      NOP      
        0x0800379e:    480e        .H      LDR      r0,[pc,#56] ; [0x80037d8] = 0x20000088
        0x080037a0:    6800        .h      LDR      r0,[r0,#0]
        0x080037a2:    1c40        @.      ADDS     r0,r0,#1
        0x080037a4:    490c        .I      LDR      r1,[pc,#48] ; [0x80037d8] = 0x20000088
        0x080037a6:    6008        .`      STR      r0,[r1,#0]
        0x080037a8:    4608        .F      MOV      r0,r1
        0x080037aa:    6800        .h      LDR      r0,[r0,#0]
        0x080037ac:    2801        .(      CMP      r0,#1
        0x080037ae:    d112        ..      BNE      0x80037d6 ; vPortEnterCritical + 74
        0x080037b0:    480a        .H      LDR      r0,[pc,#40] ; [0x80037dc] = 0xe000ed04
        0x080037b2:    6800        .h      LDR      r0,[r0,#0]
        0x080037b4:    b2c0        ..      UXTB     r0,r0
        0x080037b6:    b908        ..      CBNZ     r0,0x80037bc ; vPortEnterCritical + 48
        0x080037b8:    2001        .       MOVS     r0,#1
        0x080037ba:    e000        ..      B        0x80037be ; vPortEnterCritical + 50
        0x080037bc:    2000        .       MOVS     r0,#0
        0x080037be:    b950        P.      CBNZ     r0,0x80037d6 ; vPortEnterCritical + 74
        0x080037c0:    bf00        ..      NOP      
        0x080037c2:    2050        P       MOVS     r0,#0x50
        0x080037c4:    f3808811    ....    MSR      BASEPRI,r0
        0x080037c8:    f3bf8f4f    ..O.    DSB      
        0x080037cc:    f3bf8f6f    ..o.    ISB      
        0x080037d0:    bf00        ..      NOP      
        0x080037d2:    bf00        ..      NOP      
        0x080037d4:    e7fe        ..      B        0x80037d4 ; vPortEnterCritical + 72
        0x080037d6:    4770        pG      BX       lr
    $d
        0x080037d8:    20000088    ...     DCD    536871048
        0x080037dc:    e000ed04    ....    DCD    3758157060
    $t
    i.vPortExitCritical
    vPortExitCritical
        0x080037e0:    480d        .H      LDR      r0,[pc,#52] ; [0x8003818] = 0x20000088
        0x080037e2:    6800        .h      LDR      r0,[r0,#0]
        0x080037e4:    b950        P.      CBNZ     r0,0x80037fc ; vPortExitCritical + 28
        0x080037e6:    bf00        ..      NOP      
        0x080037e8:    2050        P       MOVS     r0,#0x50
        0x080037ea:    f3808811    ....    MSR      BASEPRI,r0
        0x080037ee:    f3bf8f4f    ..O.    DSB      
        0x080037f2:    f3bf8f6f    ..o.    ISB      
        0x080037f6:    bf00        ..      NOP      
        0x080037f8:    bf00        ..      NOP      
        0x080037fa:    e7fe        ..      B        0x80037fa ; vPortExitCritical + 26
        0x080037fc:    4806        .H      LDR      r0,[pc,#24] ; [0x8003818] = 0x20000088
        0x080037fe:    6800        .h      LDR      r0,[r0,#0]
        0x08003800:    1e40        @.      SUBS     r0,r0,#1
        0x08003802:    4905        .I      LDR      r1,[pc,#20] ; [0x8003818] = 0x20000088
        0x08003804:    6008        .`      STR      r0,[r1,#0]
        0x08003806:    4608        .F      MOV      r0,r1
        0x08003808:    6800        .h      LDR      r0,[r0,#0]
        0x0800380a:    b920         .      CBNZ     r0,0x8003816 ; vPortExitCritical + 54
        0x0800380c:    2000        .       MOVS     r0,#0
        0x0800380e:    f3808811    ....    MSR      BASEPRI,r0
        0x08003812:    bf00        ..      NOP      
        0x08003814:    bf00        ..      NOP      
        0x08003816:    4770        pG      BX       lr
    $d
        0x08003818:    20000088    ...     DCD    536871048
    $t
    i.vPortFree
    vPortFree
        0x0800381c:    b570        p.      PUSH     {r4-r6,lr}
        0x0800381e:    4606        .F      MOV      r6,r0
        0x08003820:    4635        5F      MOV      r5,r6
        0x08003822:    2e00        ..      CMP      r6,#0
        0x08003824:    d044        D.      BEQ      0x80038b0 ; vPortFree + 148
        0x08003826:    3d08        .=      SUBS     r5,r5,#8
        0x08003828:    462c        ,F      MOV      r4,r5
        0x0800382a:    4922        "I      LDR      r1,[pc,#136] ; [0x80038b4] = 0x20000084
        0x0800382c:    6860        `h      LDR      r0,[r4,#4]
        0x0800382e:    6809        .h      LDR      r1,[r1,#0]
        0x08003830:    4008        .@      ANDS     r0,r0,r1
        0x08003832:    b108        ..      CBZ      r0,0x8003838 ; vPortFree + 28
        0x08003834:    2001        .       MOVS     r0,#1
        0x08003836:    e000        ..      B        0x800383a ; vPortFree + 30
        0x08003838:    2000        .       MOVS     r0,#0
        0x0800383a:    b950        P.      CBNZ     r0,0x8003852 ; vPortFree + 54
        0x0800383c:    bf00        ..      NOP      
        0x0800383e:    2050        P       MOVS     r0,#0x50
        0x08003840:    f3808811    ....    MSR      BASEPRI,r0
        0x08003844:    f3bf8f4f    ..O.    DSB      
        0x08003848:    f3bf8f6f    ..o.    ISB      
        0x0800384c:    bf00        ..      NOP      
        0x0800384e:    bf00        ..      NOP      
        0x08003850:    e7fe        ..      B        0x8003850 ; vPortFree + 52
        0x08003852:    6820         h      LDR      r0,[r4,#0]
        0x08003854:    b908        ..      CBNZ     r0,0x800385a ; vPortFree + 62
        0x08003856:    2001        .       MOVS     r0,#1
        0x08003858:    e000        ..      B        0x800385c ; vPortFree + 64
        0x0800385a:    2000        .       MOVS     r0,#0
        0x0800385c:    b950        P.      CBNZ     r0,0x8003874 ; vPortFree + 88
        0x0800385e:    bf00        ..      NOP      
        0x08003860:    2050        P       MOVS     r0,#0x50
        0x08003862:    f3808811    ....    MSR      BASEPRI,r0
        0x08003866:    f3bf8f4f    ..O.    DSB      
        0x0800386a:    f3bf8f6f    ..o.    ISB      
        0x0800386e:    bf00        ..      NOP      
        0x08003870:    bf00        ..      NOP      
        0x08003872:    e7fe        ..      B        0x8003872 ; vPortFree + 86
        0x08003874:    490f        .I      LDR      r1,[pc,#60] ; [0x80038b4] = 0x20000084
        0x08003876:    6860        `h      LDR      r0,[r4,#4]
        0x08003878:    6809        .h      LDR      r1,[r1,#0]
        0x0800387a:    4008        .@      ANDS     r0,r0,r1
        0x0800387c:    b1c0        ..      CBZ      r0,0x80038b0 ; vPortFree + 148
        0x0800387e:    6820         h      LDR      r0,[r4,#0]
        0x08003880:    b9b0        ..      CBNZ     r0,0x80038b0 ; vPortFree + 148
        0x08003882:    490c        .I      LDR      r1,[pc,#48] ; [0x80038b4] = 0x20000084
        0x08003884:    6860        `h      LDR      r0,[r4,#4]
        0x08003886:    6809        .h      LDR      r1,[r1,#0]
        0x08003888:    4388        .C      BICS     r0,r0,r1
        0x0800388a:    6060        ``      STR      r0,[r4,#4]
        0x0800388c:    f000fa12    ....    BL       vTaskSuspendAll ; 0x8003cb4
        0x08003890:    4909        .I      LDR      r1,[pc,#36] ; [0x80038b8] = 0x20000074
        0x08003892:    6860        `h      LDR      r0,[r4,#4]
        0x08003894:    6809        .h      LDR      r1,[r1,#0]
        0x08003896:    4408        .D      ADD      r0,r0,r1
        0x08003898:    4907        .I      LDR      r1,[pc,#28] ; [0x80038b8] = 0x20000074
        0x0800389a:    6008        .`      STR      r0,[r1,#0]
        0x0800389c:    4620         F      MOV      r0,r4
        0x0800389e:    f7fffba1    ....    BL       prvInsertBlockIntoFreeList ; 0x8002fe4
        0x080038a2:    4806        .H      LDR      r0,[pc,#24] ; [0x80038bc] = 0x20000080
        0x080038a4:    6800        .h      LDR      r0,[r0,#0]
        0x080038a6:    1c40        @.      ADDS     r0,r0,#1
        0x080038a8:    4904        .I      LDR      r1,[pc,#16] ; [0x80038bc] = 0x20000080
        0x080038aa:    6008        .`      STR      r0,[r1,#0]
        0x080038ac:    f001f83c    ..<.    BL       xTaskResumeAll ; 0x8004928
        0x080038b0:    bd70        p.      POP      {r4-r6,pc}
    $d
        0x080038b2:    0000        ..      DCW    0
        0x080038b4:    20000084    ...     DCD    536871044
        0x080038b8:    20000074    t..     DCD    536871028
        0x080038bc:    20000080    ...     DCD    536871040
    $t
    i.vPortSetupTimerInterrupt
    vPortSetupTimerInterrupt
        0x080038c0:    2000        .       MOVS     r0,#0
        0x080038c2:    f04f21e0    O..!    MOV      r1,#0xe000e000
        0x080038c6:    6108        .a      STR      r0,[r1,#0x10]
        0x080038c8:    6188        .a      STR      r0,[r1,#0x18]
        0x080038ca:    4806        .H      LDR      r0,[pc,#24] ; [0x80038e4] = 0x20000010
        0x080038cc:    6800        .h      LDR      r0,[r0,#0]
        0x080038ce:    f44f717a    O.zq    MOV      r1,#0x3e8
        0x080038d2:    fbb0f0f1    ....    UDIV     r0,r0,r1
        0x080038d6:    1e40        @.      SUBS     r0,r0,#1
        0x080038d8:    f04f21e0    O..!    MOV      r1,#0xe000e000
        0x080038dc:    6148        Ha      STR      r0,[r1,#0x14]
        0x080038de:    2007        .       MOVS     r0,#7
        0x080038e0:    6108        .a      STR      r0,[r1,#0x10]
        0x080038e2:    4770        pG      BX       lr
    $d
        0x080038e4:    20000010    ...     DCD    536870928
    $t
    i.vPortValidateInterruptPriority
    vPortValidateInterruptPriority
        0x080038e8:    b570        p.      PUSH     {r4-r6,lr}
        0x080038ea:    f7fcfcbd    ....    BL       vPortGetIPSR ; 0x8000268
        0x080038ee:    4604        .F      MOV      r4,r0
        0x080038f0:    2c10        .,      CMP      r4,#0x10
        0x080038f2:    d316        ..      BCC      0x8003922 ; vPortValidateInterruptPriority + 58
        0x080038f4:    f10420e0    ...     ADD      r0,r4,#0xe000e000
        0x080038f8:    f89053f0    ...S    LDRB     r5,[r0,#0x3f0]
        0x080038fc:    4815        .H      LDR      r0,[pc,#84] ; [0x8003954] = 0x2000008c
        0x080038fe:    7800        .x      LDRB     r0,[r0,#0]
        0x08003900:    4285        .B      CMP      r5,r0
        0x08003902:    db01        ..      BLT      0x8003908 ; vPortValidateInterruptPriority + 32
        0x08003904:    2001        .       MOVS     r0,#1
        0x08003906:    e000        ..      B        0x800390a ; vPortValidateInterruptPriority + 34
        0x08003908:    2000        .       MOVS     r0,#0
        0x0800390a:    b950        P.      CBNZ     r0,0x8003922 ; vPortValidateInterruptPriority + 58
        0x0800390c:    bf00        ..      NOP      
        0x0800390e:    2050        P       MOVS     r0,#0x50
        0x08003910:    f3808811    ....    MSR      BASEPRI,r0
        0x08003914:    f3bf8f4f    ..O.    DSB      
        0x08003918:    f3bf8f6f    ..o.    ISB      
        0x0800391c:    bf00        ..      NOP      
        0x0800391e:    bf00        ..      NOP      
        0x08003920:    e7fe        ..      B        0x8003920 ; vPortValidateInterruptPriority + 56
        0x08003922:    480d        .H      LDR      r0,[pc,#52] ; [0x8003958] = 0xe000ed0c
        0x08003924:    6800        .h      LDR      r0,[r0,#0]
        0x08003926:    f40060e0    ...`    AND      r0,r0,#0x700
        0x0800392a:    490c        .I      LDR      r1,[pc,#48] ; [0x800395c] = 0x20000090
        0x0800392c:    6809        .h      LDR      r1,[r1,#0]
        0x0800392e:    4288        .B      CMP      r0,r1
        0x08003930:    d801        ..      BHI      0x8003936 ; vPortValidateInterruptPriority + 78
        0x08003932:    2001        .       MOVS     r0,#1
        0x08003934:    e000        ..      B        0x8003938 ; vPortValidateInterruptPriority + 80
        0x08003936:    2000        .       MOVS     r0,#0
        0x08003938:    b950        P.      CBNZ     r0,0x8003950 ; vPortValidateInterruptPriority + 104
        0x0800393a:    bf00        ..      NOP      
        0x0800393c:    2050        P       MOVS     r0,#0x50
        0x0800393e:    f3808811    ....    MSR      BASEPRI,r0
        0x08003942:    f3bf8f4f    ..O.    DSB      
        0x08003946:    f3bf8f6f    ..o.    ISB      
        0x0800394a:    bf00        ..      NOP      
        0x0800394c:    bf00        ..      NOP      
        0x0800394e:    e7fe        ..      B        0x800394e ; vPortValidateInterruptPriority + 102
        0x08003950:    bd70        p.      POP      {r4-r6,pc}
    $d
        0x08003952:    0000        ..      DCW    0
        0x08003954:    2000008c    ...     DCD    536871052
        0x08003958:    e000ed0c    ....    DCD    3758157068
        0x0800395c:    20000090    ...     DCD    536871056
    $t
    i.vQueueAddToRegistry
    vQueueAddToRegistry
        0x08003960:    4602        .F      MOV      r2,r0
        0x08003962:    2000        .       MOVS     r0,#0
        0x08003964:    e00b        ..      B        0x800397e ; vQueueAddToRegistry + 30
        0x08003966:    4b08        .K      LDR      r3,[pc,#32] ; [0x8003988] = 0x20000178
        0x08003968:    f8533030    S.00    LDR      r3,[r3,r0,LSL #3]
        0x0800396c:    b933        3.      CBNZ     r3,0x800397c ; vQueueAddToRegistry + 28
        0x0800396e:    4b06        .K      LDR      r3,[pc,#24] ; [0x8003988] = 0x20000178
        0x08003970:    f8431030    C.0.    STR      r1,[r3,r0,LSL #3]
        0x08003974:    eb0303c0    ....    ADD      r3,r3,r0,LSL #3
        0x08003978:    605a        Z`      STR      r2,[r3,#4]
        0x0800397a:    e002        ..      B        0x8003982 ; vQueueAddToRegistry + 34
        0x0800397c:    1c40        @.      ADDS     r0,r0,#1
        0x0800397e:    2808        .(      CMP      r0,#8
        0x08003980:    d3f1        ..      BCC      0x8003966 ; vQueueAddToRegistry + 6
        0x08003982:    bf00        ..      NOP      
        0x08003984:    4770        pG      BX       lr
    $d
        0x08003986:    0000        ..      DCW    0
        0x08003988:    20000178    x..     DCD    536871288
    $t
    i.vQueueDelete
    vQueueDelete
        0x0800398c:    b570        p.      PUSH     {r4-r6,lr}
        0x0800398e:    4604        .F      MOV      r4,r0
        0x08003990:    4625        %F      MOV      r5,r4
        0x08003992:    b955        U.      CBNZ     r5,0x80039aa ; vQueueDelete + 30
        0x08003994:    bf00        ..      NOP      
        0x08003996:    2050        P       MOVS     r0,#0x50
        0x08003998:    f3808811    ....    MSR      BASEPRI,r0
        0x0800399c:    f3bf8f4f    ..O.    DSB      
        0x080039a0:    f3bf8f6f    ..o.    ISB      
        0x080039a4:    bf00        ..      NOP      
        0x080039a6:    bf00        ..      NOP      
        0x080039a8:    e7fe        ..      B        0x80039a8 ; vQueueDelete + 28
        0x080039aa:    4628        (F      MOV      r0,r5
        0x080039ac:    f000f808    ....    BL       vQueueUnregisterQueue ; 0x80039c0
        0x080039b0:    f8950046    ..F.    LDRB     r0,[r5,#0x46]
        0x080039b4:    b910        ..      CBNZ     r0,0x80039bc ; vQueueDelete + 48
        0x080039b6:    4628        (F      MOV      r0,r5
        0x080039b8:    f7ffff30    ..0.    BL       vPortFree ; 0x800381c
        0x080039bc:    bd70        p.      POP      {r4-r6,pc}
        0x080039be:    0000        ..      MOVS     r0,r0
    i.vQueueUnregisterQueue
    vQueueUnregisterQueue
        0x080039c0:    4601        .F      MOV      r1,r0
        0x080039c2:    2000        .       MOVS     r0,#0
        0x080039c4:    e00e        ..      B        0x80039e4 ; vQueueUnregisterQueue + 36
        0x080039c6:    4a09        .J      LDR      r2,[pc,#36] ; [0x80039ec] = 0x20000178
        0x080039c8:    eb0202c0    ....    ADD      r2,r2,r0,LSL #3
        0x080039cc:    6852        Rh      LDR      r2,[r2,#4]
        0x080039ce:    428a        .B      CMP      r2,r1
        0x080039d0:    d107        ..      BNE      0x80039e2 ; vQueueUnregisterQueue + 34
        0x080039d2:    2200        ."      MOVS     r2,#0
        0x080039d4:    4b05        .K      LDR      r3,[pc,#20] ; [0x80039ec] = 0x20000178
        0x080039d6:    f8432030    C.0     STR      r2,[r3,r0,LSL #3]
        0x080039da:    eb0303c0    ....    ADD      r3,r3,r0,LSL #3
        0x080039de:    605a        Z`      STR      r2,[r3,#4]
        0x080039e0:    e002        ..      B        0x80039e8 ; vQueueUnregisterQueue + 40
        0x080039e2:    1c40        @.      ADDS     r0,r0,#1
        0x080039e4:    2808        .(      CMP      r0,#8
        0x080039e6:    d3ee        ..      BCC      0x80039c6 ; vQueueUnregisterQueue + 6
        0x080039e8:    bf00        ..      NOP      
        0x080039ea:    4770        pG      BX       lr
    $d
        0x080039ec:    20000178    x..     DCD    536871288
    $t
    i.vQueueWaitForMessageRestricted
    vQueueWaitForMessageRestricted
        0x080039f0:    e92d41f0    -..A    PUSH     {r4-r8,lr}
        0x080039f4:    4605        .F      MOV      r5,r0
        0x080039f6:    460e        .F      MOV      r6,r1
        0x080039f8:    4617        .F      MOV      r7,r2
        0x080039fa:    462c        ,F      MOV      r4,r5
        0x080039fc:    f7fffec6    ....    BL       vPortEnterCritical ; 0x800378c
        0x08003a00:    f9940044    ..D.    LDRSB    r0,[r4,#0x44]
        0x08003a04:    1c40        @.      ADDS     r0,r0,#1
        0x08003a06:    b910        ..      CBNZ     r0,0x8003a0e ; vQueueWaitForMessageRestricted + 30
        0x08003a08:    2000        .       MOVS     r0,#0
        0x08003a0a:    f8840044    ..D.    STRB     r0,[r4,#0x44]
        0x08003a0e:    f9940045    ..E.    LDRSB    r0,[r4,#0x45]
        0x08003a12:    1c40        @.      ADDS     r0,r0,#1
        0x08003a14:    b910        ..      CBNZ     r0,0x8003a1c ; vQueueWaitForMessageRestricted + 44
        0x08003a16:    2000        .       MOVS     r0,#0
        0x08003a18:    f8840045    ..E.    STRB     r0,[r4,#0x45]
        0x08003a1c:    f7fffee0    ....    BL       vPortExitCritical ; 0x80037e0
        0x08003a20:    6ba0        .k      LDR      r0,[r4,#0x38]
        0x08003a22:    b928        (.      CBNZ     r0,0x8003a30 ; vQueueWaitForMessageRestricted + 64
        0x08003a24:    463a        :F      MOV      r2,r7
        0x08003a26:    4631        1F      MOV      r1,r6
        0x08003a28:    f1040024    ..$.    ADD      r0,r4,#0x24
        0x08003a2c:    f000f8c6    ....    BL       vTaskPlaceOnEventListRestricted ; 0x8003bbc
        0x08003a30:    4620         F      MOV      r0,r4
        0x08003a32:    f7fffd28    ..(.    BL       prvUnlockQueue ; 0x8003486
        0x08003a36:    e8bd81f0    ....    POP      {r4-r8,pc}
        0x08003a3a:    0000        ..      MOVS     r0,r0
    i.vTaskDelay
    vTaskDelay
        0x08003a3c:    b570        p.      PUSH     {r4-r6,lr}
        0x08003a3e:    4604        .F      MOV      r4,r0
        0x08003a40:    2500        .%      MOVS     r5,#0
        0x08003a42:    b1d4        ..      CBZ      r4,0x8003a7a ; vTaskDelay + 62
        0x08003a44:    4812        .H      LDR      r0,[pc,#72] ; [0x8003a90] = 0x2000004c
        0x08003a46:    6800        .h      LDR      r0,[r0,#0]
        0x08003a48:    b908        ..      CBNZ     r0,0x8003a4e ; vTaskDelay + 18
        0x08003a4a:    2001        .       MOVS     r0,#1
        0x08003a4c:    e000        ..      B        0x8003a50 ; vTaskDelay + 20
        0x08003a4e:    2000        .       MOVS     r0,#0
        0x08003a50:    b950        P.      CBNZ     r0,0x8003a68 ; vTaskDelay + 44
        0x08003a52:    bf00        ..      NOP      
        0x08003a54:    2050        P       MOVS     r0,#0x50
        0x08003a56:    f3808811    ....    MSR      BASEPRI,r0
        0x08003a5a:    f3bf8f4f    ..O.    DSB      
        0x08003a5e:    f3bf8f6f    ..o.    ISB      
        0x08003a62:    bf00        ..      NOP      
        0x08003a64:    bf00        ..      NOP      
        0x08003a66:    e7fe        ..      B        0x8003a66 ; vTaskDelay + 42
        0x08003a68:    f000f924    ..$.    BL       vTaskSuspendAll ; 0x8003cb4
        0x08003a6c:    2100        .!      MOVS     r1,#0
        0x08003a6e:    4620         F      MOV      r0,r4
        0x08003a70:    f7fff836    ..6.    BL       prvAddCurrentTaskToDelayedList ; 0x8002ae0
        0x08003a74:    f000ff58    ..X.    BL       xTaskResumeAll ; 0x8004928
        0x08003a78:    4605        .F      MOV      r5,r0
        0x08003a7a:    b93d        =.      CBNZ     r5,0x8003a8c ; vTaskDelay + 80
        0x08003a7c:    f04f5080    O..P    MOV      r0,#0x10000000
        0x08003a80:    4904        .I      LDR      r1,[pc,#16] ; [0x8003a94] = 0xe000ed04
        0x08003a82:    6008        .`      STR      r0,[r1,#0]
        0x08003a84:    f3bf8f4f    ..O.    DSB      
        0x08003a88:    f3bf8f6f    ..o.    ISB      
        0x08003a8c:    bd70        p.      POP      {r4-r6,pc}
    $d
        0x08003a8e:    0000        ..      DCW    0
        0x08003a90:    2000004c    L..     DCD    536870988
        0x08003a94:    e000ed04    ....    DCD    3758157060
    $t
    i.vTaskDelete
    vTaskDelete
        0x08003a98:    b570        p.      PUSH     {r4-r6,lr}
        0x08003a9a:    4605        .F      MOV      r5,r0
        0x08003a9c:    f7fffe76    ..v.    BL       vPortEnterCritical ; 0x800378c
        0x08003aa0:    b915        ..      CBNZ     r5,0x8003aa8 ; vTaskDelete + 16
        0x08003aa2:    4827        'H      LDR      r0,[pc,#156] ; [0x8003b40] = 0x20000014
        0x08003aa4:    6800        .h      LDR      r0,[r0,#0]
        0x08003aa6:    e000        ..      B        0x8003aaa ; vTaskDelete + 18
        0x08003aa8:    4628        (F      MOV      r0,r5
        0x08003aaa:    4604        .F      MOV      r4,r0
        0x08003aac:    1d20         .      ADDS     r0,r4,#4
        0x08003aae:    f7fffe0a    ....    BL       uxListRemove ; 0x80036c6
        0x08003ab2:    6aa0        .j      LDR      r0,[r4,#0x28]
        0x08003ab4:    b118        ..      CBZ      r0,0x8003abe ; vTaskDelete + 38
        0x08003ab6:    f1040018    ....    ADD      r0,r4,#0x18
        0x08003aba:    f7fffe04    ....    BL       uxListRemove ; 0x80036c6
        0x08003abe:    4821        !H      LDR      r0,[pc,#132] ; [0x8003b44] = 0x20000040
        0x08003ac0:    6800        .h      LDR      r0,[r0,#0]
        0x08003ac2:    1c40        @.      ADDS     r0,r0,#1
        0x08003ac4:    491f        .I      LDR      r1,[pc,#124] ; [0x8003b44] = 0x20000040
        0x08003ac6:    6008        .`      STR      r0,[r1,#0]
        0x08003ac8:    481d        .H      LDR      r0,[pc,#116] ; [0x8003b40] = 0x20000014
        0x08003aca:    6800        .h      LDR      r0,[r0,#0]
        0x08003acc:    4284        .B      CMP      r4,r0
        0x08003ace:    d109        ..      BNE      0x8003ae4 ; vTaskDelete + 76
        0x08003ad0:    1d21        !.      ADDS     r1,r4,#4
        0x08003ad2:    481d        .H      LDR      r0,[pc,#116] ; [0x8003b48] = 0x20000654
        0x08003ad4:    f7fffe4e    ..N.    BL       vListInsertEnd ; 0x8003774
        0x08003ad8:    481c        .H      LDR      r0,[pc,#112] ; [0x8003b4c] = 0x20000020
        0x08003ada:    6800        .h      LDR      r0,[r0,#0]
        0x08003adc:    1c40        @.      ADDS     r0,r0,#1
        0x08003ade:    491b        .I      LDR      r1,[pc,#108] ; [0x8003b4c] = 0x20000020
        0x08003ae0:    6008        .`      STR      r0,[r1,#0]
        0x08003ae2:    e009        ..      B        0x8003af8 ; vTaskDelete + 96
        0x08003ae4:    481a        .H      LDR      r0,[pc,#104] ; [0x8003b50] = 0x20000024
        0x08003ae6:    6800        .h      LDR      r0,[r0,#0]
        0x08003ae8:    1e40        @.      SUBS     r0,r0,#1
        0x08003aea:    4919        .I      LDR      r1,[pc,#100] ; [0x8003b50] = 0x20000024
        0x08003aec:    6008        .`      STR      r0,[r1,#0]
        0x08003aee:    4620         F      MOV      r0,r4
        0x08003af0:    f7fff942    ..B.    BL       prvDeleteTCB ; 0x8002d78
        0x08003af4:    f7fffc18    ....    BL       prvResetNextTaskUnblockTime ; 0x8003328
        0x08003af8:    f7fffe72    ..r.    BL       vPortExitCritical ; 0x80037e0
        0x08003afc:    4815        .H      LDR      r0,[pc,#84] ; [0x8003b54] = 0x20000030
        0x08003afe:    6800        .h      LDR      r0,[r0,#0]
        0x08003b00:    b1e8        ..      CBZ      r0,0x8003b3e ; vTaskDelete + 166
        0x08003b02:    480f        .H      LDR      r0,[pc,#60] ; [0x8003b40] = 0x20000014
        0x08003b04:    6800        .h      LDR      r0,[r0,#0]
        0x08003b06:    4284        .B      CMP      r4,r0
        0x08003b08:    d119        ..      BNE      0x8003b3e ; vTaskDelete + 166
        0x08003b0a:    4813        .H      LDR      r0,[pc,#76] ; [0x8003b58] = 0x2000004c
        0x08003b0c:    6800        .h      LDR      r0,[r0,#0]
        0x08003b0e:    b908        ..      CBNZ     r0,0x8003b14 ; vTaskDelete + 124
        0x08003b10:    2001        .       MOVS     r0,#1
        0x08003b12:    e000        ..      B        0x8003b16 ; vTaskDelete + 126
        0x08003b14:    2000        .       MOVS     r0,#0
        0x08003b16:    b950        P.      CBNZ     r0,0x8003b2e ; vTaskDelete + 150
        0x08003b18:    bf00        ..      NOP      
        0x08003b1a:    2050        P       MOVS     r0,#0x50
        0x08003b1c:    f3808811    ....    MSR      BASEPRI,r0
        0x08003b20:    f3bf8f4f    ..O.    DSB      
        0x08003b24:    f3bf8f6f    ..o.    ISB      
        0x08003b28:    bf00        ..      NOP      
        0x08003b2a:    bf00        ..      NOP      
        0x08003b2c:    e7fe        ..      B        0x8003b2c ; vTaskDelete + 148
        0x08003b2e:    f04f5080    O..P    MOV      r0,#0x10000000
        0x08003b32:    490a        .I      LDR      r1,[pc,#40] ; [0x8003b5c] = 0xe000ed04
        0x08003b34:    6008        .`      STR      r0,[r1,#0]
        0x08003b36:    f3bf8f4f    ..O.    DSB      
        0x08003b3a:    f3bf8f6f    ..o.    ISB      
        0x08003b3e:    bd70        p.      POP      {r4-r6,pc}
    $d
        0x08003b40:    20000014    ...     DCD    536870932
        0x08003b44:    20000040    @..     DCD    536870976
        0x08003b48:    20000654    T..     DCD    536872532
        0x08003b4c:    20000020     ..     DCD    536870944
        0x08003b50:    20000024    $..     DCD    536870948
        0x08003b54:    20000030    0..     DCD    536870960
        0x08003b58:    2000004c    L..     DCD    536870988
        0x08003b5c:    e000ed04    ....    DCD    3758157060
    $t
    i.vTaskInternalSetTimeOutState
    vTaskInternalSetTimeOutState
        0x08003b60:    4903        .I      LDR      r1,[pc,#12] ; [0x8003b70] = 0x2000003c
        0x08003b62:    6809        .h      LDR      r1,[r1,#0]
        0x08003b64:    6001        .`      STR      r1,[r0,#0]
        0x08003b66:    4903        .I      LDR      r1,[pc,#12] ; [0x8003b74] = 0x20000028
        0x08003b68:    6809        .h      LDR      r1,[r1,#0]
        0x08003b6a:    6041        A`      STR      r1,[r0,#4]
        0x08003b6c:    4770        pG      BX       lr
    $d
        0x08003b6e:    0000        ..      DCW    0
        0x08003b70:    2000003c    <..     DCD    536870972
        0x08003b74:    20000028    (..     DCD    536870952
    $t
    i.vTaskMissedYield
    vTaskMissedYield
        0x08003b78:    2001        .       MOVS     r0,#1
        0x08003b7a:    4901        .I      LDR      r1,[pc,#4] ; [0x8003b80] = 0x20000038
        0x08003b7c:    6008        .`      STR      r0,[r1,#0]
        0x08003b7e:    4770        pG      BX       lr
    $d
        0x08003b80:    20000038    8..     DCD    536870968
    $t
    i.vTaskPlaceOnEventList
    vTaskPlaceOnEventList
        0x08003b84:    b570        p.      PUSH     {r4-r6,lr}
        0x08003b86:    4604        .F      MOV      r4,r0
        0x08003b88:    460d        .F      MOV      r5,r1
        0x08003b8a:    b954        T.      CBNZ     r4,0x8003ba2 ; vTaskPlaceOnEventList + 30
        0x08003b8c:    bf00        ..      NOP      
        0x08003b8e:    2050        P       MOVS     r0,#0x50
        0x08003b90:    f3808811    ....    MSR      BASEPRI,r0
        0x08003b94:    f3bf8f4f    ..O.    DSB      
        0x08003b98:    f3bf8f6f    ..o.    ISB      
        0x08003b9c:    bf00        ..      NOP      
        0x08003b9e:    bf00        ..      NOP      
        0x08003ba0:    e7fe        ..      B        0x8003ba0 ; vTaskPlaceOnEventList + 28
        0x08003ba2:    4805        .H      LDR      r0,[pc,#20] ; [0x8003bb8] = 0x20000014
        0x08003ba4:    6801        .h      LDR      r1,[r0,#0]
        0x08003ba6:    3118        .1      ADDS     r1,r1,#0x18
        0x08003ba8:    4620         F      MOV      r0,r4
        0x08003baa:    f7fffdc9    ....    BL       vListInsert ; 0x8003740
        0x08003bae:    2101        .!      MOVS     r1,#1
        0x08003bb0:    4628        (F      MOV      r0,r5
        0x08003bb2:    f7feff95    ....    BL       prvAddCurrentTaskToDelayedList ; 0x8002ae0
        0x08003bb6:    bd70        p.      POP      {r4-r6,pc}
    $d
        0x08003bb8:    20000014    ...     DCD    536870932
    $t
    i.vTaskPlaceOnEventListRestricted
    vTaskPlaceOnEventListRestricted
        0x08003bbc:    b570        p.      PUSH     {r4-r6,lr}
        0x08003bbe:    4605        .F      MOV      r5,r0
        0x08003bc0:    460e        .F      MOV      r6,r1
        0x08003bc2:    4614        .F      MOV      r4,r2
        0x08003bc4:    b955        U.      CBNZ     r5,0x8003bdc ; vTaskPlaceOnEventListRestricted + 32
        0x08003bc6:    bf00        ..      NOP      
        0x08003bc8:    2050        P       MOVS     r0,#0x50
        0x08003bca:    f3808811    ....    MSR      BASEPRI,r0
        0x08003bce:    f3bf8f4f    ..O.    DSB      
        0x08003bd2:    f3bf8f6f    ..o.    ISB      
        0x08003bd6:    bf00        ..      NOP      
        0x08003bd8:    bf00        ..      NOP      
        0x08003bda:    e7fe        ..      B        0x8003bda ; vTaskPlaceOnEventListRestricted + 30
        0x08003bdc:    4806        .H      LDR      r0,[pc,#24] ; [0x8003bf8] = 0x20000014
        0x08003bde:    6801        .h      LDR      r1,[r0,#0]
        0x08003be0:    3118        .1      ADDS     r1,r1,#0x18
        0x08003be2:    4628        (F      MOV      r0,r5
        0x08003be4:    f7fffdc6    ....    BL       vListInsertEnd ; 0x8003774
        0x08003be8:    b10c        ..      CBZ      r4,0x8003bee ; vTaskPlaceOnEventListRestricted + 50
        0x08003bea:    f04f36ff    O..6    MOV      r6,#0xffffffff
        0x08003bee:    4621        !F      MOV      r1,r4
        0x08003bf0:    4630        0F      MOV      r0,r6
        0x08003bf2:    f7feff75    ..u.    BL       prvAddCurrentTaskToDelayedList ; 0x8002ae0
        0x08003bf6:    bd70        p.      POP      {r4-r6,pc}
    $d
        0x08003bf8:    20000014    ...     DCD    536870932
    $t
    i.vTaskStartScheduler
    vTaskStartScheduler
        0x08003bfc:    b510        ..      PUSH     {r4,lr}
        0x08003bfe:    b086        ..      SUB      sp,sp,#0x18
        0x08003c00:    2000        .       MOVS     r0,#0
        0x08003c02:    9005        ..      STR      r0,[sp,#0x14]
        0x08003c04:    9004        ..      STR      r0,[sp,#0x10]
        0x08003c06:    aa03        ..      ADD      r2,sp,#0xc
        0x08003c08:    a904        ..      ADD      r1,sp,#0x10
        0x08003c0a:    a805        ..      ADD      r0,sp,#0x14
        0x08003c0c:    f7fffd70    ..p.    BL       vApplicationGetIdleTaskMemory ; 0x80036f0
        0x08003c10:    2200        ."      MOVS     r2,#0
        0x08003c12:    e9dd1004    ....    LDRD     r1,r0,[sp,#0x10]
        0x08003c16:    4613        .F      MOV      r3,r2
        0x08003c18:    e9cd2100    ...!    STRD     r2,r1,[sp,#0]
        0x08003c1c:    9002        ..      STR      r0,[sp,#8]
        0x08003c1e:    a11e        ..      ADR      r1,{pc}+0x7a ; 0x8003c98
        0x08003c20:    481f        .H      LDR      r0,[pc,#124] ; [0x8003ca0] = 0x8002e6d
        0x08003c22:    9a03        ..      LDR      r2,[sp,#0xc]
        0x08003c24:    f000fccc    ....    BL       xTaskCreateStatic ; 0x80045c0
        0x08003c28:    491e        .I      LDR      r1,[pc,#120] ; [0x8003ca4] = 0x20000048
        0x08003c2a:    6008        .`      STR      r0,[r1,#0]
        0x08003c2c:    4608        .F      MOV      r0,r1
        0x08003c2e:    6800        .h      LDR      r0,[r0,#0]
        0x08003c30:    b108        ..      CBZ      r0,0x8003c36 ; vTaskStartScheduler + 58
        0x08003c32:    2401        .$      MOVS     r4,#1
        0x08003c34:    e000        ..      B        0x8003c38 ; vTaskStartScheduler + 60
        0x08003c36:    2400        .$      MOVS     r4,#0
        0x08003c38:    2c01        .,      CMP      r4,#1
        0x08003c3a:    d102        ..      BNE      0x8003c42 ; vTaskStartScheduler + 70
        0x08003c3c:    f000fef6    ....    BL       xTimerCreateTimerTask ; 0x8004a2c
        0x08003c40:    4604        .F      MOV      r4,r0
        0x08003c42:    2c01        .,      CMP      r4,#1
        0x08003c44:    d115        ..      BNE      0x8003c72 ; vTaskStartScheduler + 118
        0x08003c46:    bf00        ..      NOP      
        0x08003c48:    2050        P       MOVS     r0,#0x50
        0x08003c4a:    f3808811    ....    MSR      BASEPRI,r0
        0x08003c4e:    f3bf8f4f    ..O.    DSB      
        0x08003c52:    f3bf8f6f    ..o.    ISB      
        0x08003c56:    bf00        ..      NOP      
        0x08003c58:    f04f30ff    O..0    MOV      r0,#0xffffffff
        0x08003c5c:    4912        .I      LDR      r1,[pc,#72] ; [0x8003ca8] = 0x20000044
        0x08003c5e:    6008        .`      STR      r0,[r1,#0]
        0x08003c60:    2001        .       MOVS     r0,#1
        0x08003c62:    4912        .I      LDR      r1,[pc,#72] ; [0x8003cac] = 0x20000030
        0x08003c64:    6008        .`      STR      r0,[r1,#0]
        0x08003c66:    2000        .       MOVS     r0,#0
        0x08003c68:    4911        .I      LDR      r1,[pc,#68] ; [0x8003cb0] = 0x20000028
        0x08003c6a:    6008        .`      STR      r0,[r1,#0]
        0x08003c6c:    f000f872    ..r.    BL       xPortStartScheduler ; 0x8003d54
        0x08003c70:    e010        ..      B        0x8003c94 ; vTaskStartScheduler + 152
        0x08003c72:    1c60        `.      ADDS     r0,r4,#1
        0x08003c74:    b108        ..      CBZ      r0,0x8003c7a ; vTaskStartScheduler + 126
        0x08003c76:    2001        .       MOVS     r0,#1
        0x08003c78:    e000        ..      B        0x8003c7c ; vTaskStartScheduler + 128
        0x08003c7a:    2000        .       MOVS     r0,#0
        0x08003c7c:    b950        P.      CBNZ     r0,0x8003c94 ; vTaskStartScheduler + 152
        0x08003c7e:    bf00        ..      NOP      
        0x08003c80:    2050        P       MOVS     r0,#0x50
        0x08003c82:    f3808811    ....    MSR      BASEPRI,r0
        0x08003c86:    f3bf8f4f    ..O.    DSB      
        0x08003c8a:    f3bf8f6f    ..o.    ISB      
        0x08003c8e:    bf00        ..      NOP      
        0x08003c90:    bf00        ..      NOP      
        0x08003c92:    e7fe        ..      B        0x8003c92 ; vTaskStartScheduler + 150
        0x08003c94:    b006        ..      ADD      sp,sp,#0x18
        0x08003c96:    bd10        ..      POP      {r4,pc}
    $d
        0x08003c98:    454c4449    IDLE    DCD    1162626121
        0x08003c9c:    00000000    ....    DCD    0
        0x08003ca0:    08002e6d    m...    DCD    134229613
        0x08003ca4:    20000048    H..     DCD    536870984
        0x08003ca8:    20000044    D..     DCD    536870980
        0x08003cac:    20000030    0..     DCD    536870960
        0x08003cb0:    20000028    (..     DCD    536870952
    $t
    i.vTaskSuspendAll
    vTaskSuspendAll
        0x08003cb4:    4802        .H      LDR      r0,[pc,#8] ; [0x8003cc0] = 0x2000004c
        0x08003cb6:    6800        .h      LDR      r0,[r0,#0]
        0x08003cb8:    1c40        @.      ADDS     r0,r0,#1
        0x08003cba:    4901        .I      LDR      r1,[pc,#4] ; [0x8003cc0] = 0x2000004c
        0x08003cbc:    6008        .`      STR      r0,[r1,#0]
        0x08003cbe:    4770        pG      BX       lr
    $d
        0x08003cc0:    2000004c    L..     DCD    536870988
    $t
    i.vTaskSwitchContext
    vTaskSwitchContext
        0x08003cc4:    481e        .H      LDR      r0,[pc,#120] ; [0x8003d40] = 0x2000004c
        0x08003cc6:    6800        .h      LDR      r0,[r0,#0]
        0x08003cc8:    b118        ..      CBZ      r0,0x8003cd2 ; vTaskSwitchContext + 14
        0x08003cca:    2001        .       MOVS     r0,#1
        0x08003ccc:    491d        .I      LDR      r1,[pc,#116] ; [0x8003d44] = 0x20000038
        0x08003cce:    6008        .`      STR      r0,[r1,#0]
        0x08003cd0:    e034        4.      B        0x8003d3c ; vTaskSwitchContext + 120
        0x08003cd2:    2000        .       MOVS     r0,#0
        0x08003cd4:    491b        .I      LDR      r1,[pc,#108] ; [0x8003d44] = 0x20000038
        0x08003cd6:    6008        .`      STR      r0,[r1,#0]
        0x08003cd8:    481b        .H      LDR      r0,[pc,#108] ; [0x8003d48] = 0x2000002c
        0x08003cda:    6801        .h      LDR      r1,[r0,#0]
        0x08003cdc:    e00c        ..      B        0x8003cf8 ; vTaskSwitchContext + 52
        0x08003cde:    b951        Q.      CBNZ     r1,0x8003cf6 ; vTaskSwitchContext + 50
        0x08003ce0:    bf00        ..      NOP      
        0x08003ce2:    2050        P       MOVS     r0,#0x50
        0x08003ce4:    f3808811    ....    MSR      BASEPRI,r0
        0x08003ce8:    f3bf8f4f    ..O.    DSB      
        0x08003cec:    f3bf8f6f    ..o.    ISB      
        0x08003cf0:    bf00        ..      NOP      
        0x08003cf2:    bf00        ..      NOP      
        0x08003cf4:    e7fe        ..      B        0x8003cf4 ; vTaskSwitchContext + 48
        0x08003cf6:    1e49        I.      SUBS     r1,r1,#1
        0x08003cf8:    eb010081    ....    ADD      r0,r1,r1,LSL #2
        0x08003cfc:    4a13        .J      LDR      r2,[pc,#76] ; [0x8003d4c] = 0x200001b8
        0x08003cfe:    f8520020    R. .    LDR      r0,[r2,r0,LSL #2]
        0x08003d02:    b908        ..      CBNZ     r0,0x8003d08 ; vTaskSwitchContext + 68
        0x08003d04:    2001        .       MOVS     r0,#1
        0x08003d06:    e000        ..      B        0x8003d0a ; vTaskSwitchContext + 70
        0x08003d08:    2000        .       MOVS     r0,#0
        0x08003d0a:    2800        .(      CMP      r0,#0
        0x08003d0c:    d1e7        ..      BNE      0x8003cde ; vTaskSwitchContext + 26
        0x08003d0e:    eb010281    ....    ADD      r2,r1,r1,LSL #2
        0x08003d12:    4b0e        .K      LDR      r3,[pc,#56] ; [0x8003d4c] = 0x200001b8
        0x08003d14:    eb030082    ....    ADD      r0,r3,r2,LSL #2
        0x08003d18:    6842        Bh      LDR      r2,[r0,#4]
        0x08003d1a:    6852        Rh      LDR      r2,[r2,#4]
        0x08003d1c:    6042        B`      STR      r2,[r0,#4]
        0x08003d1e:    f1000208    ....    ADD      r2,r0,#8
        0x08003d22:    6843        Ch      LDR      r3,[r0,#4]
        0x08003d24:    4293        .B      CMP      r3,r2
        0x08003d26:    d102        ..      BNE      0x8003d2e ; vTaskSwitchContext + 106
        0x08003d28:    6842        Bh      LDR      r2,[r0,#4]
        0x08003d2a:    6852        Rh      LDR      r2,[r2,#4]
        0x08003d2c:    6042        B`      STR      r2,[r0,#4]
        0x08003d2e:    6842        Bh      LDR      r2,[r0,#4]
        0x08003d30:    68d2        .h      LDR      r2,[r2,#0xc]
        0x08003d32:    4b07        .K      LDR      r3,[pc,#28] ; [0x8003d50] = 0x20000014
        0x08003d34:    601a        .`      STR      r2,[r3,#0]
        0x08003d36:    4804        .H      LDR      r0,[pc,#16] ; [0x8003d48] = 0x2000002c
        0x08003d38:    6001        .`      STR      r1,[r0,#0]
        0x08003d3a:    bf00        ..      NOP      
        0x08003d3c:    4770        pG      BX       lr
    $d
        0x08003d3e:    0000        ..      DCW    0
        0x08003d40:    2000004c    L..     DCD    536870988
        0x08003d44:    20000038    8..     DCD    536870968
        0x08003d48:    2000002c    ,..     DCD    536870956
        0x08003d4c:    200001b8    ...     DCD    536871352
        0x08003d50:    20000014    ...     DCD    536870932
    $t
    i.xPortStartScheduler
    xPortStartScheduler
        0x08003d54:    b51c        ..      PUSH     {r2-r4,lr}
        0x08003d56:    4852        RH      LDR      r0,[pc,#328] ; [0x8003ea0] = 0xe000ed00
        0x08003d58:    6800        .h      LDR      r0,[r0,#0]
        0x08003d5a:    4952        RI      LDR      r1,[pc,#328] ; [0x8003ea4] = 0x410fc271
        0x08003d5c:    4288        .B      CMP      r0,r1
        0x08003d5e:    d001        ..      BEQ      0x8003d64 ; xPortStartScheduler + 16
        0x08003d60:    2001        .       MOVS     r0,#1
        0x08003d62:    e000        ..      B        0x8003d66 ; xPortStartScheduler + 18
        0x08003d64:    2000        .       MOVS     r0,#0
        0x08003d66:    b950        P.      CBNZ     r0,0x8003d7e ; xPortStartScheduler + 42
        0x08003d68:    bf00        ..      NOP      
        0x08003d6a:    2050        P       MOVS     r0,#0x50
        0x08003d6c:    f3808811    ....    MSR      BASEPRI,r0
        0x08003d70:    f3bf8f4f    ..O.    DSB      
        0x08003d74:    f3bf8f6f    ..o.    ISB      
        0x08003d78:    bf00        ..      NOP      
        0x08003d7a:    bf00        ..      NOP      
        0x08003d7c:    e7fe        ..      B        0x8003d7c ; xPortStartScheduler + 40
        0x08003d7e:    4848        HH      LDR      r0,[pc,#288] ; [0x8003ea0] = 0xe000ed00
        0x08003d80:    6800        .h      LDR      r0,[r0,#0]
        0x08003d82:    4948        HI      LDR      r1,[pc,#288] ; [0x8003ea4] = 0x410fc271
        0x08003d84:    1e49        I.      SUBS     r1,r1,#1
        0x08003d86:    4288        .B      CMP      r0,r1
        0x08003d88:    d001        ..      BEQ      0x8003d8e ; xPortStartScheduler + 58
        0x08003d8a:    2001        .       MOVS     r0,#1
        0x08003d8c:    e000        ..      B        0x8003d90 ; xPortStartScheduler + 60
        0x08003d8e:    2000        .       MOVS     r0,#0
        0x08003d90:    b950        P.      CBNZ     r0,0x8003da8 ; xPortStartScheduler + 84
        0x08003d92:    bf00        ..      NOP      
        0x08003d94:    2050        P       MOVS     r0,#0x50
        0x08003d96:    f3808811    ....    MSR      BASEPRI,r0
        0x08003d9a:    f3bf8f4f    ..O.    DSB      
        0x08003d9e:    f3bf8f6f    ..o.    ISB      
        0x08003da2:    bf00        ..      NOP      
        0x08003da4:    bf00        ..      NOP      
        0x08003da6:    e7fe        ..      B        0x8003da6 ; xPortStartScheduler + 82
        0x08003da8:    493f        ?I      LDR      r1,[pc,#252] ; [0x8003ea8] = 0xe000e400
        0x08003daa:    4608        .F      MOV      r0,r1
        0x08003dac:    7800        .x      LDRB     r0,[r0,#0]
        0x08003dae:    9001        ..      STR      r0,[sp,#4]
        0x08003db0:    20ff        .       MOVS     r0,#0xff
        0x08003db2:    460a        .F      MOV      r2,r1
        0x08003db4:    7010        .p      STRB     r0,[r2,#0]
        0x08003db6:    4608        .F      MOV      r0,r1
        0x08003db8:    7800        .x      LDRB     r0,[r0,#0]
        0x08003dba:    9000        ..      STR      r0,[sp,#0]
        0x08003dbc:    f89d0000    ....    LDRB     r0,[sp,#0]
        0x08003dc0:    f00000f0    ....    AND      r0,r0,#0xf0
        0x08003dc4:    f89d2000    ...     LDRB     r2,[sp,#0]
        0x08003dc8:    4290        .B      CMP      r0,r2
        0x08003dca:    d101        ..      BNE      0x8003dd0 ; xPortStartScheduler + 124
        0x08003dcc:    2001        .       MOVS     r0,#1
        0x08003dce:    e000        ..      B        0x8003dd2 ; xPortStartScheduler + 126
        0x08003dd0:    2000        .       MOVS     r0,#0
        0x08003dd2:    b950        P.      CBNZ     r0,0x8003dea ; xPortStartScheduler + 150
        0x08003dd4:    bf00        ..      NOP      
        0x08003dd6:    2050        P       MOVS     r0,#0x50
        0x08003dd8:    f3808811    ....    MSR      BASEPRI,r0
        0x08003ddc:    f3bf8f4f    ..O.    DSB      
        0x08003de0:    f3bf8f6f    ..o.    ISB      
        0x08003de4:    bf00        ..      NOP      
        0x08003de6:    bf00        ..      NOP      
        0x08003de8:    e7fe        ..      B        0x8003de8 ; xPortStartScheduler + 148
        0x08003dea:    f89d0000    ....    LDRB     r0,[sp,#0]
        0x08003dee:    f0000050    ..P.    AND      r0,r0,#0x50
        0x08003df2:    4a2e        .J      LDR      r2,[pc,#184] ; [0x8003eac] = 0x2000008c
        0x08003df4:    7010        .p      STRB     r0,[r2,#0]
        0x08003df6:    2007        .       MOVS     r0,#7
        0x08003df8:    4a2d        -J      LDR      r2,[pc,#180] ; [0x8003eb0] = 0x20000090
        0x08003dfa:    6010        .`      STR      r0,[r2,#0]
        0x08003dfc:    e009        ..      B        0x8003e12 ; xPortStartScheduler + 190
        0x08003dfe:    482c        ,H      LDR      r0,[pc,#176] ; [0x8003eb0] = 0x20000090
        0x08003e00:    6800        .h      LDR      r0,[r0,#0]
        0x08003e02:    1e40        @.      SUBS     r0,r0,#1
        0x08003e04:    4a2a        *J      LDR      r2,[pc,#168] ; [0x8003eb0] = 0x20000090
        0x08003e06:    6010        .`      STR      r0,[r2,#0]
        0x08003e08:    f89d0000    ....    LDRB     r0,[sp,#0]
        0x08003e0c:    0640        @.      LSLS     r0,r0,#25
        0x08003e0e:    0e00        ..      LSRS     r0,r0,#24
        0x08003e10:    9000        ..      STR      r0,[sp,#0]
        0x08003e12:    f89d0000    ....    LDRB     r0,[sp,#0]
        0x08003e16:    f0000080    ....    AND      r0,r0,#0x80
        0x08003e1a:    2880        .(      CMP      r0,#0x80
        0x08003e1c:    d0ef        ..      BEQ      0x8003dfe ; xPortStartScheduler + 170
        0x08003e1e:    4824        $H      LDR      r0,[pc,#144] ; [0x8003eb0] = 0x20000090
        0x08003e20:    6800        .h      LDR      r0,[r0,#0]
        0x08003e22:    f1c00007    ....    RSB      r0,r0,#7
        0x08003e26:    2804        .(      CMP      r0,#4
        0x08003e28:    d101        ..      BNE      0x8003e2e ; xPortStartScheduler + 218
        0x08003e2a:    2001        .       MOVS     r0,#1
        0x08003e2c:    e000        ..      B        0x8003e30 ; xPortStartScheduler + 220
        0x08003e2e:    2000        .       MOVS     r0,#0
        0x08003e30:    b950        P.      CBNZ     r0,0x8003e48 ; xPortStartScheduler + 244
        0x08003e32:    bf00        ..      NOP      
        0x08003e34:    2050        P       MOVS     r0,#0x50
        0x08003e36:    f3808811    ....    MSR      BASEPRI,r0
        0x08003e3a:    f3bf8f4f    ..O.    DSB      
        0x08003e3e:    f3bf8f6f    ..o.    ISB      
        0x08003e42:    bf00        ..      NOP      
        0x08003e44:    bf00        ..      NOP      
        0x08003e46:    e7fe        ..      B        0x8003e46 ; xPortStartScheduler + 242
        0x08003e48:    4819        .H      LDR      r0,[pc,#100] ; [0x8003eb0] = 0x20000090
        0x08003e4a:    6800        .h      LDR      r0,[r0,#0]
        0x08003e4c:    0200        ..      LSLS     r0,r0,#8
        0x08003e4e:    4a18        .J      LDR      r2,[pc,#96] ; [0x8003eb0] = 0x20000090
        0x08003e50:    6010        .`      STR      r0,[r2,#0]
        0x08003e52:    4610        .F      MOV      r0,r2
        0x08003e54:    8800        ..      LDRH     r0,[r0,#0]
        0x08003e56:    f40060e0    ...`    AND      r0,r0,#0x700
        0x08003e5a:    6010        .`      STR      r0,[r2,#0]
        0x08003e5c:    4a12        .J      LDR      r2,[pc,#72] ; [0x8003ea8] = 0xe000e400
        0x08003e5e:    9801        ..      LDR      r0,[sp,#4]
        0x08003e60:    7010        .p      STRB     r0,[r2,#0]
        0x08003e62:    480f        .H      LDR      r0,[pc,#60] ; [0x8003ea0] = 0xe000ed00
        0x08003e64:    3020         0      ADDS     r0,r0,#0x20
        0x08003e66:    6800        .h      LDR      r0,[r0,#0]
        0x08003e68:    f4400070    @.p.    ORR      r0,r0,#0xf00000
        0x08003e6c:    490c        .I      LDR      r1,[pc,#48] ; [0x8003ea0] = 0xe000ed00
        0x08003e6e:    3120         1      ADDS     r1,r1,#0x20
        0x08003e70:    6008        .`      STR      r0,[r1,#0]
        0x08003e72:    4608        .F      MOV      r0,r1
        0x08003e74:    6800        .h      LDR      r0,[r0,#0]
        0x08003e76:    f0404070    @.p@    ORR      r0,r0,#0xf0000000
        0x08003e7a:    6008        .`      STR      r0,[r1,#0]
        0x08003e7c:    f7fffd20    .. .    BL       vPortSetupTimerInterrupt ; 0x80038c0
        0x08003e80:    2000        .       MOVS     r0,#0
        0x08003e82:    490c        .I      LDR      r1,[pc,#48] ; [0x8003eb4] = 0x20000088
        0x08003e84:    6008        .`      STR      r0,[r1,#0]
        0x08003e86:    f7fcf9b7    ....    BL       __asm___6_port_c_39a90d8d__prvEnableVFP ; 0x80001f8
        0x08003e8a:    480b        .H      LDR      r0,[pc,#44] ; [0x8003eb8] = 0xe000ef34
        0x08003e8c:    6800        .h      LDR      r0,[r0,#0]
        0x08003e8e:    f0404040    @.@@    ORR      r0,r0,#0xc0000000
        0x08003e92:    4909        .I      LDR      r1,[pc,#36] ; [0x8003eb8] = 0xe000ef34
        0x08003e94:    6008        .`      STR      r0,[r1,#0]
        0x08003e96:    f7fcf99b    ....    BL       __asm___6_port_c_39a90d8d__prvStartFirstTask ; 0x80001d0
        0x08003e9a:    2000        .       MOVS     r0,#0
        0x08003e9c:    bd1c        ..      POP      {r2-r4,pc}
    $d
        0x08003e9e:    0000        ..      DCW    0
        0x08003ea0:    e000ed00    ....    DCD    3758157056
        0x08003ea4:    410fc271    q..A    DCD    1091551857
        0x08003ea8:    e000e400    ....    DCD    3758154752
        0x08003eac:    2000008c    ...     DCD    536871052
        0x08003eb0:    20000090    ...     DCD    536871056
        0x08003eb4:    20000088    ...     DCD    536871048
        0x08003eb8:    e000ef34    4...    DCD    3758157620
    $t
    i.xPortSysTickHandler
    xPortSysTickHandler
        0x08003ebc:    b510        ..      PUSH     {r4,lr}
        0x08003ebe:    bf00        ..      NOP      
        0x08003ec0:    2050        P       MOVS     r0,#0x50
        0x08003ec2:    f3808811    ....    MSR      BASEPRI,r0
        0x08003ec6:    f3bf8f4f    ..O.    DSB      
        0x08003eca:    f3bf8f6f    ..o.    ISB      
        0x08003ece:    bf00        ..      NOP      
        0x08003ed0:    f000fbea    ....    BL       xTaskIncrementTick ; 0x80046a8
        0x08003ed4:    b118        ..      CBZ      r0,0x8003ede ; xPortSysTickHandler + 34
        0x08003ed6:    f04f5080    O..P    MOV      r0,#0x10000000
        0x08003eda:    4904        .I      LDR      r1,[pc,#16] ; [0x8003eec] = 0xe000ed04
        0x08003edc:    6008        .`      STR      r0,[r1,#0]
        0x08003ede:    bf00        ..      NOP      
        0x08003ee0:    2000        .       MOVS     r0,#0
        0x08003ee2:    f3808811    ....    MSR      BASEPRI,r0
        0x08003ee6:    bf00        ..      NOP      
        0x08003ee8:    bd10        ..      POP      {r4,pc}
    $d
        0x08003eea:    0000        ..      DCW    0
        0x08003eec:    e000ed04    ....    DCD    3758157060
    $t
    i.xQueueGenericCreate
    xQueueGenericCreate
        0x08003ef0:    e92d43f8    -..C    PUSH     {r3-r9,lr}
        0x08003ef4:    4605        .F      MOV      r5,r0
        0x08003ef6:    460e        .F      MOV      r6,r1
        0x08003ef8:    4617        .F      MOV      r7,r2
        0x08003efa:    b10d        ..      CBZ      r5,0x8003f00 ; xQueueGenericCreate + 16
        0x08003efc:    2001        .       MOVS     r0,#1
        0x08003efe:    e000        ..      B        0x8003f02 ; xQueueGenericCreate + 18
        0x08003f00:    2000        .       MOVS     r0,#0
        0x08003f02:    b950        P.      CBNZ     r0,0x8003f1a ; xQueueGenericCreate + 42
        0x08003f04:    bf00        ..      NOP      
        0x08003f06:    2050        P       MOVS     r0,#0x50
        0x08003f08:    f3808811    ....    MSR      BASEPRI,r0
        0x08003f0c:    f3bf8f4f    ..O.    DSB      
        0x08003f10:    f3bf8f6f    ..o.    ISB      
        0x08003f14:    bf00        ..      NOP      
        0x08003f16:    bf00        ..      NOP      
        0x08003f18:    e7fe        ..      B        0x8003f18 ; xQueueGenericCreate + 40
        0x08003f1a:    fb05f806    ....    MUL      r8,r5,r6
        0x08003f1e:    f1080050    ..P.    ADD      r0,r8,#0x50
        0x08003f22:    f7fffaef    ....    BL       pvPortMalloc ; 0x8003504
        0x08003f26:    4604        .F      MOV      r4,r0
        0x08003f28:    b164        d.      CBZ      r4,0x8003f44 ; xQueueGenericCreate + 84
        0x08003f2a:    46a1        .F      MOV      r9,r4
        0x08003f2c:    f1090950    ..P.    ADD      r9,r9,#0x50
        0x08003f30:    2000        .       MOVS     r0,#0
        0x08003f32:    f8840046    ..F.    STRB     r0,[r4,#0x46]
        0x08003f36:    463b        ;F      MOV      r3,r7
        0x08003f38:    464a        JF      MOV      r2,r9
        0x08003f3a:    4631        1F      MOV      r1,r6
        0x08003f3c:    4628        (F      MOV      r0,r5
        0x08003f3e:    9400        ..      STR      r4,[sp,#0]
        0x08003f40:    f7feffa8    ....    BL       prvInitialiseNewQueue ; 0x8002e94
        0x08003f44:    4620         F      MOV      r0,r4
        0x08003f46:    e8bd83f8    ....    POP      {r3-r9,pc}
    i.xQueueGenericCreateStatic
    xQueueGenericCreateStatic
        0x08003f4a:    e92d43f8    -..C    PUSH     {r3-r9,lr}
        0x08003f4e:    4680        .F      MOV      r8,r0
        0x08003f50:    460e        .F      MOV      r6,r1
        0x08003f52:    4617        .F      MOV      r7,r2
        0x08003f54:    461d        .F      MOV      r5,r3
        0x08003f56:    f8dd9020    .. .    LDR      r9,[sp,#0x20]
        0x08003f5a:    f1b80f00    ....    CMP      r8,#0
        0x08003f5e:    d001        ..      BEQ      0x8003f64 ; xQueueGenericCreateStatic + 26
        0x08003f60:    2001        .       MOVS     r0,#1
        0x08003f62:    e000        ..      B        0x8003f66 ; xQueueGenericCreateStatic + 28
        0x08003f64:    2000        .       MOVS     r0,#0
        0x08003f66:    b950        P.      CBNZ     r0,0x8003f7e ; xQueueGenericCreateStatic + 52
        0x08003f68:    bf00        ..      NOP      
        0x08003f6a:    2050        P       MOVS     r0,#0x50
        0x08003f6c:    f3808811    ....    MSR      BASEPRI,r0
        0x08003f70:    f3bf8f4f    ..O.    DSB      
        0x08003f74:    f3bf8f6f    ..o.    ISB      
        0x08003f78:    bf00        ..      NOP      
        0x08003f7a:    bf00        ..      NOP      
        0x08003f7c:    e7fe        ..      B        0x8003f7c ; xQueueGenericCreateStatic + 50
        0x08003f7e:    b10d        ..      CBZ      r5,0x8003f84 ; xQueueGenericCreateStatic + 58
        0x08003f80:    2001        .       MOVS     r0,#1
        0x08003f82:    e000        ..      B        0x8003f86 ; xQueueGenericCreateStatic + 60
        0x08003f84:    2000        .       MOVS     r0,#0
        0x08003f86:    b950        P.      CBNZ     r0,0x8003f9e ; xQueueGenericCreateStatic + 84
        0x08003f88:    bf00        ..      NOP      
        0x08003f8a:    2050        P       MOVS     r0,#0x50
        0x08003f8c:    f3808811    ....    MSR      BASEPRI,r0
        0x08003f90:    f3bf8f4f    ..O.    DSB      
        0x08003f94:    f3bf8f6f    ..o.    ISB      
        0x08003f98:    bf00        ..      NOP      
        0x08003f9a:    bf00        ..      NOP      
        0x08003f9c:    e7fe        ..      B        0x8003f9c ; xQueueGenericCreateStatic + 82
        0x08003f9e:    b107        ..      CBZ      r7,0x8003fa2 ; xQueueGenericCreateStatic + 88
        0x08003fa0:    b10e        ..      CBZ      r6,0x8003fa6 ; xQueueGenericCreateStatic + 92
        0x08003fa2:    2001        .       MOVS     r0,#1
        0x08003fa4:    e000        ..      B        0x8003fa8 ; xQueueGenericCreateStatic + 94
        0x08003fa6:    2000        .       MOVS     r0,#0
        0x08003fa8:    b950        P.      CBNZ     r0,0x8003fc0 ; xQueueGenericCreateStatic + 118
        0x08003faa:    bf00        ..      NOP      
        0x08003fac:    2050        P       MOVS     r0,#0x50
        0x08003fae:    f3808811    ....    MSR      BASEPRI,r0
        0x08003fb2:    f3bf8f4f    ..O.    DSB      
        0x08003fb6:    f3bf8f6f    ..o.    ISB      
        0x08003fba:    bf00        ..      NOP      
        0x08003fbc:    bf00        ..      NOP      
        0x08003fbe:    e7fe        ..      B        0x8003fbe ; xQueueGenericCreateStatic + 116
        0x08003fc0:    b907        ..      CBNZ     r7,0x8003fc4 ; xQueueGenericCreateStatic + 122
        0x08003fc2:    b90e        ..      CBNZ     r6,0x8003fc8 ; xQueueGenericCreateStatic + 126
        0x08003fc4:    2001        .       MOVS     r0,#1
        0x08003fc6:    e000        ..      B        0x8003fca ; xQueueGenericCreateStatic + 128
        0x08003fc8:    2000        .       MOVS     r0,#0
        0x08003fca:    b950        P.      CBNZ     r0,0x8003fe2 ; xQueueGenericCreateStatic + 152
        0x08003fcc:    bf00        ..      NOP      
        0x08003fce:    2050        P       MOVS     r0,#0x50
        0x08003fd0:    f3808811    ....    MSR      BASEPRI,r0
        0x08003fd4:    f3bf8f4f    ..O.    DSB      
        0x08003fd8:    f3bf8f6f    ..o.    ISB      
        0x08003fdc:    bf00        ..      NOP      
        0x08003fde:    bf00        ..      NOP      
        0x08003fe0:    e7fe        ..      B        0x8003fe0 ; xQueueGenericCreateStatic + 150
        0x08003fe2:    2050        P       MOVS     r0,#0x50
        0x08003fe4:    9000        ..      STR      r0,[sp,#0]
        0x08003fe6:    9800        ..      LDR      r0,[sp,#0]
        0x08003fe8:    2850        P(      CMP      r0,#0x50
        0x08003fea:    d101        ..      BNE      0x8003ff0 ; xQueueGenericCreateStatic + 166
        0x08003fec:    2001        .       MOVS     r0,#1
        0x08003fee:    e000        ..      B        0x8003ff2 ; xQueueGenericCreateStatic + 168
        0x08003ff0:    2000        .       MOVS     r0,#0
        0x08003ff2:    b950        P.      CBNZ     r0,0x800400a ; xQueueGenericCreateStatic + 192
        0x08003ff4:    bf00        ..      NOP      
        0x08003ff6:    2050        P       MOVS     r0,#0x50
        0x08003ff8:    f3808811    ....    MSR      BASEPRI,r0
        0x08003ffc:    f3bf8f4f    ..O.    DSB      
        0x08004000:    f3bf8f6f    ..o.    ISB      
        0x08004004:    bf00        ..      NOP      
        0x08004006:    bf00        ..      NOP      
        0x08004008:    e7fe        ..      B        0x8004008 ; xQueueGenericCreateStatic + 190
        0x0800400a:    bf00        ..      NOP      
        0x0800400c:    462c        ,F      MOV      r4,r5
        0x0800400e:    b14c        L.      CBZ      r4,0x8004024 ; xQueueGenericCreateStatic + 218
        0x08004010:    2001        .       MOVS     r0,#1
        0x08004012:    f8840046    ..F.    STRB     r0,[r4,#0x46]
        0x08004016:    464b        KF      MOV      r3,r9
        0x08004018:    463a        :F      MOV      r2,r7
        0x0800401a:    4631        1F      MOV      r1,r6
        0x0800401c:    4640        @F      MOV      r0,r8
        0x0800401e:    9400        ..      STR      r4,[sp,#0]
        0x08004020:    f7feff38    ..8.    BL       prvInitialiseNewQueue ; 0x8002e94
        0x08004024:    4620         F      MOV      r0,r4
        0x08004026:    e8bd83f8    ....    POP      {r3-r9,pc}
        0x0800402a:    0000        ..      MOVS     r0,r0
    i.xQueueGenericReset
    xQueueGenericReset
        0x0800402c:    b570        p.      PUSH     {r4-r6,lr}
        0x0800402e:    4605        .F      MOV      r5,r0
        0x08004030:    460e        .F      MOV      r6,r1
        0x08004032:    462c        ,F      MOV      r4,r5
        0x08004034:    b954        T.      CBNZ     r4,0x800404c ; xQueueGenericReset + 32
        0x08004036:    bf00        ..      NOP      
        0x08004038:    2050        P       MOVS     r0,#0x50
        0x0800403a:    f3808811    ....    MSR      BASEPRI,r0
        0x0800403e:    f3bf8f4f    ..O.    DSB      
        0x08004042:    f3bf8f6f    ..o.    ISB      
        0x08004046:    bf00        ..      NOP      
        0x08004048:    bf00        ..      NOP      
        0x0800404a:    e7fe        ..      B        0x800404a ; xQueueGenericReset + 30
        0x0800404c:    f7fffb9e    ....    BL       vPortEnterCritical ; 0x800378c
        0x08004050:    e9d4120f    ....    LDRD     r1,r2,[r4,#0x3c]
        0x08004054:    6820         h      LDR      r0,[r4,#0]
        0x08004056:    fb010002    ....    MLA      r0,r1,r2,r0
        0x0800405a:    60a0        .`      STR      r0,[r4,#8]
        0x0800405c:    2000        .       MOVS     r0,#0
        0x0800405e:    63a0        .c      STR      r0,[r4,#0x38]
        0x08004060:    6820         h      LDR      r0,[r4,#0]
        0x08004062:    6060        ``      STR      r0,[r4,#4]
        0x08004064:    6be0        .k      LDR      r0,[r4,#0x3c]
        0x08004066:    1e40        @.      SUBS     r0,r0,#1
        0x08004068:    6c22        "l      LDR      r2,[r4,#0x40]
        0x0800406a:    6821        !h      LDR      r1,[r4,#0]
        0x0800406c:    fb001102    ....    MLA      r1,r0,r2,r1
        0x08004070:    60e1        .`      STR      r1,[r4,#0xc]
        0x08004072:    20ff        .       MOVS     r0,#0xff
        0x08004074:    f8840044    ..D.    STRB     r0,[r4,#0x44]
        0x08004078:    f8840045    ..E.    STRB     r0,[r4,#0x45]
        0x0800407c:    b99e        ..      CBNZ     r6,0x80040a6 ; xQueueGenericReset + 122
        0x0800407e:    6920         i      LDR      r0,[r4,#0x10]
        0x08004080:    b908        ..      CBNZ     r0,0x8004086 ; xQueueGenericReset + 90
        0x08004082:    2001        .       MOVS     r0,#1
        0x08004084:    e000        ..      B        0x8004088 ; xQueueGenericReset + 92
        0x08004086:    2000        .       MOVS     r0,#0
        0x08004088:    b9a8        ..      CBNZ     r0,0x80040b6 ; xQueueGenericReset + 138
        0x0800408a:    f1040010    ....    ADD      r0,r4,#0x10
        0x0800408e:    f000fbff    ....    BL       xTaskRemoveFromEventList ; 0x8004890
        0x08004092:    b180        ..      CBZ      r0,0x80040b6 ; xQueueGenericReset + 138
        0x08004094:    f04f5080    O..P    MOV      r0,#0x10000000
        0x08004098:    4909        .I      LDR      r1,[pc,#36] ; [0x80040c0] = 0xe000ed04
        0x0800409a:    6008        .`      STR      r0,[r1,#0]
        0x0800409c:    f3bf8f4f    ..O.    DSB      
        0x080040a0:    f3bf8f6f    ..o.    ISB      
        0x080040a4:    e007        ..      B        0x80040b6 ; xQueueGenericReset + 138
        0x080040a6:    f1040010    ....    ADD      r0,r4,#0x10
        0x080040aa:    f7fffb39    ..9.    BL       vListInitialise ; 0x8003720
        0x080040ae:    f1040024    ..$.    ADD      r0,r4,#0x24
        0x080040b2:    f7fffb35    ..5.    BL       vListInitialise ; 0x8003720
        0x080040b6:    f7fffb93    ....    BL       vPortExitCritical ; 0x80037e0
        0x080040ba:    2001        .       MOVS     r0,#1
        0x080040bc:    bd70        p.      POP      {r4-r6,pc}
    $d
        0x080040be:    0000        ..      DCW    0
        0x080040c0:    e000ed04    ....    DCD    3758157060
    $t
    i.xQueueGenericSend
    xQueueGenericSend
        0x080040c4:    e92d43ff    -..C    PUSH     {r0-r9,lr}
        0x080040c8:    b083        ..      SUB      sp,sp,#0xc
        0x080040ca:    4606        .F      MOV      r6,r0
        0x080040cc:    4688        .F      MOV      r8,r1
        0x080040ce:    461d        .F      MOV      r5,r3
        0x080040d0:    f04f0900    O...    MOV      r9,#0
        0x080040d4:    4634        4F      MOV      r4,r6
        0x080040d6:    b954        T.      CBNZ     r4,0x80040ee ; xQueueGenericSend + 42
        0x080040d8:    bf00        ..      NOP      
        0x080040da:    2050        P       MOVS     r0,#0x50
        0x080040dc:    f3808811    ....    MSR      BASEPRI,r0
        0x080040e0:    f3bf8f4f    ..O.    DSB      
        0x080040e4:    f3bf8f6f    ..o.    ISB      
        0x080040e8:    bf00        ..      NOP      
        0x080040ea:    bf00        ..      NOP      
        0x080040ec:    e7fe        ..      B        0x80040ec ; xQueueGenericSend + 40
        0x080040ee:    f1b80f00    ....    CMP      r8,#0
        0x080040f2:    d101        ..      BNE      0x80040f8 ; xQueueGenericSend + 52
        0x080040f4:    6c20         l      LDR      r0,[r4,#0x40]
        0x080040f6:    b908        ..      CBNZ     r0,0x80040fc ; xQueueGenericSend + 56
        0x080040f8:    2001        .       MOVS     r0,#1
        0x080040fa:    e000        ..      B        0x80040fe ; xQueueGenericSend + 58
        0x080040fc:    2000        .       MOVS     r0,#0
        0x080040fe:    b950        P.      CBNZ     r0,0x8004116 ; xQueueGenericSend + 82
        0x08004100:    bf00        ..      NOP      
        0x08004102:    2050        P       MOVS     r0,#0x50
        0x08004104:    f3808811    ....    MSR      BASEPRI,r0
        0x08004108:    f3bf8f4f    ..O.    DSB      
        0x0800410c:    f3bf8f6f    ..o.    ISB      
        0x08004110:    bf00        ..      NOP      
        0x08004112:    bf00        ..      NOP      
        0x08004114:    e7fe        ..      B        0x8004114 ; xQueueGenericSend + 80
        0x08004116:    2d02        .-      CMP      r5,#2
        0x08004118:    d102        ..      BNE      0x8004120 ; xQueueGenericSend + 92
        0x0800411a:    6be0        .k      LDR      r0,[r4,#0x3c]
        0x0800411c:    2801        .(      CMP      r0,#1
        0x0800411e:    d101        ..      BNE      0x8004124 ; xQueueGenericSend + 96
        0x08004120:    2001        .       MOVS     r0,#1
        0x08004122:    e000        ..      B        0x8004126 ; xQueueGenericSend + 98
        0x08004124:    2000        .       MOVS     r0,#0
        0x08004126:    b950        P.      CBNZ     r0,0x800413e ; xQueueGenericSend + 122
        0x08004128:    bf00        ..      NOP      
        0x0800412a:    2050        P       MOVS     r0,#0x50
        0x0800412c:    f3808811    ....    MSR      BASEPRI,r0
        0x08004130:    f3bf8f4f    ..O.    DSB      
        0x08004134:    f3bf8f6f    ..o.    ISB      
        0x08004138:    bf00        ..      NOP      
        0x0800413a:    bf00        ..      NOP      
        0x0800413c:    e7fe        ..      B        0x800413c ; xQueueGenericSend + 120
        0x0800413e:    f000fa9d    ....    BL       xTaskGetSchedulerState ; 0x800467c
        0x08004142:    b908        ..      CBNZ     r0,0x8004148 ; xQueueGenericSend + 132
        0x08004144:    9805        ..      LDR      r0,[sp,#0x14]
        0x08004146:    b908        ..      CBNZ     r0,0x800414c ; xQueueGenericSend + 136
        0x08004148:    2001        .       MOVS     r0,#1
        0x0800414a:    e000        ..      B        0x800414e ; xQueueGenericSend + 138
        0x0800414c:    2000        .       MOVS     r0,#0
        0x0800414e:    b950        P.      CBNZ     r0,0x8004166 ; xQueueGenericSend + 162
        0x08004150:    bf00        ..      NOP      
        0x08004152:    2050        P       MOVS     r0,#0x50
        0x08004154:    f3808811    ....    MSR      BASEPRI,r0
        0x08004158:    f3bf8f4f    ..O.    DSB      
        0x0800415c:    f3bf8f6f    ..o.    ISB      
        0x08004160:    bf00        ..      NOP      
        0x08004162:    bf00        ..      NOP      
        0x08004164:    e7fe        ..      B        0x8004164 ; xQueueGenericSend + 160
        0x08004166:    bf00        ..      NOP      
        0x08004168:    f7fffb10    ....    BL       vPortEnterCritical ; 0x800378c
        0x0800416c:    6ba0        .k      LDR      r0,[r4,#0x38]
        0x0800416e:    6be1        .k      LDR      r1,[r4,#0x3c]
        0x08004170:    4288        .B      CMP      r0,r1
        0x08004172:    d301        ..      BCC      0x8004178 ; xQueueGenericSend + 180
        0x08004174:    2d02        .-      CMP      r5,#2
        0x08004176:    d128        (.      BNE      0x80041ca ; xQueueGenericSend + 262
        0x08004178:    462a        *F      MOV      r2,r5
        0x0800417a:    4641        AF      MOV      r1,r8
        0x0800417c:    4620         F      MOV      r0,r4
        0x0800417e:    f7fefdbc    ....    BL       prvCopyDataToQueue ; 0x8002cfa
        0x08004182:    4607        .F      MOV      r7,r0
        0x08004184:    6a60        `j      LDR      r0,[r4,#0x24]
        0x08004186:    b908        ..      CBNZ     r0,0x800418c ; xQueueGenericSend + 200
        0x08004188:    2001        .       MOVS     r0,#1
        0x0800418a:    e000        ..      B        0x800418e ; xQueueGenericSend + 202
        0x0800418c:    2000        .       MOVS     r0,#0
        0x0800418e:    b968        h.      CBNZ     r0,0x80041ac ; xQueueGenericSend + 232
        0x08004190:    f1040024    ..$.    ADD      r0,r4,#0x24
        0x08004194:    f000fb7c    ..|.    BL       xTaskRemoveFromEventList ; 0x8004890
        0x08004198:    b188        ..      CBZ      r0,0x80041be ; xQueueGenericSend + 250
        0x0800419a:    f04f5080    O..P    MOV      r0,#0x10000000
        0x0800419e:    4932        2I      LDR      r1,[pc,#200] ; [0x8004268] = 0xe000ed04
        0x080041a0:    6008        .`      STR      r0,[r1,#0]
        0x080041a2:    f3bf8f4f    ..O.    DSB      
        0x080041a6:    f3bf8f6f    ..o.    ISB      
        0x080041aa:    e008        ..      B        0x80041be ; xQueueGenericSend + 250
        0x080041ac:    b13f        ?.      CBZ      r7,0x80041be ; xQueueGenericSend + 250
        0x080041ae:    f04f5080    O..P    MOV      r0,#0x10000000
        0x080041b2:    492d        -I      LDR      r1,[pc,#180] ; [0x8004268] = 0xe000ed04
        0x080041b4:    6008        .`      STR      r0,[r1,#0]
        0x080041b6:    f3bf8f4f    ..O.    DSB      
        0x080041ba:    f3bf8f6f    ..o.    ISB      
        0x080041be:    f7fffb0f    ....    BL       vPortExitCritical ; 0x80037e0
        0x080041c2:    2001        .       MOVS     r0,#1
        0x080041c4:    b007        ..      ADD      sp,sp,#0x1c
        0x080041c6:    e8bd83f0    ....    POP      {r4-r9,pc}
        0x080041ca:    9805        ..      LDR      r0,[sp,#0x14]
        0x080041cc:    b918        ..      CBNZ     r0,0x80041d6 ; xQueueGenericSend + 274
        0x080041ce:    f7fffb07    ....    BL       vPortExitCritical ; 0x80037e0
        0x080041d2:    2000        .       MOVS     r0,#0
        0x080041d4:    e7f6        ..      B        0x80041c4 ; xQueueGenericSend + 256
        0x080041d6:    f1b90f00    ....    CMP      r9,#0
        0x080041da:    d104        ..      BNE      0x80041e6 ; xQueueGenericSend + 290
        0x080041dc:    a801        ..      ADD      r0,sp,#4
        0x080041de:    f7fffcbf    ....    BL       vTaskInternalSetTimeOutState ; 0x8003b60
        0x080041e2:    f04f0901    O...    MOV      r9,#1
        0x080041e6:    f7fffafb    ....    BL       vPortExitCritical ; 0x80037e0
        0x080041ea:    f7fffd63    ..c.    BL       vTaskSuspendAll ; 0x8003cb4
        0x080041ee:    f7fffacd    ....    BL       vPortEnterCritical ; 0x800378c
        0x080041f2:    f9940044    ..D.    LDRSB    r0,[r4,#0x44]
        0x080041f6:    1c40        @.      ADDS     r0,r0,#1
        0x080041f8:    b910        ..      CBNZ     r0,0x8004200 ; xQueueGenericSend + 316
        0x080041fa:    2000        .       MOVS     r0,#0
        0x080041fc:    f8840044    ..D.    STRB     r0,[r4,#0x44]
        0x08004200:    f9940045    ..E.    LDRSB    r0,[r4,#0x45]
        0x08004204:    1c40        @.      ADDS     r0,r0,#1
        0x08004206:    b910        ..      CBNZ     r0,0x800420e ; xQueueGenericSend + 330
        0x08004208:    2000        .       MOVS     r0,#0
        0x0800420a:    f8840045    ..E.    STRB     r0,[r4,#0x45]
        0x0800420e:    f7fffae7    ....    BL       vPortExitCritical ; 0x80037e0
        0x08004212:    a905        ..      ADD      r1,sp,#0x14
        0x08004214:    a801        ..      ADD      r0,sp,#4
        0x08004216:    f000f95b    ..[.    BL       xTaskCheckForTimeOut ; 0x80044d0
        0x0800421a:    b9f0        ..      CBNZ     r0,0x800425a ; xQueueGenericSend + 406
        0x0800421c:    4620         F      MOV      r0,r4
        0x0800421e:    f7feff4e    ..N.    BL       prvIsQueueFull ; 0x80030be
        0x08004222:    b1a0        ..      CBZ      r0,0x800424e ; xQueueGenericSend + 394
        0x08004224:    f1040010    ....    ADD      r0,r4,#0x10
        0x08004228:    9905        ..      LDR      r1,[sp,#0x14]
        0x0800422a:    f7fffcab    ....    BL       vTaskPlaceOnEventList ; 0x8003b84
        0x0800422e:    4620         F      MOV      r0,r4
        0x08004230:    f7fff929    ..).    BL       prvUnlockQueue ; 0x8003486
        0x08004234:    f000fb78    ..x.    BL       xTaskResumeAll ; 0x8004928
        0x08004238:    2800        .(      CMP      r0,#0
        0x0800423a:    d195        ..      BNE      0x8004168 ; xQueueGenericSend + 164
        0x0800423c:    f04f5080    O..P    MOV      r0,#0x10000000
        0x08004240:    4909        .I      LDR      r1,[pc,#36] ; [0x8004268] = 0xe000ed04
        0x08004242:    6008        .`      STR      r0,[r1,#0]
        0x08004244:    f3bf8f4f    ..O.    DSB      
        0x08004248:    f3bf8f6f    ..o.    ISB      
        0x0800424c:    e78c        ..      B        0x8004168 ; xQueueGenericSend + 164
        0x0800424e:    4620         F      MOV      r0,r4
        0x08004250:    f7fff919    ....    BL       prvUnlockQueue ; 0x8003486
        0x08004254:    f000fb68    ..h.    BL       xTaskResumeAll ; 0x8004928
        0x08004258:    e786        ..      B        0x8004168 ; xQueueGenericSend + 164
        0x0800425a:    4620         F      MOV      r0,r4
        0x0800425c:    f7fff913    ....    BL       prvUnlockQueue ; 0x8003486
        0x08004260:    f000fb62    ..b.    BL       xTaskResumeAll ; 0x8004928
        0x08004264:    2000        .       MOVS     r0,#0
        0x08004266:    e7ad        ..      B        0x80041c4 ; xQueueGenericSend + 256
    $d
        0x08004268:    e000ed04    ....    DCD    3758157060
    $t
    i.xQueueGenericSendFromISR
    xQueueGenericSendFromISR
        0x0800426c:    e92d4ff8    -..O    PUSH     {r3-r11,lr}
        0x08004270:    4607        .F      MOV      r7,r0
        0x08004272:    468a        .F      MOV      r10,r1
        0x08004274:    4690        .F      MOV      r8,r2
        0x08004276:    461e        .F      MOV      r6,r3
        0x08004278:    463c        <F      MOV      r4,r7
        0x0800427a:    b954        T.      CBNZ     r4,0x8004292 ; xQueueGenericSendFromISR + 38
        0x0800427c:    bf00        ..      NOP      
        0x0800427e:    2050        P       MOVS     r0,#0x50
        0x08004280:    f3808811    ....    MSR      BASEPRI,r0
        0x08004284:    f3bf8f4f    ..O.    DSB      
        0x08004288:    f3bf8f6f    ..o.    ISB      
        0x0800428c:    bf00        ..      NOP      
        0x0800428e:    bf00        ..      NOP      
        0x08004290:    e7fe        ..      B        0x8004290 ; xQueueGenericSendFromISR + 36
        0x08004292:    f1ba0f00    ....    CMP      r10,#0
        0x08004296:    d101        ..      BNE      0x800429c ; xQueueGenericSendFromISR + 48
        0x08004298:    6c20         l      LDR      r0,[r4,#0x40]
        0x0800429a:    b908        ..      CBNZ     r0,0x80042a0 ; xQueueGenericSendFromISR + 52
        0x0800429c:    2001        .       MOVS     r0,#1
        0x0800429e:    e000        ..      B        0x80042a2 ; xQueueGenericSendFromISR + 54
        0x080042a0:    2000        .       MOVS     r0,#0
        0x080042a2:    b950        P.      CBNZ     r0,0x80042ba ; xQueueGenericSendFromISR + 78
        0x080042a4:    bf00        ..      NOP      
        0x080042a6:    2050        P       MOVS     r0,#0x50
        0x080042a8:    f3808811    ....    MSR      BASEPRI,r0
        0x080042ac:    f3bf8f4f    ..O.    DSB      
        0x080042b0:    f3bf8f6f    ..o.    ISB      
        0x080042b4:    bf00        ..      NOP      
        0x080042b6:    bf00        ..      NOP      
        0x080042b8:    e7fe        ..      B        0x80042b8 ; xQueueGenericSendFromISR + 76
        0x080042ba:    2e02        ..      CMP      r6,#2
        0x080042bc:    d102        ..      BNE      0x80042c4 ; xQueueGenericSendFromISR + 88
        0x080042be:    6be0        .k      LDR      r0,[r4,#0x3c]
        0x080042c0:    2801        .(      CMP      r0,#1
        0x080042c2:    d101        ..      BNE      0x80042c8 ; xQueueGenericSendFromISR + 92
        0x080042c4:    2001        .       MOVS     r0,#1
        0x080042c6:    e000        ..      B        0x80042ca ; xQueueGenericSendFromISR + 94
        0x080042c8:    2000        .       MOVS     r0,#0
        0x080042ca:    b950        P.      CBNZ     r0,0x80042e2 ; xQueueGenericSendFromISR + 118
        0x080042cc:    bf00        ..      NOP      
        0x080042ce:    2050        P       MOVS     r0,#0x50
        0x080042d0:    f3808811    ....    MSR      BASEPRI,r0
        0x080042d4:    f3bf8f4f    ..O.    DSB      
        0x080042d8:    f3bf8f6f    ..o.    ISB      
        0x080042dc:    bf00        ..      NOP      
        0x080042de:    bf00        ..      NOP      
        0x080042e0:    e7fe        ..      B        0x80042e0 ; xQueueGenericSendFromISR + 116
        0x080042e2:    f7fffb01    ....    BL       vPortValidateInterruptPriority ; 0x80038e8
        0x080042e6:    bf00        ..      NOP      
        0x080042e8:    2150        P!      MOVS     r1,#0x50
        0x080042ea:    f3ef8011    ....    MRS      r0,BASEPRI
        0x080042ee:    f3818811    ....    MSR      BASEPRI,r1
        0x080042f2:    f3bf8f4f    ..O.    DSB      
        0x080042f6:    f3bf8f6f    ..o.    ISB      
        0x080042fa:    bf00        ..      NOP      
        0x080042fc:    4605        .F      MOV      r5,r0
        0x080042fe:    6ba0        .k      LDR      r0,[r4,#0x38]
        0x08004300:    6be1        .k      LDR      r1,[r4,#0x3c]
        0x08004302:    4288        .B      CMP      r0,r1
        0x08004304:    d301        ..      BCC      0x800430a ; xQueueGenericSendFromISR + 158
        0x08004306:    2e02        ..      CMP      r6,#2
        0x08004308:    d125        %.      BNE      0x8004356 ; xQueueGenericSendFromISR + 234
        0x0800430a:    f994b045    ..E.    LDRSB    r11,[r4,#0x45]
        0x0800430e:    6ba0        .k      LDR      r0,[r4,#0x38]
        0x08004310:    9000        ..      STR      r0,[sp,#0]
        0x08004312:    4632        2F      MOV      r2,r6
        0x08004314:    4651        QF      MOV      r1,r10
        0x08004316:    4620         F      MOV      r0,r4
        0x08004318:    f7fefcef    ....    BL       prvCopyDataToQueue ; 0x8002cfa
        0x0800431c:    f10b0001    ....    ADD      r0,r11,#1
        0x08004320:    b988        ..      CBNZ     r0,0x8004346 ; xQueueGenericSendFromISR + 218
        0x08004322:    6a60        `j      LDR      r0,[r4,#0x24]
        0x08004324:    b908        ..      CBNZ     r0,0x800432a ; xQueueGenericSendFromISR + 190
        0x08004326:    2001        .       MOVS     r0,#1
        0x08004328:    e000        ..      B        0x800432c ; xQueueGenericSendFromISR + 192
        0x0800432a:    2000        .       MOVS     r0,#0
        0x0800432c:    b950        P.      CBNZ     r0,0x8004344 ; xQueueGenericSendFromISR + 216
        0x0800432e:    f1040024    ..$.    ADD      r0,r4,#0x24
        0x08004332:    f000faad    ....    BL       xTaskRemoveFromEventList ; 0x8004890
        0x08004336:    b128        (.      CBZ      r0,0x8004344 ; xQueueGenericSendFromISR + 216
        0x08004338:    f1b80f00    ....    CMP      r8,#0
        0x0800433c:    d002        ..      BEQ      0x8004344 ; xQueueGenericSendFromISR + 216
        0x0800433e:    2001        .       MOVS     r0,#1
        0x08004340:    f8c80000    ....    STR      r0,[r8,#0]
        0x08004344:    e004        ..      B        0x8004350 ; xQueueGenericSendFromISR + 228
        0x08004346:    f10b0001    ....    ADD      r0,r11,#1
        0x0800434a:    b240        @.      SXTB     r0,r0
        0x0800434c:    f8840045    ..E.    STRB     r0,[r4,#0x45]
        0x08004350:    f04f0901    O...    MOV      r9,#1
        0x08004354:    e001        ..      B        0x800435a ; xQueueGenericSendFromISR + 238
        0x08004356:    f04f0900    O...    MOV      r9,#0
        0x0800435a:    bf00        ..      NOP      
        0x0800435c:    f3858811    ....    MSR      BASEPRI,r5
        0x08004360:    bf00        ..      NOP      
        0x08004362:    4648        HF      MOV      r0,r9
        0x08004364:    e8bd8ff8    ....    POP      {r3-r11,pc}
    i.xQueueReceive
    xQueueReceive
        0x08004368:    e92d41f7    -..A    PUSH     {r0-r2,r4-r8,lr}
        0x0800436c:    b083        ..      SUB      sp,sp,#0xc
        0x0800436e:    4605        .F      MOV      r5,r0
        0x08004370:    460e        .F      MOV      r6,r1
        0x08004372:    f04f0800    O...    MOV      r8,#0
        0x08004376:    462c        ,F      MOV      r4,r5
        0x08004378:    b954        T.      CBNZ     r4,0x8004390 ; xQueueReceive + 40
        0x0800437a:    bf00        ..      NOP      
        0x0800437c:    2050        P       MOVS     r0,#0x50
        0x0800437e:    f3808811    ....    MSR      BASEPRI,r0
        0x08004382:    f3bf8f4f    ..O.    DSB      
        0x08004386:    f3bf8f6f    ..o.    ISB      
        0x0800438a:    bf00        ..      NOP      
        0x0800438c:    bf00        ..      NOP      
        0x0800438e:    e7fe        ..      B        0x800438e ; xQueueReceive + 38
        0x08004390:    b90e        ..      CBNZ     r6,0x8004396 ; xQueueReceive + 46
        0x08004392:    6c20         l      LDR      r0,[r4,#0x40]
        0x08004394:    b908        ..      CBNZ     r0,0x800439a ; xQueueReceive + 50
        0x08004396:    2001        .       MOVS     r0,#1
        0x08004398:    e000        ..      B        0x800439c ; xQueueReceive + 52
        0x0800439a:    2000        .       MOVS     r0,#0
        0x0800439c:    b950        P.      CBNZ     r0,0x80043b4 ; xQueueReceive + 76
        0x0800439e:    bf00        ..      NOP      
        0x080043a0:    2050        P       MOVS     r0,#0x50
        0x080043a2:    f3808811    ....    MSR      BASEPRI,r0
        0x080043a6:    f3bf8f4f    ..O.    DSB      
        0x080043aa:    f3bf8f6f    ..o.    ISB      
        0x080043ae:    bf00        ..      NOP      
        0x080043b0:    bf00        ..      NOP      
        0x080043b2:    e7fe        ..      B        0x80043b2 ; xQueueReceive + 74
        0x080043b4:    f000f962    ..b.    BL       xTaskGetSchedulerState ; 0x800467c
        0x080043b8:    b908        ..      CBNZ     r0,0x80043be ; xQueueReceive + 86
        0x080043ba:    9805        ..      LDR      r0,[sp,#0x14]
        0x080043bc:    b908        ..      CBNZ     r0,0x80043c2 ; xQueueReceive + 90
        0x080043be:    2001        .       MOVS     r0,#1
        0x080043c0:    e000        ..      B        0x80043c4 ; xQueueReceive + 92
        0x080043c2:    2000        .       MOVS     r0,#0
        0x080043c4:    b950        P.      CBNZ     r0,0x80043dc ; xQueueReceive + 116
        0x080043c6:    bf00        ..      NOP      
        0x080043c8:    2050        P       MOVS     r0,#0x50
        0x080043ca:    f3808811    ....    MSR      BASEPRI,r0
        0x080043ce:    f3bf8f4f    ..O.    DSB      
        0x080043d2:    f3bf8f6f    ..o.    ISB      
        0x080043d6:    bf00        ..      NOP      
        0x080043d8:    bf00        ..      NOP      
        0x080043da:    e7fe        ..      B        0x80043da ; xQueueReceive + 114
        0x080043dc:    bf00        ..      NOP      
        0x080043de:    f7fff9d5    ....    BL       vPortEnterCritical ; 0x800378c
        0x080043e2:    6ba7        .k      LDR      r7,[r4,#0x38]
        0x080043e4:    b1f7        ..      CBZ      r7,0x8004424 ; xQueueReceive + 188
        0x080043e6:    4631        1F      MOV      r1,r6
        0x080043e8:    4620         F      MOV      r0,r4
        0x080043ea:    f7fefc71    ..q.    BL       prvCopyDataFromQueue ; 0x8002cd0
        0x080043ee:    1e78        x.      SUBS     r0,r7,#1
        0x080043f0:    63a0        .c      STR      r0,[r4,#0x38]
        0x080043f2:    6920         i      LDR      r0,[r4,#0x10]
        0x080043f4:    b908        ..      CBNZ     r0,0x80043fa ; xQueueReceive + 146
        0x080043f6:    2001        .       MOVS     r0,#1
        0x080043f8:    e000        ..      B        0x80043fc ; xQueueReceive + 148
        0x080043fa:    2000        .       MOVS     r0,#0
        0x080043fc:    b960        `.      CBNZ     r0,0x8004418 ; xQueueReceive + 176
        0x080043fe:    f1040010    ....    ADD      r0,r4,#0x10
        0x08004402:    f000fa45    ..E.    BL       xTaskRemoveFromEventList ; 0x8004890
        0x08004406:    b138        8.      CBZ      r0,0x8004418 ; xQueueReceive + 176
        0x08004408:    f04f5080    O..P    MOV      r0,#0x10000000
        0x0800440c:    492f        /I      LDR      r1,[pc,#188] ; [0x80044cc] = 0xe000ed04
        0x0800440e:    6008        .`      STR      r0,[r1,#0]
        0x08004410:    f3bf8f4f    ..O.    DSB      
        0x08004414:    f3bf8f6f    ..o.    ISB      
        0x08004418:    f7fff9e2    ....    BL       vPortExitCritical ; 0x80037e0
        0x0800441c:    2001        .       MOVS     r0,#1
        0x0800441e:    b006        ..      ADD      sp,sp,#0x18
        0x08004420:    e8bd81f0    ....    POP      {r4-r8,pc}
        0x08004424:    9805        ..      LDR      r0,[sp,#0x14]
        0x08004426:    b918        ..      CBNZ     r0,0x8004430 ; xQueueReceive + 200
        0x08004428:    f7fff9da    ....    BL       vPortExitCritical ; 0x80037e0
        0x0800442c:    2000        .       MOVS     r0,#0
        0x0800442e:    e7f6        ..      B        0x800441e ; xQueueReceive + 182
        0x08004430:    f1b80f00    ....    CMP      r8,#0
        0x08004434:    d104        ..      BNE      0x8004440 ; xQueueReceive + 216
        0x08004436:    a801        ..      ADD      r0,sp,#4
        0x08004438:    f7fffb92    ....    BL       vTaskInternalSetTimeOutState ; 0x8003b60
        0x0800443c:    f04f0801    O...    MOV      r8,#1
        0x08004440:    f7fff9ce    ....    BL       vPortExitCritical ; 0x80037e0
        0x08004444:    f7fffc36    ..6.    BL       vTaskSuspendAll ; 0x8003cb4
        0x08004448:    f7fff9a0    ....    BL       vPortEnterCritical ; 0x800378c
        0x0800444c:    f9940044    ..D.    LDRSB    r0,[r4,#0x44]
        0x08004450:    1c40        @.      ADDS     r0,r0,#1
        0x08004452:    b910        ..      CBNZ     r0,0x800445a ; xQueueReceive + 242
        0x08004454:    2000        .       MOVS     r0,#0
        0x08004456:    f8840044    ..D.    STRB     r0,[r4,#0x44]
        0x0800445a:    f9940045    ..E.    LDRSB    r0,[r4,#0x45]
        0x0800445e:    1c40        @.      ADDS     r0,r0,#1
        0x08004460:    b910        ..      CBNZ     r0,0x8004468 ; xQueueReceive + 256
        0x08004462:    2000        .       MOVS     r0,#0
        0x08004464:    f8840045    ..E.    STRB     r0,[r4,#0x45]
        0x08004468:    f7fff9ba    ....    BL       vPortExitCritical ; 0x80037e0
        0x0800446c:    a905        ..      ADD      r1,sp,#0x14
        0x0800446e:    a801        ..      ADD      r0,sp,#4
        0x08004470:    f000f82e    ....    BL       xTaskCheckForTimeOut ; 0x80044d0
        0x08004474:    b9f0        ..      CBNZ     r0,0x80044b4 ; xQueueReceive + 332
        0x08004476:    4620         F      MOV      r0,r4
        0x08004478:    f7fefe14    ....    BL       prvIsQueueEmpty ; 0x80030a4
        0x0800447c:    b1a0        ..      CBZ      r0,0x80044a8 ; xQueueReceive + 320
        0x0800447e:    f1040024    ..$.    ADD      r0,r4,#0x24
        0x08004482:    9905        ..      LDR      r1,[sp,#0x14]
        0x08004484:    f7fffb7e    ..~.    BL       vTaskPlaceOnEventList ; 0x8003b84
        0x08004488:    4620         F      MOV      r0,r4
        0x0800448a:    f7fefffc    ....    BL       prvUnlockQueue ; 0x8003486
        0x0800448e:    f000fa4b    ..K.    BL       xTaskResumeAll ; 0x8004928
        0x08004492:    2800        .(      CMP      r0,#0
        0x08004494:    d1a3        ..      BNE      0x80043de ; xQueueReceive + 118
        0x08004496:    f04f5080    O..P    MOV      r0,#0x10000000
        0x0800449a:    490c        .I      LDR      r1,[pc,#48] ; [0x80044cc] = 0xe000ed04
        0x0800449c:    6008        .`      STR      r0,[r1,#0]
        0x0800449e:    f3bf8f4f    ..O.    DSB      
        0x080044a2:    f3bf8f6f    ..o.    ISB      
        0x080044a6:    e79a        ..      B        0x80043de ; xQueueReceive + 118
        0x080044a8:    4620         F      MOV      r0,r4
        0x080044aa:    f7feffec    ....    BL       prvUnlockQueue ; 0x8003486
        0x080044ae:    f000fa3b    ..;.    BL       xTaskResumeAll ; 0x8004928
        0x080044b2:    e794        ..      B        0x80043de ; xQueueReceive + 118
        0x080044b4:    4620         F      MOV      r0,r4
        0x080044b6:    f7feffe6    ....    BL       prvUnlockQueue ; 0x8003486
        0x080044ba:    f000fa35    ..5.    BL       xTaskResumeAll ; 0x8004928
        0x080044be:    4620         F      MOV      r0,r4
        0x080044c0:    f7fefdf0    ....    BL       prvIsQueueEmpty ; 0x80030a4
        0x080044c4:    2800        .(      CMP      r0,#0
        0x080044c6:    d08a        ..      BEQ      0x80043de ; xQueueReceive + 118
        0x080044c8:    2000        .       MOVS     r0,#0
        0x080044ca:    e7a8        ..      B        0x800441e ; xQueueReceive + 182
    $d
        0x080044cc:    e000ed04    ....    DCD    3758157060
    $t
    i.xTaskCheckForTimeOut
    xTaskCheckForTimeOut
        0x080044d0:    b570        p.      PUSH     {r4-r6,lr}
        0x080044d2:    4605        .F      MOV      r5,r0
        0x080044d4:    460c        .F      MOV      r4,r1
        0x080044d6:    b955        U.      CBNZ     r5,0x80044ee ; xTaskCheckForTimeOut + 30
        0x080044d8:    bf00        ..      NOP      
        0x080044da:    2050        P       MOVS     r0,#0x50
        0x080044dc:    f3808811    ....    MSR      BASEPRI,r0
        0x080044e0:    f3bf8f4f    ..O.    DSB      
        0x080044e4:    f3bf8f6f    ..o.    ISB      
        0x080044e8:    bf00        ..      NOP      
        0x080044ea:    bf00        ..      NOP      
        0x080044ec:    e7fe        ..      B        0x80044ec ; xTaskCheckForTimeOut + 28
        0x080044ee:    b954        T.      CBNZ     r4,0x8004506 ; xTaskCheckForTimeOut + 54
        0x080044f0:    bf00        ..      NOP      
        0x080044f2:    2050        P       MOVS     r0,#0x50
        0x080044f4:    f3808811    ....    MSR      BASEPRI,r0
        0x080044f8:    f3bf8f4f    ..O.    DSB      
        0x080044fc:    f3bf8f6f    ..o.    ISB      
        0x08004500:    bf00        ..      NOP      
        0x08004502:    bf00        ..      NOP      
        0x08004504:    e7fe        ..      B        0x8004504 ; xTaskCheckForTimeOut + 52
        0x08004506:    f7fff941    ..A.    BL       vPortEnterCritical ; 0x800378c
        0x0800450a:    4812        .H      LDR      r0,[pc,#72] ; [0x8004554] = 0x20000028
        0x0800450c:    6802        .h      LDR      r2,[r0,#0]
        0x0800450e:    6868        hh      LDR      r0,[r5,#4]
        0x08004510:    1a13        ..      SUBS     r3,r2,r0
        0x08004512:    6820         h      LDR      r0,[r4,#0]
        0x08004514:    1c40        @.      ADDS     r0,r0,#1
        0x08004516:    b908        ..      CBNZ     r0,0x800451c ; xTaskCheckForTimeOut + 76
        0x08004518:    2600        .&      MOVS     r6,#0
        0x0800451a:    e017        ..      B        0x800454c ; xTaskCheckForTimeOut + 124
        0x0800451c:    490e        .I      LDR      r1,[pc,#56] ; [0x8004558] = 0x2000003c
        0x0800451e:    6828        (h      LDR      r0,[r5,#0]
        0x08004520:    6809        .h      LDR      r1,[r1,#0]
        0x08004522:    4288        .B      CMP      r0,r1
        0x08004524:    d004        ..      BEQ      0x8004530 ; xTaskCheckForTimeOut + 96
        0x08004526:    6868        hh      LDR      r0,[r5,#4]
        0x08004528:    4290        .B      CMP      r0,r2
        0x0800452a:    d801        ..      BHI      0x8004530 ; xTaskCheckForTimeOut + 96
        0x0800452c:    2601        .&      MOVS     r6,#1
        0x0800452e:    e00d        ..      B        0x800454c ; xTaskCheckForTimeOut + 124
        0x08004530:    6820         h      LDR      r0,[r4,#0]
        0x08004532:    4298        .B      CMP      r0,r3
        0x08004534:    d907        ..      BLS      0x8004546 ; xTaskCheckForTimeOut + 118
        0x08004536:    6820         h      LDR      r0,[r4,#0]
        0x08004538:    1ac0        ..      SUBS     r0,r0,r3
        0x0800453a:    6020         `      STR      r0,[r4,#0]
        0x0800453c:    4628        (F      MOV      r0,r5
        0x0800453e:    f7fffb0f    ....    BL       vTaskInternalSetTimeOutState ; 0x8003b60
        0x08004542:    2600        .&      MOVS     r6,#0
        0x08004544:    e002        ..      B        0x800454c ; xTaskCheckForTimeOut + 124
        0x08004546:    2000        .       MOVS     r0,#0
        0x08004548:    6020         `      STR      r0,[r4,#0]
        0x0800454a:    2601        .&      MOVS     r6,#1
        0x0800454c:    f7fff948    ..H.    BL       vPortExitCritical ; 0x80037e0
        0x08004550:    4630        0F      MOV      r0,r6
        0x08004552:    bd70        p.      POP      {r4-r6,pc}
    $d
        0x08004554:    20000028    (..     DCD    536870952
        0x08004558:    2000003c    <..     DCD    536870972
    $t
    i.xTaskCreate
    xTaskCreate
        0x0800455c:    e92d4fff    -..O    PUSH     {r0-r11,lr}
        0x08004560:    b085        ..      SUB      sp,sp,#0x14
        0x08004562:    4680        .F      MOV      r8,r0
        0x08004564:    4689        .F      MOV      r9,r1
        0x08004566:    4617        .F      MOV      r7,r2
        0x08004568:    e9ddab12    ....    LDRD     r10,r11,[sp,#0x48]
        0x0800456c:    00b8        ..      LSLS     r0,r7,#2
        0x0800456e:    f7feffc9    ....    BL       pvPortMalloc ; 0x8003504
        0x08004572:    4606        .F      MOV      r6,r0
        0x08004574:    b156        V.      CBZ      r6,0x800458c ; xTaskCreate + 48
        0x08004576:    205c        \       MOVS     r0,#0x5c
        0x08004578:    f7feffc4    ....    BL       pvPortMalloc ; 0x8003504
        0x0800457c:    4604        .F      MOV      r4,r0
        0x0800457e:    b10c        ..      CBZ      r4,0x8004584 ; xTaskCreate + 40
        0x08004580:    6326        &c      STR      r6,[r4,#0x30]
        0x08004582:    e004        ..      B        0x800458e ; xTaskCreate + 50
        0x08004584:    4630        0F      MOV      r0,r6
        0x08004586:    f7fff949    ..I.    BL       vPortFree ; 0x800381c
        0x0800458a:    e000        ..      B        0x800458e ; xTaskCreate + 50
        0x0800458c:    2400        .$      MOVS     r4,#0
        0x0800458e:    b18c        ..      CBZ      r4,0x80045b4 ; xTaskCreate + 88
        0x08004590:    2000        .       MOVS     r0,#0
        0x08004592:    f8840059    ..Y.    STRB     r0,[r4,#0x59]
        0x08004596:    e9cdab00    ....    STRD     r10,r11,[sp,#0]
        0x0800459a:    e9cd4002    ...@    STRD     r4,r0,[sp,#8]
        0x0800459e:    463a        :F      MOV      r2,r7
        0x080045a0:    4649        IF      MOV      r1,r9
        0x080045a2:    4640        @F      MOV      r0,r8
        0x080045a4:    9b08        ..      LDR      r3,[sp,#0x20]
        0x080045a6:    f7fefc8a    ....    BL       prvInitialiseNewTask ; 0x8002ebe
        0x080045aa:    4620         F      MOV      r0,r4
        0x080045ac:    f7fefad6    ....    BL       prvAddNewTaskToReadyList ; 0x8002b5c
        0x080045b0:    2501        .%      MOVS     r5,#1
        0x080045b2:    e001        ..      B        0x80045b8 ; xTaskCreate + 92
        0x080045b4:    f04f35ff    O..5    MOV      r5,#0xffffffff
        0x080045b8:    4628        (F      MOV      r0,r5
        0x080045ba:    b009        ..      ADD      sp,sp,#0x24
        0x080045bc:    e8bd8ff0    ....    POP      {r4-r11,pc}
    i.xTaskCreateStatic
    xTaskCreateStatic
        0x080045c0:    e92d4ff0    -..O    PUSH     {r4-r11,lr}
        0x080045c4:    b085        ..      SUB      sp,sp,#0x14
        0x080045c6:    4607        .F      MOV      r7,r0
        0x080045c8:    4688        .F      MOV      r8,r1
        0x080045ca:    4691        .F      MOV      r9,r2
        0x080045cc:    469a        .F      MOV      r10,r3
        0x080045ce:    e9ddb60e    ....    LDRD     r11,r6,[sp,#0x38]
        0x080045d2:    9c10        ..      LDR      r4,[sp,#0x40]
        0x080045d4:    b10e        ..      CBZ      r6,0x80045da ; xTaskCreateStatic + 26
        0x080045d6:    2001        .       MOVS     r0,#1
        0x080045d8:    e000        ..      B        0x80045dc ; xTaskCreateStatic + 28
        0x080045da:    2000        .       MOVS     r0,#0
        0x080045dc:    b950        P.      CBNZ     r0,0x80045f4 ; xTaskCreateStatic + 52
        0x080045de:    bf00        ..      NOP      
        0x080045e0:    2050        P       MOVS     r0,#0x50
        0x080045e2:    f3808811    ....    MSR      BASEPRI,r0
        0x080045e6:    f3bf8f4f    ..O.    DSB      
        0x080045ea:    f3bf8f6f    ..o.    ISB      
        0x080045ee:    bf00        ..      NOP      
        0x080045f0:    bf00        ..      NOP      
        0x080045f2:    e7fe        ..      B        0x80045f2 ; xTaskCreateStatic + 50
        0x080045f4:    b10c        ..      CBZ      r4,0x80045fa ; xTaskCreateStatic + 58
        0x080045f6:    2001        .       MOVS     r0,#1
        0x080045f8:    e000        ..      B        0x80045fc ; xTaskCreateStatic + 60
        0x080045fa:    2000        .       MOVS     r0,#0
        0x080045fc:    b950        P.      CBNZ     r0,0x8004614 ; xTaskCreateStatic + 84
        0x080045fe:    bf00        ..      NOP      
        0x08004600:    2050        P       MOVS     r0,#0x50
        0x08004602:    f3808811    ....    MSR      BASEPRI,r0
        0x08004606:    f3bf8f4f    ..O.    DSB      
        0x0800460a:    f3bf8f6f    ..o.    ISB      
        0x0800460e:    bf00        ..      NOP      
        0x08004610:    bf00        ..      NOP      
        0x08004612:    e7fe        ..      B        0x8004612 ; xTaskCreateStatic + 82
        0x08004614:    205c        \       MOVS     r0,#0x5c
        0x08004616:    9003        ..      STR      r0,[sp,#0xc]
        0x08004618:    9803        ..      LDR      r0,[sp,#0xc]
        0x0800461a:    285c        \(      CMP      r0,#0x5c
        0x0800461c:    d101        ..      BNE      0x8004622 ; xTaskCreateStatic + 98
        0x0800461e:    2001        .       MOVS     r0,#1
        0x08004620:    e000        ..      B        0x8004624 ; xTaskCreateStatic + 100
        0x08004622:    2000        .       MOVS     r0,#0
        0x08004624:    b950        P.      CBNZ     r0,0x800463c ; xTaskCreateStatic + 124
        0x08004626:    bf00        ..      NOP      
        0x08004628:    2050        P       MOVS     r0,#0x50
        0x0800462a:    f3808811    ....    MSR      BASEPRI,r0
        0x0800462e:    f3bf8f4f    ..O.    DSB      
        0x08004632:    f3bf8f6f    ..o.    ISB      
        0x08004636:    bf00        ..      NOP      
        0x08004638:    bf00        ..      NOP      
        0x0800463a:    e7fe        ..      B        0x800463a ; xTaskCreateStatic + 122
        0x0800463c:    bf00        ..      NOP      
        0x0800463e:    b1b4        ..      CBZ      r4,0x800466e ; xTaskCreateStatic + 174
        0x08004640:    b1ae        ..      CBZ      r6,0x800466e ; xTaskCreateStatic + 174
        0x08004642:    4625        %F      MOV      r5,r4
        0x08004644:    462c        ,F      MOV      r4,r5
        0x08004646:    632e        .c      STR      r6,[r5,#0x30]
        0x08004648:    2002        .       MOVS     r0,#2
        0x0800464a:    f8850059    ..Y.    STRB     r0,[r5,#0x59]
        0x0800464e:    2000        .       MOVS     r0,#0
        0x08004650:    a904        ..      ADD      r1,sp,#0x10
        0x08004652:    4653        SF      MOV      r3,r10
        0x08004654:    464a        JF      MOV      r2,r9
        0x08004656:    e9cdb100    ....    STRD     r11,r1,[sp,#0]
        0x0800465a:    e9cd5002    ...P    STRD     r5,r0,[sp,#8]
        0x0800465e:    4641        AF      MOV      r1,r8
        0x08004660:    4638        8F      MOV      r0,r7
        0x08004662:    f7fefc2c    ..,.    BL       prvInitialiseNewTask ; 0x8002ebe
        0x08004666:    4628        (F      MOV      r0,r5
        0x08004668:    f7fefa78    ..x.    BL       prvAddNewTaskToReadyList ; 0x8002b5c
        0x0800466c:    e001        ..      B        0x8004672 ; xTaskCreateStatic + 178
        0x0800466e:    2000        .       MOVS     r0,#0
        0x08004670:    9004        ..      STR      r0,[sp,#0x10]
        0x08004672:    9804        ..      LDR      r0,[sp,#0x10]
        0x08004674:    b005        ..      ADD      sp,sp,#0x14
        0x08004676:    e8bd8ff0    ....    POP      {r4-r11,pc}
        0x0800467a:    0000        ..      MOVS     r0,r0
    i.xTaskGetSchedulerState
    xTaskGetSchedulerState
        0x0800467c:    4905        .I      LDR      r1,[pc,#20] ; [0x8004694] = 0x20000030
        0x0800467e:    6809        .h      LDR      r1,[r1,#0]
        0x08004680:    b909        ..      CBNZ     r1,0x8004686 ; xTaskGetSchedulerState + 10
        0x08004682:    2001        .       MOVS     r0,#1
        0x08004684:    e005        ..      B        0x8004692 ; xTaskGetSchedulerState + 22
        0x08004686:    4904        .I      LDR      r1,[pc,#16] ; [0x8004698] = 0x2000004c
        0x08004688:    6809        .h      LDR      r1,[r1,#0]
        0x0800468a:    b909        ..      CBNZ     r1,0x8004690 ; xTaskGetSchedulerState + 20
        0x0800468c:    2002        .       MOVS     r0,#2
        0x0800468e:    e000        ..      B        0x8004692 ; xTaskGetSchedulerState + 22
        0x08004690:    2000        .       MOVS     r0,#0
        0x08004692:    4770        pG      BX       lr
    $d
        0x08004694:    20000030    0..     DCD    536870960
        0x08004698:    2000004c    L..     DCD    536870988
    $t
    i.xTaskGetTickCount
    xTaskGetTickCount
        0x0800469c:    4901        .I      LDR      r1,[pc,#4] ; [0x80046a4] = 0x20000028
        0x0800469e:    6808        .h      LDR      r0,[r1,#0]
        0x080046a0:    4770        pG      BX       lr
    $d
        0x080046a2:    0000        ..      DCW    0
        0x080046a4:    20000028    (..     DCD    536870952
    $t
    i.xTaskIncrementTick
    xTaskIncrementTick
        0x080046a8:    e92d41f0    -..A    PUSH     {r4-r8,lr}
        0x080046ac:    f04f0800    O...    MOV      r8,#0
        0x080046b0:    4843        CH      LDR      r0,[pc,#268] ; [0x80047c0] = 0x2000004c
        0x080046b2:    6800        .h      LDR      r0,[r0,#0]
        0x080046b4:    2800        .(      CMP      r0,#0
        0x080046b6:    d17b        {.      BNE      0x80047b0 ; xTaskIncrementTick + 264
        0x080046b8:    4842        BH      LDR      r0,[pc,#264] ; [0x80047c4] = 0x20000028
        0x080046ba:    6800        .h      LDR      r0,[r0,#0]
        0x080046bc:    1c45        E.      ADDS     r5,r0,#1
        0x080046be:    4841        AH      LDR      r0,[pc,#260] ; [0x80047c4] = 0x20000028
        0x080046c0:    6005        .`      STR      r5,[r0,#0]
        0x080046c2:    bb15        ..      CBNZ     r5,0x800470a ; xTaskIncrementTick + 98
        0x080046c4:    4840        @H      LDR      r0,[pc,#256] ; [0x80047c8] = 0x20000018
        0x080046c6:    6800        .h      LDR      r0,[r0,#0]
        0x080046c8:    6800        .h      LDR      r0,[r0,#0]
        0x080046ca:    b908        ..      CBNZ     r0,0x80046d0 ; xTaskIncrementTick + 40
        0x080046cc:    2001        .       MOVS     r0,#1
        0x080046ce:    e000        ..      B        0x80046d2 ; xTaskIncrementTick + 42
        0x080046d0:    2000        .       MOVS     r0,#0
        0x080046d2:    b950        P.      CBNZ     r0,0x80046ea ; xTaskIncrementTick + 66
        0x080046d4:    bf00        ..      NOP      
        0x080046d6:    2050        P       MOVS     r0,#0x50
        0x080046d8:    f3808811    ....    MSR      BASEPRI,r0
        0x080046dc:    f3bf8f4f    ..O.    DSB      
        0x080046e0:    f3bf8f6f    ..o.    ISB      
        0x080046e4:    bf00        ..      NOP      
        0x080046e6:    bf00        ..      NOP      
        0x080046e8:    e7fe        ..      B        0x80046e8 ; xTaskIncrementTick + 64
        0x080046ea:    4837        7H      LDR      r0,[pc,#220] ; [0x80047c8] = 0x20000018
        0x080046ec:    6807        .h      LDR      r7,[r0,#0]
        0x080046ee:    4837        7H      LDR      r0,[pc,#220] ; [0x80047cc] = 0x2000001c
        0x080046f0:    6800        .h      LDR      r0,[r0,#0]
        0x080046f2:    4935        5I      LDR      r1,[pc,#212] ; [0x80047c8] = 0x20000018
        0x080046f4:    6008        .`      STR      r0,[r1,#0]
        0x080046f6:    4835        5H      LDR      r0,[pc,#212] ; [0x80047cc] = 0x2000001c
        0x080046f8:    6007        .`      STR      r7,[r0,#0]
        0x080046fa:    4835        5H      LDR      r0,[pc,#212] ; [0x80047d0] = 0x2000003c
        0x080046fc:    6800        .h      LDR      r0,[r0,#0]
        0x080046fe:    1c40        @.      ADDS     r0,r0,#1
        0x08004700:    4933        3I      LDR      r1,[pc,#204] ; [0x80047d0] = 0x2000003c
        0x08004702:    6008        .`      STR      r0,[r1,#0]
        0x08004704:    f7fefe10    ....    BL       prvResetNextTaskUnblockTime ; 0x8003328
        0x08004708:    bf00        ..      NOP      
        0x0800470a:    4832        2H      LDR      r0,[pc,#200] ; [0x80047d4] = 0x20000044
        0x0800470c:    6800        .h      LDR      r0,[r0,#0]
        0x0800470e:    4285        .B      CMP      r5,r0
        0x08004710:    d33b        ;.      BCC      0x800478a ; xTaskIncrementTick + 226
        0x08004712:    bf00        ..      NOP      
        0x08004714:    482c        ,H      LDR      r0,[pc,#176] ; [0x80047c8] = 0x20000018
        0x08004716:    6800        .h      LDR      r0,[r0,#0]
        0x08004718:    6800        .h      LDR      r0,[r0,#0]
        0x0800471a:    b908        ..      CBNZ     r0,0x8004720 ; xTaskIncrementTick + 120
        0x0800471c:    2001        .       MOVS     r0,#1
        0x0800471e:    e000        ..      B        0x8004722 ; xTaskIncrementTick + 122
        0x08004720:    2000        .       MOVS     r0,#0
        0x08004722:    b120         .      CBZ      r0,0x800472e ; xTaskIncrementTick + 134
        0x08004724:    f04f30ff    O..0    MOV      r0,#0xffffffff
        0x08004728:    492a        *I      LDR      r1,[pc,#168] ; [0x80047d4] = 0x20000044
        0x0800472a:    6008        .`      STR      r0,[r1,#0]
        0x0800472c:    e02c        ,.      B        0x8004788 ; xTaskIncrementTick + 224
        0x0800472e:    4826        &H      LDR      r0,[pc,#152] ; [0x80047c8] = 0x20000018
        0x08004730:    6800        .h      LDR      r0,[r0,#0]
        0x08004732:    68c0        .h      LDR      r0,[r0,#0xc]
        0x08004734:    68c4        .h      LDR      r4,[r0,#0xc]
        0x08004736:    6866        fh      LDR      r6,[r4,#4]
        0x08004738:    42b5        .B      CMP      r5,r6
        0x0800473a:    d202        ..      BCS      0x8004742 ; xTaskIncrementTick + 154
        0x0800473c:    4825        %H      LDR      r0,[pc,#148] ; [0x80047d4] = 0x20000044
        0x0800473e:    6006        .`      STR      r6,[r0,#0]
        0x08004740:    e022        ".      B        0x8004788 ; xTaskIncrementTick + 224
        0x08004742:    1d20         .      ADDS     r0,r4,#4
        0x08004744:    f7feffbf    ....    BL       uxListRemove ; 0x80036c6
        0x08004748:    6aa0        .j      LDR      r0,[r4,#0x28]
        0x0800474a:    b118        ..      CBZ      r0,0x8004754 ; xTaskIncrementTick + 172
        0x0800474c:    f1040018    ....    ADD      r0,r4,#0x18
        0x08004750:    f7feffb9    ....    BL       uxListRemove ; 0x80036c6
        0x08004754:    4920         I      LDR      r1,[pc,#128] ; [0x80047d8] = 0x2000002c
        0x08004756:    6ae0        .j      LDR      r0,[r4,#0x2c]
        0x08004758:    6809        .h      LDR      r1,[r1,#0]
        0x0800475a:    4288        .B      CMP      r0,r1
        0x0800475c:    d902        ..      BLS      0x8004764 ; xTaskIncrementTick + 188
        0x0800475e:    491e        .I      LDR      r1,[pc,#120] ; [0x80047d8] = 0x2000002c
        0x08004760:    6ae0        .j      LDR      r0,[r4,#0x2c]
        0x08004762:    6008        .`      STR      r0,[r1,#0]
        0x08004764:    6ae1        .j      LDR      r1,[r4,#0x2c]
        0x08004766:    eb010181    ....    ADD      r1,r1,r1,LSL #2
        0x0800476a:    4a1c        .J      LDR      r2,[pc,#112] ; [0x80047dc] = 0x200001b8
        0x0800476c:    eb020081    ....    ADD      r0,r2,r1,LSL #2
        0x08004770:    1d21        !.      ADDS     r1,r4,#4
        0x08004772:    f7feffff    ....    BL       vListInsertEnd ; 0x8003774
        0x08004776:    491a        .I      LDR      r1,[pc,#104] ; [0x80047e0] = 0x20000014
        0x08004778:    6ae0        .j      LDR      r0,[r4,#0x2c]
        0x0800477a:    6809        .h      LDR      r1,[r1,#0]
        0x0800477c:    6ac9        .j      LDR      r1,[r1,#0x2c]
        0x0800477e:    4288        .B      CMP      r0,r1
        0x08004780:    d3c8        ..      BCC      0x8004714 ; xTaskIncrementTick + 108
        0x08004782:    f04f0801    O...    MOV      r8,#1
        0x08004786:    e7c5        ..      B        0x8004714 ; xTaskIncrementTick + 108
        0x08004788:    bf00        ..      NOP      
        0x0800478a:    4815        .H      LDR      r0,[pc,#84] ; [0x80047e0] = 0x20000014
        0x0800478c:    6800        .h      LDR      r0,[r0,#0]
        0x0800478e:    6ac0        .j      LDR      r0,[r0,#0x2c]
        0x08004790:    eb000080    ....    ADD      r0,r0,r0,LSL #2
        0x08004794:    4911        .I      LDR      r1,[pc,#68] ; [0x80047dc] = 0x200001b8
        0x08004796:    f8510020    Q. .    LDR      r0,[r1,r0,LSL #2]
        0x0800479a:    2801        .(      CMP      r0,#1
        0x0800479c:    d901        ..      BLS      0x80047a2 ; xTaskIncrementTick + 250
        0x0800479e:    f04f0801    O...    MOV      r8,#1
        0x080047a2:    4810        .H      LDR      r0,[pc,#64] ; [0x80047e4] = 0x20000038
        0x080047a4:    6800        .h      LDR      r0,[r0,#0]
        0x080047a6:    b108        ..      CBZ      r0,0x80047ac ; xTaskIncrementTick + 260
        0x080047a8:    f04f0801    O...    MOV      r8,#1
        0x080047ac:    e005        ..      B        0x80047ba ; xTaskIncrementTick + 274
        0x080047ae:    e7ff        ..      B        0x80047b0 ; xTaskIncrementTick + 264
        0x080047b0:    480d        .H      LDR      r0,[pc,#52] ; [0x80047e8] = 0x20000034
        0x080047b2:    6800        .h      LDR      r0,[r0,#0]
        0x080047b4:    1c40        @.      ADDS     r0,r0,#1
        0x080047b6:    490c        .I      LDR      r1,[pc,#48] ; [0x80047e8] = 0x20000034
        0x080047b8:    6008        .`      STR      r0,[r1,#0]
        0x080047ba:    4640        @F      MOV      r0,r8
        0x080047bc:    e8bd81f0    ....    POP      {r4-r8,pc}
    $d
        0x080047c0:    2000004c    L..     DCD    536870988
        0x080047c4:    20000028    (..     DCD    536870952
        0x080047c8:    20000018    ...     DCD    536870936
        0x080047cc:    2000001c    ...     DCD    536870940
        0x080047d0:    2000003c    <..     DCD    536870972
        0x080047d4:    20000044    D..     DCD    536870980
        0x080047d8:    2000002c    ,..     DCD    536870956
        0x080047dc:    200001b8    ...     DCD    536871352
        0x080047e0:    20000014    ...     DCD    536870932
        0x080047e4:    20000038    8..     DCD    536870968
        0x080047e8:    20000034    4..     DCD    536870964
    $t
    i.xTaskPriorityDisinherit
    xTaskPriorityDisinherit
        0x080047ec:    b570        p.      PUSH     {r4-r6,lr}
        0x080047ee:    4605        .F      MOV      r5,r0
        0x080047f0:    462c        ,F      MOV      r4,r5
        0x080047f2:    2600        .&      MOVS     r6,#0
        0x080047f4:    2d00        .-      CMP      r5,#0
        0x080047f6:    d043        C.      BEQ      0x8004880 ; xTaskPriorityDisinherit + 148
        0x080047f8:    4822        "H      LDR      r0,[pc,#136] ; [0x8004884] = 0x20000014
        0x080047fa:    6800        .h      LDR      r0,[r0,#0]
        0x080047fc:    4284        .B      CMP      r4,r0
        0x080047fe:    d101        ..      BNE      0x8004804 ; xTaskPriorityDisinherit + 24
        0x08004800:    2001        .       MOVS     r0,#1
        0x08004802:    e000        ..      B        0x8004806 ; xTaskPriorityDisinherit + 26
        0x08004804:    2000        .       MOVS     r0,#0
        0x08004806:    b950        P.      CBNZ     r0,0x800481e ; xTaskPriorityDisinherit + 50
        0x08004808:    bf00        ..      NOP      
        0x0800480a:    2050        P       MOVS     r0,#0x50
        0x0800480c:    f3808811    ....    MSR      BASEPRI,r0
        0x08004810:    f3bf8f4f    ..O.    DSB      
        0x08004814:    f3bf8f6f    ..o.    ISB      
        0x08004818:    bf00        ..      NOP      
        0x0800481a:    bf00        ..      NOP      
        0x0800481c:    e7fe        ..      B        0x800481c ; xTaskPriorityDisinherit + 48
        0x0800481e:    6d20         m      LDR      r0,[r4,#0x50]
        0x08004820:    b950        P.      CBNZ     r0,0x8004838 ; xTaskPriorityDisinherit + 76
        0x08004822:    bf00        ..      NOP      
        0x08004824:    2050        P       MOVS     r0,#0x50
        0x08004826:    f3808811    ....    MSR      BASEPRI,r0
        0x0800482a:    f3bf8f4f    ..O.    DSB      
        0x0800482e:    f3bf8f6f    ..o.    ISB      
        0x08004832:    bf00        ..      NOP      
        0x08004834:    bf00        ..      NOP      
        0x08004836:    e7fe        ..      B        0x8004836 ; xTaskPriorityDisinherit + 74
        0x08004838:    6d20         m      LDR      r0,[r4,#0x50]
        0x0800483a:    1e40        @.      SUBS     r0,r0,#1
        0x0800483c:    6520         e      STR      r0,[r4,#0x50]
        0x0800483e:    6ce1        .l      LDR      r1,[r4,#0x4c]
        0x08004840:    6ae0        .j      LDR      r0,[r4,#0x2c]
        0x08004842:    4288        .B      CMP      r0,r1
        0x08004844:    d01c        ..      BEQ      0x8004880 ; xTaskPriorityDisinherit + 148
        0x08004846:    6d20         m      LDR      r0,[r4,#0x50]
        0x08004848:    b9d0        ..      CBNZ     r0,0x8004880 ; xTaskPriorityDisinherit + 148
        0x0800484a:    1d20         .      ADDS     r0,r4,#4
        0x0800484c:    f7feff3b    ..;.    BL       uxListRemove ; 0x80036c6
        0x08004850:    6ce0        .l      LDR      r0,[r4,#0x4c]
        0x08004852:    62e0        .b      STR      r0,[r4,#0x2c]
        0x08004854:    6ae0        .j      LDR      r0,[r4,#0x2c]
        0x08004856:    f1c00038    ..8.    RSB      r0,r0,#0x38
        0x0800485a:    61a0        .a      STR      r0,[r4,#0x18]
        0x0800485c:    490a        .I      LDR      r1,[pc,#40] ; [0x8004888] = 0x2000002c
        0x0800485e:    6ae0        .j      LDR      r0,[r4,#0x2c]
        0x08004860:    6809        .h      LDR      r1,[r1,#0]
        0x08004862:    4288        .B      CMP      r0,r1
        0x08004864:    d902        ..      BLS      0x800486c ; xTaskPriorityDisinherit + 128
        0x08004866:    4908        .I      LDR      r1,[pc,#32] ; [0x8004888] = 0x2000002c
        0x08004868:    6ae0        .j      LDR      r0,[r4,#0x2c]
        0x0800486a:    6008        .`      STR      r0,[r1,#0]
        0x0800486c:    6ae1        .j      LDR      r1,[r4,#0x2c]
        0x0800486e:    eb010181    ....    ADD      r1,r1,r1,LSL #2
        0x08004872:    4a06        .J      LDR      r2,[pc,#24] ; [0x800488c] = 0x200001b8
        0x08004874:    eb020081    ....    ADD      r0,r2,r1,LSL #2
        0x08004878:    1d21        !.      ADDS     r1,r4,#4
        0x0800487a:    f7feff7b    ..{.    BL       vListInsertEnd ; 0x8003774
        0x0800487e:    2601        .&      MOVS     r6,#1
        0x08004880:    4630        0F      MOV      r0,r6
        0x08004882:    bd70        p.      POP      {r4-r6,pc}
    $d
        0x08004884:    20000014    ...     DCD    536870932
        0x08004888:    2000002c    ,..     DCD    536870956
        0x0800488c:    200001b8    ...     DCD    536871352
    $t
    i.xTaskRemoveFromEventList
    xTaskRemoveFromEventList
        0x08004890:    b570        p.      PUSH     {r4-r6,lr}
        0x08004892:    4606        .F      MOV      r6,r0
        0x08004894:    68f0        .h      LDR      r0,[r6,#0xc]
        0x08004896:    68c4        .h      LDR      r4,[r0,#0xc]
        0x08004898:    b954        T.      CBNZ     r4,0x80048b0 ; xTaskRemoveFromEventList + 32
        0x0800489a:    bf00        ..      NOP      
        0x0800489c:    2050        P       MOVS     r0,#0x50
        0x0800489e:    f3808811    ....    MSR      BASEPRI,r0
        0x080048a2:    f3bf8f4f    ..O.    DSB      
        0x080048a6:    f3bf8f6f    ..o.    ISB      
        0x080048aa:    bf00        ..      NOP      
        0x080048ac:    bf00        ..      NOP      
        0x080048ae:    e7fe        ..      B        0x80048ae ; xTaskRemoveFromEventList + 30
        0x080048b0:    f1040018    ....    ADD      r0,r4,#0x18
        0x080048b4:    f7feff07    ....    BL       uxListRemove ; 0x80036c6
        0x080048b8:    4815        .H      LDR      r0,[pc,#84] ; [0x8004910] = 0x2000004c
        0x080048ba:    6800        .h      LDR      r0,[r0,#0]
        0x080048bc:    b9a0        ..      CBNZ     r0,0x80048e8 ; xTaskRemoveFromEventList + 88
        0x080048be:    1d20         .      ADDS     r0,r4,#4
        0x080048c0:    f7feff01    ....    BL       uxListRemove ; 0x80036c6
        0x080048c4:    4913        .I      LDR      r1,[pc,#76] ; [0x8004914] = 0x2000002c
        0x080048c6:    6ae0        .j      LDR      r0,[r4,#0x2c]
        0x080048c8:    6809        .h      LDR      r1,[r1,#0]
        0x080048ca:    4288        .B      CMP      r0,r1
        0x080048cc:    d902        ..      BLS      0x80048d4 ; xTaskRemoveFromEventList + 68
        0x080048ce:    4911        .I      LDR      r1,[pc,#68] ; [0x8004914] = 0x2000002c
        0x080048d0:    6ae0        .j      LDR      r0,[r4,#0x2c]
        0x080048d2:    6008        .`      STR      r0,[r1,#0]
        0x080048d4:    6ae1        .j      LDR      r1,[r4,#0x2c]
        0x080048d6:    eb010181    ....    ADD      r1,r1,r1,LSL #2
        0x080048da:    4a0f        .J      LDR      r2,[pc,#60] ; [0x8004918] = 0x200001b8
        0x080048dc:    eb020081    ....    ADD      r0,r2,r1,LSL #2
        0x080048e0:    1d21        !.      ADDS     r1,r4,#4
        0x080048e2:    f7feff47    ..G.    BL       vListInsertEnd ; 0x8003774
        0x080048e6:    e004        ..      B        0x80048f2 ; xTaskRemoveFromEventList + 98
        0x080048e8:    f1040118    ....    ADD      r1,r4,#0x18
        0x080048ec:    480b        .H      LDR      r0,[pc,#44] ; [0x800491c] = 0x20000640
        0x080048ee:    f7feff41    ..A.    BL       vListInsertEnd ; 0x8003774
        0x080048f2:    490b        .I      LDR      r1,[pc,#44] ; [0x8004920] = 0x20000014
        0x080048f4:    6ae0        .j      LDR      r0,[r4,#0x2c]
        0x080048f6:    6809        .h      LDR      r1,[r1,#0]
        0x080048f8:    6ac9        .j      LDR      r1,[r1,#0x2c]
        0x080048fa:    4288        .B      CMP      r0,r1
        0x080048fc:    d904        ..      BLS      0x8004908 ; xTaskRemoveFromEventList + 120
        0x080048fe:    2501        .%      MOVS     r5,#1
        0x08004900:    2001        .       MOVS     r0,#1
        0x08004902:    4908        .I      LDR      r1,[pc,#32] ; [0x8004924] = 0x20000038
        0x08004904:    6008        .`      STR      r0,[r1,#0]
        0x08004906:    e000        ..      B        0x800490a ; xTaskRemoveFromEventList + 122
        0x08004908:    2500        .%      MOVS     r5,#0
        0x0800490a:    4628        (F      MOV      r0,r5
        0x0800490c:    bd70        p.      POP      {r4-r6,pc}
    $d
        0x0800490e:    0000        ..      DCW    0
        0x08004910:    2000004c    L..     DCD    536870988
        0x08004914:    2000002c    ,..     DCD    536870956
        0x08004918:    200001b8    ...     DCD    536871352
        0x0800491c:    20000640    @..     DCD    536872512
        0x08004920:    20000014    ...     DCD    536870932
        0x08004924:    20000038    8..     DCD    536870968
    $t
    i.xTaskResumeAll
    xTaskResumeAll
        0x08004928:    b570        p.      PUSH     {r4-r6,lr}
        0x0800492a:    2400        .$      MOVS     r4,#0
        0x0800492c:    2600        .&      MOVS     r6,#0
        0x0800492e:    4836        6H      LDR      r0,[pc,#216] ; [0x8004a08] = 0x2000004c
        0x08004930:    6800        .h      LDR      r0,[r0,#0]
        0x08004932:    b950        P.      CBNZ     r0,0x800494a ; xTaskResumeAll + 34
        0x08004934:    bf00        ..      NOP      
        0x08004936:    2050        P       MOVS     r0,#0x50
        0x08004938:    f3808811    ....    MSR      BASEPRI,r0
        0x0800493c:    f3bf8f4f    ..O.    DSB      
        0x08004940:    f3bf8f6f    ..o.    ISB      
        0x08004944:    bf00        ..      NOP      
        0x08004946:    bf00        ..      NOP      
        0x08004948:    e7fe        ..      B        0x8004948 ; xTaskResumeAll + 32
        0x0800494a:    f7feff1f    ....    BL       vPortEnterCritical ; 0x800378c
        0x0800494e:    482e        .H      LDR      r0,[pc,#184] ; [0x8004a08] = 0x2000004c
        0x08004950:    6800        .h      LDR      r0,[r0,#0]
        0x08004952:    1e40        @.      SUBS     r0,r0,#1
        0x08004954:    492c        ,I      LDR      r1,[pc,#176] ; [0x8004a08] = 0x2000004c
        0x08004956:    6008        .`      STR      r0,[r1,#0]
        0x08004958:    4608        .F      MOV      r0,r1
        0x0800495a:    6800        .h      LDR      r0,[r0,#0]
        0x0800495c:    2800        .(      CMP      r0,#0
        0x0800495e:    d14e        N.      BNE      0x80049fe ; xTaskResumeAll + 214
        0x08004960:    482a        *H      LDR      r0,[pc,#168] ; [0x8004a0c] = 0x20000024
        0x08004962:    6800        .h      LDR      r0,[r0,#0]
        0x08004964:    2800        .(      CMP      r0,#0
        0x08004966:    d04a        J.      BEQ      0x80049fe ; xTaskResumeAll + 214
        0x08004968:    e023        #.      B        0x80049b2 ; xTaskResumeAll + 138
        0x0800496a:    4829        )H      LDR      r0,[pc,#164] ; [0x8004a10] = 0x20000640
        0x0800496c:    68c0        .h      LDR      r0,[r0,#0xc]
        0x0800496e:    68c4        .h      LDR      r4,[r0,#0xc]
        0x08004970:    f1040018    ....    ADD      r0,r4,#0x18
        0x08004974:    f7fefea7    ....    BL       uxListRemove ; 0x80036c6
        0x08004978:    1d20         .      ADDS     r0,r4,#4
        0x0800497a:    f7fefea4    ....    BL       uxListRemove ; 0x80036c6
        0x0800497e:    4925        %I      LDR      r1,[pc,#148] ; [0x8004a14] = 0x2000002c
        0x08004980:    6ae0        .j      LDR      r0,[r4,#0x2c]
        0x08004982:    6809        .h      LDR      r1,[r1,#0]
        0x08004984:    4288        .B      CMP      r0,r1
        0x08004986:    d902        ..      BLS      0x800498e ; xTaskResumeAll + 102
        0x08004988:    4922        "I      LDR      r1,[pc,#136] ; [0x8004a14] = 0x2000002c
        0x0800498a:    6ae0        .j      LDR      r0,[r4,#0x2c]
        0x0800498c:    6008        .`      STR      r0,[r1,#0]
        0x0800498e:    6ae1        .j      LDR      r1,[r4,#0x2c]
        0x08004990:    eb010181    ....    ADD      r1,r1,r1,LSL #2
        0x08004994:    4a20         J      LDR      r2,[pc,#128] ; [0x8004a18] = 0x200001b8
        0x08004996:    eb020081    ....    ADD      r0,r2,r1,LSL #2
        0x0800499a:    1d21        !.      ADDS     r1,r4,#4
        0x0800499c:    f7fefeea    ....    BL       vListInsertEnd ; 0x8003774
        0x080049a0:    491e        .I      LDR      r1,[pc,#120] ; [0x8004a1c] = 0x20000014
        0x080049a2:    6ae0        .j      LDR      r0,[r4,#0x2c]
        0x080049a4:    6809        .h      LDR      r1,[r1,#0]
        0x080049a6:    6ac9        .j      LDR      r1,[r1,#0x2c]
        0x080049a8:    4288        .B      CMP      r0,r1
        0x080049aa:    d302        ..      BCC      0x80049b2 ; xTaskResumeAll + 138
        0x080049ac:    2001        .       MOVS     r0,#1
        0x080049ae:    491c        .I      LDR      r1,[pc,#112] ; [0x8004a20] = 0x20000038
        0x080049b0:    6008        .`      STR      r0,[r1,#0]
        0x080049b2:    4817        .H      LDR      r0,[pc,#92] ; [0x8004a10] = 0x20000640
        0x080049b4:    6800        .h      LDR      r0,[r0,#0]
        0x080049b6:    b908        ..      CBNZ     r0,0x80049bc ; xTaskResumeAll + 148
        0x080049b8:    2001        .       MOVS     r0,#1
        0x080049ba:    e000        ..      B        0x80049be ; xTaskResumeAll + 150
        0x080049bc:    2000        .       MOVS     r0,#0
        0x080049be:    2800        .(      CMP      r0,#0
        0x080049c0:    d0d3        ..      BEQ      0x800496a ; xTaskResumeAll + 66
        0x080049c2:    b10c        ..      CBZ      r4,0x80049c8 ; xTaskResumeAll + 160
        0x080049c4:    f7fefcb0    ....    BL       prvResetNextTaskUnblockTime ; 0x8003328
        0x080049c8:    4816        .H      LDR      r0,[pc,#88] ; [0x8004a24] = 0x20000034
        0x080049ca:    6805        .h      LDR      r5,[r0,#0]
        0x080049cc:    b165        e.      CBZ      r5,0x80049e8 ; xTaskResumeAll + 192
        0x080049ce:    bf00        ..      NOP      
        0x080049d0:    f7fffe6a    ..j.    BL       xTaskIncrementTick ; 0x80046a8
        0x080049d4:    b110        ..      CBZ      r0,0x80049dc ; xTaskResumeAll + 180
        0x080049d6:    2001        .       MOVS     r0,#1
        0x080049d8:    4911        .I      LDR      r1,[pc,#68] ; [0x8004a20] = 0x20000038
        0x080049da:    6008        .`      STR      r0,[r1,#0]
        0x080049dc:    1e6d        m.      SUBS     r5,r5,#1
        0x080049de:    2d00        .-      CMP      r5,#0
        0x080049e0:    d1f6        ..      BNE      0x80049d0 ; xTaskResumeAll + 168
        0x080049e2:    2000        .       MOVS     r0,#0
        0x080049e4:    490f        .I      LDR      r1,[pc,#60] ; [0x8004a24] = 0x20000034
        0x080049e6:    6008        .`      STR      r0,[r1,#0]
        0x080049e8:    480d        .H      LDR      r0,[pc,#52] ; [0x8004a20] = 0x20000038
        0x080049ea:    6800        .h      LDR      r0,[r0,#0]
        0x080049ec:    b138        8.      CBZ      r0,0x80049fe ; xTaskResumeAll + 214
        0x080049ee:    2601        .&      MOVS     r6,#1
        0x080049f0:    0730        0.      LSLS     r0,r6,#28
        0x080049f2:    490d        .I      LDR      r1,[pc,#52] ; [0x8004a28] = 0xe000ed04
        0x080049f4:    6008        .`      STR      r0,[r1,#0]
        0x080049f6:    f3bf8f4f    ..O.    DSB      
        0x080049fa:    f3bf8f6f    ..o.    ISB      
        0x080049fe:    f7fefeef    ....    BL       vPortExitCritical ; 0x80037e0
        0x08004a02:    4630        0F      MOV      r0,r6
        0x08004a04:    bd70        p.      POP      {r4-r6,pc}
    $d
        0x08004a06:    0000        ..      DCW    0
        0x08004a08:    2000004c    L..     DCD    536870988
        0x08004a0c:    20000024    $..     DCD    536870948
        0x08004a10:    20000640    @..     DCD    536872512
        0x08004a14:    2000002c    ,..     DCD    536870956
        0x08004a18:    200001b8    ...     DCD    536871352
        0x08004a1c:    20000014    ...     DCD    536870932
        0x08004a20:    20000038    8..     DCD    536870968
        0x08004a24:    20000034    4..     DCD    536870964
        0x08004a28:    e000ed04    ....    DCD    3758157060
    $t
    i.xTimerCreateTimerTask
    xTimerCreateTimerTask
        0x08004a2c:    b510        ..      PUSH     {r4,lr}
        0x08004a2e:    b086        ..      SUB      sp,sp,#0x18
        0x08004a30:    2400        .$      MOVS     r4,#0
        0x08004a32:    f7fef8ef    ....    BL       prvCheckForValidListAndQueue ; 0x8002c14
        0x08004a36:    4816        .H      LDR      r0,[pc,#88] ; [0x8004a90] = 0x20000058
        0x08004a38:    6800        .h      LDR      r0,[r0,#0]
        0x08004a3a:    b1d0        ..      CBZ      r0,0x8004a72 ; xTimerCreateTimerTask + 70
        0x08004a3c:    2000        .       MOVS     r0,#0
        0x08004a3e:    9005        ..      STR      r0,[sp,#0x14]
        0x08004a40:    9004        ..      STR      r0,[sp,#0x10]
        0x08004a42:    aa03        ..      ADD      r2,sp,#0xc
        0x08004a44:    a904        ..      ADD      r1,sp,#0x10
        0x08004a46:    a805        ..      ADD      r0,sp,#0x14
        0x08004a48:    f7fefe5e    ..^.    BL       vApplicationGetTimerTaskMemory ; 0x8003708
        0x08004a4c:    2202        ."      MOVS     r2,#2
        0x08004a4e:    e9dd1004    ....    LDRD     r1,r0,[sp,#0x10]
        0x08004a52:    2300        .#      MOVS     r3,#0
        0x08004a54:    e9cd2100    ...!    STRD     r2,r1,[sp,#0]
        0x08004a58:    9002        ..      STR      r0,[sp,#8]
        0x08004a5a:    a10e        ..      ADR      r1,{pc}+0x3a ; 0x8004a94
        0x08004a5c:    480f        .H      LDR      r0,[pc,#60] ; [0x8004a9c] = 0x800346d
        0x08004a5e:    9a03        ..      LDR      r2,[sp,#0xc]
        0x08004a60:    f7fffdae    ....    BL       xTaskCreateStatic ; 0x80045c0
        0x08004a64:    490e        .I      LDR      r1,[pc,#56] ; [0x8004aa0] = 0x2000005c
        0x08004a66:    6008        .`      STR      r0,[r1,#0]
        0x08004a68:    4608        .F      MOV      r0,r1
        0x08004a6a:    6800        .h      LDR      r0,[r0,#0]
        0x08004a6c:    b100        ..      CBZ      r0,0x8004a70 ; xTimerCreateTimerTask + 68
        0x08004a6e:    2401        .$      MOVS     r4,#1
        0x08004a70:    bf00        ..      NOP      
        0x08004a72:    b954        T.      CBNZ     r4,0x8004a8a ; xTimerCreateTimerTask + 94
        0x08004a74:    bf00        ..      NOP      
        0x08004a76:    2050        P       MOVS     r0,#0x50
        0x08004a78:    f3808811    ....    MSR      BASEPRI,r0
        0x08004a7c:    f3bf8f4f    ..O.    DSB      
        0x08004a80:    f3bf8f6f    ..o.    ISB      
        0x08004a84:    bf00        ..      NOP      
        0x08004a86:    bf00        ..      NOP      
        0x08004a88:    e7fe        ..      B        0x8004a88 ; xTimerCreateTimerTask + 92
        0x08004a8a:    4620         F      MOV      r0,r4
        0x08004a8c:    b006        ..      ADD      sp,sp,#0x18
        0x08004a8e:    bd10        ..      POP      {r4,pc}
    $d
        0x08004a90:    20000058    X..     DCD    536871000
        0x08004a94:    20726d54    Tmr     DCD    544370004
        0x08004a98:    00637653    Svc.    DCD    6518355
        0x08004a9c:    0800346d    m4..    DCD    134231149
        0x08004aa0:    2000005c    \..     DCD    536871004
    $t
    i.xTimerGenericCommand
    xTimerGenericCommand
        0x08004aa4:    e92d47ff    -..G    PUSH     {r0-r10,lr}
        0x08004aa8:    4604        .F      MOV      r4,r0
        0x08004aaa:    460d        .F      MOV      r5,r1
        0x08004aac:    4616        .F      MOV      r6,r2
        0x08004aae:    461f        .F      MOV      r7,r3
        0x08004ab0:    f8dd8030    ..0.    LDR      r8,[sp,#0x30]
        0x08004ab4:    f04f0900    O...    MOV      r9,#0
        0x08004ab8:    b954        T.      CBNZ     r4,0x8004ad0 ; xTimerGenericCommand + 44
        0x08004aba:    bf00        ..      NOP      
        0x08004abc:    2050        P       MOVS     r0,#0x50
        0x08004abe:    f3808811    ....    MSR      BASEPRI,r0
        0x08004ac2:    f3bf8f4f    ..O.    DSB      
        0x08004ac6:    f3bf8f6f    ..o.    ISB      
        0x08004aca:    bf00        ..      NOP      
        0x08004acc:    bf00        ..      NOP      
        0x08004ace:    e7fe        ..      B        0x8004ace ; xTimerGenericCommand + 42
        0x08004ad0:    4814        .H      LDR      r0,[pc,#80] ; [0x8004b24] = 0x20000058
        0x08004ad2:    6800        .h      LDR      r0,[r0,#0]
        0x08004ad4:    b310        ..      CBZ      r0,0x8004b1c ; xTimerGenericCommand + 120
        0x08004ad6:    9500        ..      STR      r5,[sp,#0]
        0x08004ad8:    9601        ..      STR      r6,[sp,#4]
        0x08004ada:    9402        ..      STR      r4,[sp,#8]
        0x08004adc:    2d06        .-      CMP      r5,#6
        0x08004ade:    da15        ..      BGE      0x8004b0c ; xTimerGenericCommand + 104
        0x08004ae0:    f7fffdcc    ....    BL       xTaskGetSchedulerState ; 0x800467c
        0x08004ae4:    2802        .(      CMP      r0,#2
        0x08004ae6:    d108        ..      BNE      0x8004afa ; xTimerGenericCommand + 86
        0x08004ae8:    2300        .#      MOVS     r3,#0
        0x08004aea:    4642        BF      MOV      r2,r8
        0x08004aec:    4669        iF      MOV      r1,sp
        0x08004aee:    480d        .H      LDR      r0,[pc,#52] ; [0x8004b24] = 0x20000058
        0x08004af0:    6800        .h      LDR      r0,[r0,#0]
        0x08004af2:    f7fffae7    ....    BL       xQueueGenericSend ; 0x80040c4
        0x08004af6:    4681        .F      MOV      r9,r0
        0x08004af8:    e010        ..      B        0x8004b1c ; xTimerGenericCommand + 120
        0x08004afa:    2300        .#      MOVS     r3,#0
        0x08004afc:    461a        .F      MOV      r2,r3
        0x08004afe:    4669        iF      MOV      r1,sp
        0x08004b00:    4808        .H      LDR      r0,[pc,#32] ; [0x8004b24] = 0x20000058
        0x08004b02:    6800        .h      LDR      r0,[r0,#0]
        0x08004b04:    f7fffade    ....    BL       xQueueGenericSend ; 0x80040c4
        0x08004b08:    4681        .F      MOV      r9,r0
        0x08004b0a:    e007        ..      B        0x8004b1c ; xTimerGenericCommand + 120
        0x08004b0c:    2300        .#      MOVS     r3,#0
        0x08004b0e:    463a        :F      MOV      r2,r7
        0x08004b10:    4669        iF      MOV      r1,sp
        0x08004b12:    4804        .H      LDR      r0,[pc,#16] ; [0x8004b24] = 0x20000058
        0x08004b14:    6800        .h      LDR      r0,[r0,#0]
        0x08004b16:    f7fffba9    ....    BL       xQueueGenericSendFromISR ; 0x800426c
        0x08004b1a:    4681        .F      MOV      r9,r0
        0x08004b1c:    4648        HF      MOV      r0,r9
        0x08004b1e:    b004        ..      ADD      sp,sp,#0x10
        0x08004b20:    e8bd87f0    ....    POP      {r4-r10,pc}
    $d
        0x08004b24:    20000058    X..     DCD    536871000
    $d.realdata
    .constdata
    defaultTask_attributes
        0x08004b28:    08004b64    dK..    DCD    134237028
        0x08004b2c:    00000000    ....    DCD    0
        0x08004b30:    00000000    ....    DCD    0
        0x08004b34:    00000000    ....    DCD    0
        0x08004b38:    00000000    ....    DCD    0
        0x08004b3c:    00000200    ....    DCD    512
        0x08004b40:    00000018    ....    DCD    24
        0x08004b44:    00000000    ....    DCD    0
        0x08004b48:    00000000    ....    DCD    0
    .constdata
    AHBPrescTable
        0x08004b4c:    00000000    ....    DCD    0
        0x08004b50:    00000000    ....    DCD    0
        0x08004b54:    04030201    ....    DCD    67305985
        0x08004b58:    09080706    ....    DCD    151521030
    APBPrescTable
        0x08004b5c:    00000000    ....    DCD    0
        0x08004b60:    04030201    ....    DCD    67305985
    .conststring
        0x08004b64:    61666564    defa    DCD    1634100580
        0x08004b68:    54746c75    ultT    DCD    1416916085
        0x08004b6c:    006b7361    ask.    DCD    7041889
    Region$$Table$$Base
        0x08004b70:    08004b90    .K..    DCD    134237072
        0x08004b74:    20000000    ...     DCD    536870912
        0x08004b78:    000000c8    ....    DCD    200
        0x08004b7c:    08002054    T ..    DCD    134226004
        0x08004b80:    08004c58    XL..    DCD    134237272
        0x08004b84:    200000c8    ...     DCD    536871112
        0x08004b88:    00004e68    hN..    DCD    20072
        0x08004b8c:    08002064    d ..    DCD    134226020
    Region$$Table$$Limit

** Section #2 'RW_IRAM1' (SHT_PROGBITS) [SHF_ALLOC + SHF_WRITE]
    Size   : 200 bytes (alignment 4)
    Address: 0x20000000


** Section #3 'RW_IRAM1' (SHT_NOBITS) [SHF_ALLOC + SHF_WRITE]
    Size   : 20072 bytes (alignment 8)
    Address: 0x200000c8


** Section #4 '.debug_abbrev' (SHT_PROGBITS)
    Size   : 1476 bytes


** Section #5 '.debug_frame' (SHT_PROGBITS)
    Size   : 5656 bytes


** Section #6 '.debug_info' (SHT_PROGBITS)
    Size   : 123776 bytes


** Section #7 '.debug_line' (SHT_PROGBITS)
    Size   : 43340 bytes


** Section #8 '.debug_loc' (SHT_PROGBITS)
    Size   : 13168 bytes


** Section #9 '.debug_macinfo' (SHT_PROGBITS)
    Size   : 534004 bytes


** Section #10 '.debug_pubnames' (SHT_PROGBITS)
    Size   : 5847 bytes


** Section #11 '.symtab' (SHT_SYMTAB)
    Size   : 14928 bytes (alignment 4)
    String table #12 '.strtab'
    Last local symbol no. 640


** Section #12 '.strtab' (SHT_STRTAB)
    Size   : 14744 bytes


** Section #13 '.note' (SHT_NOTE)
    Size   : 28 bytes (alignment 4)


** Section #14 '.comment' (SHT_PROGBITS)
    Size   : 66772 bytes


** Section #15 '.shstrtab' (SHT_STRTAB)
    Size   : 156 bytes


address     size       variable name                            type
0x200000b0  0x8        handler_1_os_critical                    handler_os_critical_t
0x200000b0  0x4        handler_1_os_critical.pf_os_critical_enter pointer to function 
0x200000b4  0x4        handler_1_os_critical.pf_os_critical_exit pointer to function 

address     size       variable name                            type
0x2000009c  0x4        handler_1_os_delay                       handler_os_delay_t
0x2000009c  0x4        handler_1_os_delay.pf_os_delay_ms        pointer to function 

address     size       variable name                            type
0x200000a0  0x10       handler_1_os_queue                       handler_os_queue_t
0x200000a0  0x4        handler_1_os_queue.pf_os_queue_create    pointer to function 
0x200000a4  0x4        handler_1_os_queue.pf_os_queue_put       pointer to function 
0x200000a8  0x4        handler_1_os_queue.pf_os_queue_get       pointer to function 
0x200000ac  0x4        handler_1_os_queue.pf_os_queue_delete    pointer to function 

address     size       variable name                            type
0x200000bc  0x8        handler_1_os_thread                      handler_os_thread_t
0x200000bc  0x4        handler_1_os_thread.pf_os_thread_create  pointer to function 
0x200000c0  0x4        handler_1_os_thread.pf_os_thread_delete  pointer to function 

address     size       variable name                            type
0x200000b8  0x4        handler_1_time_base                      handler_time_base_ms_t
0x200000b8  0x4        handler_1_time_base.pf_get_time_ms       pointer to function 

address     size       variable name                            type
0x20000094  0x8        led_operations_myown                     led_operations_t
0x20000094  0x4        led_operations_myown.pf_led_on           pointer to function 
0x20000098  0x4        led_operations_myown.pf_led_off          pointer to function 

address     size       variable name                            type
0x20004b08  0x14       s_led_driver_1                           bsp_led_driver_t
0x20004b08  0x1      * s_led_driver_1.is_inited                 uint8_t
0x20004b0c  0x4        s_led_driver_1.cycle_time_ms             uint32_t
0x20004b10  0x4        s_led_driver_1.blink_times               uint32_t
0x20004b14  0x1      * s_led_driver_1.proportion_on_off         proportion_t
0x20004b18  0x4        s_led_driver_1.p_led_opes_inst           pointer to led_operations_t

address     size       variable name                            type
0x20004b1c  0x14       s_led_driver_2                           bsp_led_driver_t
0x20004b1c  0x1      * s_led_driver_2.is_inited                 uint8_t
0x20004b20  0x4        s_led_driver_2.cycle_time_ms             uint32_t
0x20004b24  0x4        s_led_driver_2.blink_times               uint32_t
0x20004b28  0x1      * s_led_driver_2.proportion_on_off         proportion_t
0x20004b2c  0x4        s_led_driver_2.p_led_opes_inst           pointer to led_operations_t

address     size       variable name                            type
0x20004ab4  0x54       s_led_handler                            bsp_led_handler_t
0x20004ab4  0x1      * s_led_handler.is_inited                  uint8_t
0x20004ab8  0x2c       s_led_handler.instances                  instance_registered_t
0x20004ab8  0x4        s_led_handler.instances.led_instance_num uint32_t
0x20004abc  0x28       s_led_handler.instances.led_instance_group array[10] of pointer to bsp_led_driver_t
0x20004ae4  0x4        s_led_handler.queue_handler              pointer to unknown Type 
0x20004ae8  0x4        s_led_handler.thread_handler             pointer to unknown Type 
0x20004aec  0x4        s_led_handler.p_time_base_ms             pointer to handler_time_base_ms_t
0x20004af0  0x4        s_led_handler.p_os_time_delay            pointer to handler_os_delay_t
0x20004af4  0x4        s_led_handler.p_os_queue                 pointer to handler_os_queue_t
0x20004af8  0x4        s_led_handler.p_os_critical              pointer to handler_os_critical_t
0x20004afc  0x4        s_led_handler.p_os_thread                pointer to handler_os_thread_t
0x20004b00  0x4        s_led_handler.pf_led_controler           pf_handler_led_control_t
0x20004b04  0x4        s_led_handler.pf_led_register            pf_handler_led_register_t

address     size       variable name                            type
0x20004aa0  0x14       sct_led_driver                           bsp_led_driver_t
0x20004aa0  0x1      * sct_led_driver.is_inited                 uint8_t
0x20004aa4  0x4        sct_led_driver.cycle_time_ms             uint32_t
0x20004aa8  0x4        sct_led_driver.blink_times               uint32_t
0x20004aac  0x1      * sct_led_driver.proportion_on_off         proportion_t
0x20004ab0  0x4        sct_led_driver.p_led_opes_inst           pointer to led_operations_t

address     size       variable name                            type
0x20004a4c  0x54       sct_led_handler                          bsp_led_handler_t
0x20004a4c  0x1      * sct_led_handler.is_inited                uint8_t
0x20004a50  0x2c       sct_led_handler.instances                instance_registered_t
0x20004a50  0x4        sct_led_handler.instances.led_instance_num uint32_t
0x20004a54  0x28       sct_led_handler.instances.led_instance_group array[10] of pointer to bsp_led_driver_t
0x20004a7c  0x4        sct_led_handler.queue_handler            pointer to unknown Type 
0x20004a80  0x4        sct_led_handler.thread_handler           pointer to unknown Type 
0x20004a84  0x4        sct_led_handler.p_time_base_ms           pointer to handler_time_base_ms_t
0x20004a88  0x4        sct_led_handler.p_os_time_delay          pointer to handler_os_delay_t
0x20004a8c  0x4        sct_led_handler.p_os_queue               pointer to handler_os_queue_t
0x20004a90  0x4        sct_led_handler.p_os_critical            pointer to handler_os_critical_t
0x20004a94  0x4        sct_led_handler.p_os_thread              pointer to handler_os_thread_t
0x20004a98  0x4        sct_led_handler.pf_led_controler         pf_handler_led_control_t
0x20004a9c  0x4        sct_led_handler.pf_led_register          pf_handler_led_register_t

address     size       variable name                            type
0x2000008c  0x1        ucMaxSysCallPriority                     uint8_t

address     size       variable name                            type
0x20000090  0x4        ulMaxPRIGROUPValue                       uint32_t

address     size       variable name                            type
0x20000088  0x4        uxCriticalNesting                        UBaseType_t

address     size       variable name                            type
0x20000070  0x4        pxEnd                                    pointer to BlockLink_t

address     size       variable name                            type
0x20000e4c  0x3c00     ucHeap                                   array[15360] of uint8_t

address     size       variable name                            type
0x20000084  0x4        xBlockAllocatedBit                       size_t

address     size       variable name                            type
0x20000074  0x4        xFreeBytesRemaining                      size_t

address     size       variable name                            type
0x20000078  0x4        xMinimumEverFreeBytesRemaining           size_t

address     size       variable name                            type
0x2000007c  0x4        xNumberOfSuccessfulAllocations           size_t

address     size       variable name                            type
0x20000080  0x4        xNumberOfSuccessfulFrees                 size_t

address     size       variable name                            type
0x20000068  0x8        xStart                                   BlockLink_t
0x20000068  0x4        xStart.pxNextFreeBlock                   pointer to A_BLOCK_LINK
0x2000006c  0x4        xStart.xBlockSize                        size_t

address     size       variable name                            type
0x20000064  0x4        KernelState                              osKernelState_t

address     size       variable name                            type
0x20000050  0x4        pxCurrentTimerList                       pointer to List_t

address     size       variable name                            type
0x20000054  0x4        pxOverflowTimerList                      pointer to List_t

address     size       variable name                            type
0x2000067c  0x14       xActiveTimerList1                        List_t
0x2000067c  0x4        xActiveTimerList1.uxNumberOfItems        volatile UBaseType_t
0x20000680  0x4        xActiveTimerList1.pxIndex                pointer to ListItem_t
0x20000684  0xc        xActiveTimerList1.xListEnd               MiniListItem_t
0x20000684  0x4        xActiveTimerList1.xListEnd.xItemValue    TickType_t
0x20000688  0x4        xActiveTimerList1.xListEnd.pxNext        pointer to xLIST_ITEM
0x2000068c  0x4        xActiveTimerList1.xListEnd.pxPrevious    pointer to xLIST_ITEM

address     size       variable name                            type
0x20000690  0x14       xActiveTimerList2                        List_t
0x20000690  0x4        xActiveTimerList2.uxNumberOfItems        volatile UBaseType_t
0x20000694  0x4        xActiveTimerList2.pxIndex                pointer to ListItem_t
0x20000698  0xc        xActiveTimerList2.xListEnd               MiniListItem_t
0x20000698  0x4        xActiveTimerList2.xListEnd.xItemValue    TickType_t
0x2000069c  0x4        xActiveTimerList2.xListEnd.pxNext        pointer to xLIST_ITEM
0x200006a0  0x4        xActiveTimerList2.xListEnd.pxPrevious    pointer to xLIST_ITEM

address     size       variable name                            type
0x20000058  0x4        xTimerQueue                              QueueHandle_t

address     size       variable name                            type
0x2000005c  0x4        xTimerTaskHandle                         TaskHandle_t

address     size       variable name                            type
0x20000014  0x4        pxCurrentTCB                             volatile pointer to TCB_t

address     size       variable name                            type
0x20000018  0x4        pxDelayedTaskList                        volatile pointer to List_t

address     size       variable name                            type
0x2000001c  0x4        pxOverflowDelayedTaskList                volatile pointer to List_t

address     size       variable name                            type
0x200001b8  0x460      pxReadyTasksLists                        array[56] of List_t

address     size       variable name                            type
0x20000024  0x4        uxCurrentNumberOfTasks                   volatile UBaseType_t

address     size       variable name                            type
0x20000020  0x4        uxDeletedTasksWaitingCleanUp             volatile UBaseType_t

address     size       variable name                            type
0x2000004c  0x4        uxSchedulerSuspended                     volatile UBaseType_t

address     size       variable name                            type
0x20000040  0x4        uxTaskNumber                             UBaseType_t

address     size       variable name                            type
0x2000002c  0x4        uxTopReadyPriority                       volatile UBaseType_t

address     size       variable name                            type
0x20000618  0x14       xDelayedTaskList1                        List_t
0x20000618  0x4        xDelayedTaskList1.uxNumberOfItems        volatile UBaseType_t
0x2000061c  0x4        xDelayedTaskList1.pxIndex                pointer to ListItem_t
0x20000620  0xc        xDelayedTaskList1.xListEnd               MiniListItem_t
0x20000620  0x4        xDelayedTaskList1.xListEnd.xItemValue    TickType_t
0x20000624  0x4        xDelayedTaskList1.xListEnd.pxNext        pointer to xLIST_ITEM
0x20000628  0x4        xDelayedTaskList1.xListEnd.pxPrevious    pointer to xLIST_ITEM

address     size       variable name                            type
0x2000062c  0x14       xDelayedTaskList2                        List_t
0x2000062c  0x4        xDelayedTaskList2.uxNumberOfItems        volatile UBaseType_t
0x20000630  0x4        xDelayedTaskList2.pxIndex                pointer to ListItem_t
0x20000634  0xc        xDelayedTaskList2.xListEnd               MiniListItem_t
0x20000634  0x4        xDelayedTaskList2.xListEnd.xItemValue    TickType_t
0x20000638  0x4        xDelayedTaskList2.xListEnd.pxNext        pointer to xLIST_ITEM
0x2000063c  0x4        xDelayedTaskList2.xListEnd.pxPrevious    pointer to xLIST_ITEM

address     size       variable name                            type
0x20000048  0x4        xIdleTaskHandle                          TaskHandle_t

address     size       variable name                            type
0x20000044  0x4        xNextTaskUnblockTime                     volatile TickType_t

address     size       variable name                            type
0x2000003c  0x4        xNumOfOverflows                          volatile BaseType_t

address     size       variable name                            type
0x20000034  0x4        xPendedTicks                             volatile TickType_t

address     size       variable name                            type
0x20000640  0x14       xPendingReadyList                        List_t
0x20000640  0x4        xPendingReadyList.uxNumberOfItems        volatile UBaseType_t
0x20000644  0x4        xPendingReadyList.pxIndex                pointer to ListItem_t
0x20000648  0xc        xPendingReadyList.xListEnd               MiniListItem_t
0x20000648  0x4        xPendingReadyList.xListEnd.xItemValue    TickType_t
0x2000064c  0x4        xPendingReadyList.xListEnd.pxNext        pointer to xLIST_ITEM
0x20000650  0x4        xPendingReadyList.xListEnd.pxPrevious    pointer to xLIST_ITEM

address     size       variable name                            type
0x20000030  0x4        xSchedulerRunning                        volatile BaseType_t

address     size       variable name                            type
0x20000668  0x14       xSuspendedTaskList                       List_t
0x20000668  0x4        xSuspendedTaskList.uxNumberOfItems       volatile UBaseType_t
0x2000066c  0x4        xSuspendedTaskList.pxIndex               pointer to ListItem_t
0x20000670  0xc        xSuspendedTaskList.xListEnd              MiniListItem_t
0x20000670  0x4        xSuspendedTaskList.xListEnd.xItemValue   TickType_t
0x20000674  0x4        xSuspendedTaskList.xListEnd.pxNext       pointer to xLIST_ITEM
0x20000678  0x4        xSuspendedTaskList.xListEnd.pxPrevious   pointer to xLIST_ITEM

address     size       variable name                            type
0x20000654  0x14       xTasksWaitingTermination                 List_t
0x20000654  0x4        xTasksWaitingTermination.uxNumberOfItems volatile UBaseType_t
0x20000658  0x4        xTasksWaitingTermination.pxIndex         pointer to ListItem_t
0x2000065c  0xc        xTasksWaitingTermination.xListEnd        MiniListItem_t
0x2000065c  0x4        xTasksWaitingTermination.xListEnd.xItemValue TickType_t
0x20000660  0x4        xTasksWaitingTermination.xListEnd.pxNext pointer to xLIST_ITEM
0x20000664  0x4        xTasksWaitingTermination.xListEnd.pxPrevious pointer to xLIST_ITEM

address     size       variable name                            type
0x20000028  0x4        xTickCount                               volatile TickType_t

address     size       variable name                            type
0x20000038  0x4        xYieldPending                            volatile BaseType_t

address     size       variable name                            type
0x20000178  0x40       xQueueRegistry                           array[8] of QueueRegistryItem_t

address     size       variable name                            type
0x08004b4c  0x10       AHBPrescTable                            array[16] of const uint8_t

address     size       variable name                            type
0x08004b5c  0x8        APBPrescTable                            array[8] of const uint8_t

address     size       variable name                            type
0x20000010  0x4        SystemCoreClock                          uint32_t

address     size       variable name                            type
0x20000004  0x4        uwTick                                   volatile uint32_t

address     size       variable name                            type
0x2000000c  0x1        uwTickFreq                               HAL_TickFreqTypeDef

address     size       variable name                            type
0x20000008  0x4        uwTickPrio                               uint32_t

address     size       variable name                            type
0x20000130  0x48       htim1                                    TIM_HandleTypeDef
0x20000130  0x4        htim1.Instance                           pointer to TIM_TypeDef
0x20000134  0x18       htim1.Init                               TIM_Base_InitTypeDef
0x20000134  0x4        htim1.Init.Prescaler                     uint32_t
0x20000138  0x4        htim1.Init.CounterMode                   uint32_t
0x2000013c  0x4        htim1.Init.Period                        uint32_t
0x20000140  0x4        htim1.Init.ClockDivision                 uint32_t
0x20000144  0x4        htim1.Init.RepetitionCounter             uint32_t
0x20000148  0x4        htim1.Init.AutoReloadPreload             uint32_t
0x2000014c  0x1      * htim1.Channel                            HAL_TIM_ActiveChannel
0x20000150  0x1c       htim1.hdma                               array[7] of pointer to DMA_HandleTypeDef
0x2000016c  0x1        htim1.Lock                               HAL_LockTypeDef
0x2000016d  0x1        htim1.State                              volatile HAL_TIM_StateTypeDef
0x2000016e  0x4        htim1.ChannelState                       array[4] of volatile HAL_TIM_ChannelStateTypeDef
0x20000172  0x4        htim1.ChannelNState                      array[4] of volatile HAL_TIM_ChannelStateTypeDef
0x20000176  0x1        htim1.DMABurstState                      volatile HAL_TIM_DMABurstStateTypeDef

address     size       variable name                            type
0x200000e8  0x48       huart1                                   UART_HandleTypeDef
0x200000e8  0x4        huart1.Instance                          pointer to USART_TypeDef
0x200000ec  0x1c       huart1.Init                              UART_InitTypeDef
0x200000ec  0x4        huart1.Init.BaudRate                     uint32_t
0x200000f0  0x4        huart1.Init.WordLength                   uint32_t
0x200000f4  0x4        huart1.Init.StopBits                     uint32_t
0x200000f8  0x4        huart1.Init.Parity                       uint32_t
0x200000fc  0x4        huart1.Init.Mode                         uint32_t
0x20000100  0x4        huart1.Init.HwFlowCtl                    uint32_t
0x20000104  0x4        huart1.Init.OverSampling                 uint32_t
0x20000108  0x4        huart1.pTxBuffPtr                        pointer to const uint8_t
0x2000010c  0x2        huart1.TxXferSize                        uint16_t
0x2000010e  0x2        huart1.TxXferCount                       volatile uint16_t
0x20000110  0x4        huart1.pRxBuffPtr                        pointer to uint8_t
0x20000114  0x2        huart1.RxXferSize                        uint16_t
0x20000116  0x2        huart1.RxXferCount                       volatile uint16_t
0x20000118  0x4        huart1.ReceptionType                     volatile HAL_UART_RxTypeTypeDef
0x2000011c  0x4        huart1.RxEventType                       volatile HAL_UART_RxEventTypeTypeDef
0x20000120  0x4        huart1.hdmatx                            pointer to DMA_HandleTypeDef
0x20000124  0x4        huart1.hdmarx                            pointer to DMA_HandleTypeDef
0x20000128  0x1        huart1.Lock                              HAL_LockTypeDef
0x20000129  0x1        huart1.gState                            volatile HAL_UART_StateTypeDef
0x2000012a  0x1      * huart1.RxState                           volatile HAL_UART_StateTypeDef
0x2000012c  0x4        huart1.ErrorCode                         volatile uint32_t

address     size       variable name                            type
0x200000c8  0x20       hrtc                                     RTC_HandleTypeDef
0x200000c8  0x4        hrtc.Instance                            pointer to RTC_TypeDef
0x200000cc  0x18       hrtc.Init                                RTC_InitTypeDef
0x200000cc  0x4        hrtc.Init.HourFormat                     uint32_t
0x200000d0  0x4        hrtc.Init.AsynchPrediv                   uint32_t
0x200000d4  0x4        hrtc.Init.SynchPrediv                    uint32_t
0x200000d8  0x4        hrtc.Init.OutPut                         uint32_t
0x200000dc  0x4        hrtc.Init.OutPutPolarity                 uint32_t
0x200000e0  0x4        hrtc.Init.OutPutType                     uint32_t
0x200000e4  0x1        hrtc.Lock                                HAL_LockTypeDef
0x200000e5  0x1        hrtc.State                               volatile HAL_RTCStateTypeDef

address     size       variable name                            type
0x20000000  0x4        defaultTaskHandle                        osThreadId_t

address     size       variable name                            type
0x08004b28  0x24       defaultTask_attributes                   const osThreadAttr_t
0x08004b28  0x4        defaultTask_attributes.name              pointer to const char
0x08004b2c  0x4        defaultTask_attributes.attr_bits         uint32_t
0x08004b30  0x4        defaultTask_attributes.cb_mem            pointer to unknown Type 
0x08004b34  0x4        defaultTask_attributes.cb_size           uint32_t
0x08004b38  0x4        defaultTask_attributes.stack_mem         pointer to unknown Type 
0x08004b3c  0x4        defaultTask_attributes.stack_size        uint32_t
0x08004b40  0x4        defaultTask_attributes.priority          osPriority_t
0x08004b44  0x4        defaultTask_attributes.tz_module         TZ_ModuleId_t
0x08004b48  0x4        defaultTask_attributes.reserved          uint32_t

