
========================================================================

** ELF Header Information

    File Name: C:\Users\32000\Desktop\workspace\Lx\01Class\LxProject\06_Project\MDK-ARM\06_Project\06_Project.axf

    Machine class: ELFCLASS32 (32-bit)
    Data encoding: ELFDATA2LSB (Little endian)
    Header version: EV_CURRENT (Current version)
    Operating System ABI: none
    ABI Version: 0
    File Type: ET_EXEC (Executable) (2)
    Machine: EM_ARM (ARM)

    Image Entry point: 0x08000199
    Flags: EF_ARM_HASENTRY + EF_ARM_ABI_FLOAT_HARD (0x05000402)

    ARM ELF revision: 5 (ABI version 2)

    Conforms to Hard float procedure-call standard

    Built with
    Component: ARM Compiler 5.06 update 7 (build 960) Tool: armasm [4d35fa]
    Component: ARM Compiler 5.06 update 7 (build 960) Tool: armlink [4d3601]

    Header size: 52 bytes (0x34)
    Program header entry size: 32 bytes (0x20)
    Section header entry size: 40 bytes (0x28)

    Program header entries: 1
    Section header entries: 16

    Program header offset: 501736 (0x0007a7e8)
    Section header offset: 501768 (0x0007a808)

    Section header string table index: 15

========================================================================

** Program header #0 (PT_LOAD) [PF_X + PF_W + PF_R + PF_ARM_ENTRY]
    Size : 7232 bytes (5568 bytes in file)
    Virtual address: 0x08000000 (Alignment 8)


========================================================================

** Section #1 'ER_IROM1' (SHT_PROGBITS) [SHF_ALLOC + SHF_EXECINSTR]
    Size   : 5536 bytes (alignment 4)
    Address: 0x08000000

    $d.realdata
    RESET
    __Vectors
        0x08000000:    200006a0    ...     DCD    536872608
        0x08000004:    08000239    9...    DCD    134218297
        0x08000008:    080012e1    ....    DCD    134222561
        0x0800000c:    080011d9    ....    DCD    134222297
        0x08000010:    080012dd    ....    DCD    134222557
        0x08000014:    0800042f    /...    DCD    134218799
        0x08000018:    08001435    5...    DCD    134222901
        0x0800001c:    00000000    ....    DCD    0
        0x08000020:    00000000    ....    DCD    0
        0x08000024:    00000000    ....    DCD    0
        0x08000028:    00000000    ....    DCD    0
        0x0800002c:    0800135f    _...    DCD    134222687
        0x08000030:    08000433    3...    DCD    134218803
        0x08000034:    00000000    ....    DCD    0
        0x08000038:    080012e5    ....    DCD    134222565
        0x0800003c:    08001361    a...    DCD    134222689
        0x08000040:    08000253    S...    DCD    134218323
        0x08000044:    08000253    S...    DCD    134218323
        0x08000048:    08000253    S...    DCD    134218323
        0x0800004c:    08000253    S...    DCD    134218323
        0x08000050:    08000253    S...    DCD    134218323
        0x08000054:    08000253    S...    DCD    134218323
        0x08000058:    08000253    S...    DCD    134218323
        0x0800005c:    08000253    S...    DCD    134218323
        0x08000060:    08000253    S...    DCD    134218323
        0x08000064:    08000253    S...    DCD    134218323
        0x08000068:    08000253    S...    DCD    134218323
        0x0800006c:    08000253    S...    DCD    134218323
        0x08000070:    08000253    S...    DCD    134218323
        0x08000074:    08000253    S...    DCD    134218323
        0x08000078:    08000253    S...    DCD    134218323
        0x0800007c:    08000253    S...    DCD    134218323
        0x08000080:    08000253    S...    DCD    134218323
        0x08000084:    08000253    S...    DCD    134218323
        0x08000088:    08000253    S...    DCD    134218323
        0x0800008c:    00000000    ....    DCD    0
        0x08000090:    00000000    ....    DCD    0
        0x08000094:    00000000    ....    DCD    0
        0x08000098:    00000000    ....    DCD    0
        0x0800009c:    08000253    S...    DCD    134218323
        0x080000a0:    08000253    S...    DCD    134218323
        0x080000a4:    08000253    S...    DCD    134218323
        0x080000a8:    08000253    S...    DCD    134218323
        0x080000ac:    08000253    S...    DCD    134218323
        0x080000b0:    08000253    S...    DCD    134218323
        0x080000b4:    08000253    S...    DCD    134218323
        0x080000b8:    08000253    S...    DCD    134218323
        0x080000bc:    08000253    S...    DCD    134218323
        0x080000c0:    08000253    S...    DCD    134218323
        0x080000c4:    08000253    S...    DCD    134218323
        0x080000c8:    08000253    S...    DCD    134218323
        0x080000cc:    08000253    S...    DCD    134218323
        0x080000d0:    08000253    S...    DCD    134218323
        0x080000d4:    08000253    S...    DCD    134218323
        0x080000d8:    08000253    S...    DCD    134218323
        0x080000dc:    00000000    ....    DCD    0
        0x080000e0:    08000253    S...    DCD    134218323
        0x080000e4:    08000253    S...    DCD    134218323
        0x080000e8:    08000253    S...    DCD    134218323
        0x080000ec:    00000000    ....    DCD    0
        0x080000f0:    00000000    ....    DCD    0
        0x080000f4:    00000000    ....    DCD    0
        0x080000f8:    00000000    ....    DCD    0
        0x080000fc:    08000253    S...    DCD    134218323
        0x08000100:    00000000    ....    DCD    0
        0x08000104:    08000253    S...    DCD    134218323
        0x08000108:    08000253    S...    DCD    134218323
        0x0800010c:    08000253    S...    DCD    134218323
        0x08000110:    00000000    ....    DCD    0
        0x08000114:    00000000    ....    DCD    0
        0x08000118:    00000000    ....    DCD    0
        0x0800011c:    00000000    ....    DCD    0
        0x08000120:    08000253    S...    DCD    134218323
        0x08000124:    08000253    S...    DCD    134218323
        0x08000128:    08000253    S...    DCD    134218323
        0x0800012c:    08000253    S...    DCD    134218323
        0x08000130:    08000253    S...    DCD    134218323
        0x08000134:    00000000    ....    DCD    0
        0x08000138:    00000000    ....    DCD    0
        0x0800013c:    00000000    ....    DCD    0
        0x08000140:    00000000    ....    DCD    0
        0x08000144:    00000000    ....    DCD    0
        0x08000148:    00000000    ....    DCD    0
        0x0800014c:    08000253    S...    DCD    134218323
        0x08000150:    08000253    S...    DCD    134218323
        0x08000154:    08000253    S...    DCD    134218323
        0x08000158:    08000253    S...    DCD    134218323
        0x0800015c:    08000253    S...    DCD    134218323
        0x08000160:    08000253    S...    DCD    134218323
        0x08000164:    08000253    S...    DCD    134218323
        0x08000168:    00000000    ....    DCD    0
        0x0800016c:    00000000    ....    DCD    0
        0x08000170:    00000000    ....    DCD    0
        0x08000174:    00000000    ....    DCD    0
        0x08000178:    00000000    ....    DCD    0
        0x0800017c:    00000000    ....    DCD    0
        0x08000180:    00000000    ....    DCD    0
        0x08000184:    08000253    S...    DCD    134218323
        0x08000188:    00000000    ....    DCD    0
        0x0800018c:    00000000    ....    DCD    0
        0x08000190:    08000253    S...    DCD    134218323
        0x08000194:    08000253    S...    DCD    134218323
    $t
    !!!main
    __Vectors_End
    __main
        0x08000198:    f000f802    ....    BL       __scatterload ; 0x80001a0
        0x0800019c:    f000f83c    ..<.    BL       __rt_entry ; 0x8000218
    !!!scatter
    __scatterload
    __scatterload_rt2
    __scatterload_rt2_thumb_only
        0x080001a0:    a00a        ..      ADR      r0,{pc}+0x2c ; 0x80001cc
        0x080001a2:    e8900c00    ....    LDM      r0,{r10,r11}
        0x080001a6:    4482        .D      ADD      r10,r10,r0
        0x080001a8:    4483        .D      ADD      r11,r11,r0
        0x080001aa:    f1aa0701    ....    SUB      r7,r10,#1
    __scatterload_null
        0x080001ae:    45da        .E      CMP      r10,r11
        0x080001b0:    d101        ..      BNE      0x80001b6 ; __scatterload_null + 8
        0x080001b2:    f000f831    ..1.    BL       __rt_entry ; 0x8000218
        0x080001b6:    f2af0e09    ....    ADR      lr,{pc}-7 ; 0x80001af
        0x080001ba:    e8ba000f    ....    LDM      r10!,{r0-r3}
        0x080001be:    f0130f01    ....    TST      r3,#1
        0x080001c2:    bf18        ..      IT       NE
        0x080001c4:    1afb        ..      SUBNE    r3,r7,r3
        0x080001c6:    f0430301    C...    ORR      r3,r3,#1
        0x080001ca:    4718        .G      BX       r3
    $d
        0x080001cc:    000013b4    ....    DCD    5044
        0x080001d0:    000013d4    ....    DCD    5076
    $t
    !!handler_copy
    __scatterload_copy
        0x080001d4:    3a10        .:      SUBS     r2,r2,#0x10
        0x080001d6:    bf24        $.      ITT      CS
        0x080001d8:    c878        x.      LDMCS    r0!,{r3-r6}
        0x080001da:    c178        x.      STMCS    r1!,{r3-r6}
        0x080001dc:    d8fa        ..      BHI      __scatterload_copy ; 0x80001d4
        0x080001de:    0752        R.      LSLS     r2,r2,#29
        0x080001e0:    bf24        $.      ITT      CS
        0x080001e2:    c830        0.      LDMCS    r0!,{r4,r5}
        0x080001e4:    c130        0.      STMCS    r1!,{r4,r5}
        0x080001e6:    bf44        D.      ITT      MI
        0x080001e8:    6804        .h      LDRMI    r4,[r0,#0]
        0x080001ea:    600c        .`      STRMI    r4,[r1,#0]
        0x080001ec:    4770        pG      BX       lr
        0x080001ee:    0000        ..      MOVS     r0,r0
    !!handler_zi
    __scatterload_zeroinit
        0x080001f0:    2300        .#      MOVS     r3,#0
        0x080001f2:    2400        .$      MOVS     r4,#0
        0x080001f4:    2500        .%      MOVS     r5,#0
        0x080001f6:    2600        .&      MOVS     r6,#0
        0x080001f8:    3a10        .:      SUBS     r2,r2,#0x10
        0x080001fa:    bf28        (.      IT       CS
        0x080001fc:    c178        x.      STMCS    r1!,{r3-r6}
        0x080001fe:    d8fb        ..      BHI      0x80001f8 ; __scatterload_zeroinit + 8
        0x08000200:    0752        R.      LSLS     r2,r2,#29
        0x08000202:    bf28        (.      IT       CS
        0x08000204:    c130        0.      STMCS    r1!,{r4,r5}
        0x08000206:    bf48        H.      IT       MI
        0x08000208:    600b        .`      STRMI    r3,[r1,#0]
        0x0800020a:    4770        pG      BX       lr
    .ARM.Collect$$libinit$$00000000
    __rt_lib_init
        0x0800020c:    b51f        ..      PUSH     {r0-r4,lr}
    .ARM.Collect$$libinit$$00000001
    __rt_lib_init_fp_1
        0x0800020e:    f001f9a5    ....    BL       _fp_init ; 0x800155c
    .ARM.Collect$$libinit$$00000004
    .ARM.Collect$$libinit$$0000000A
    .ARM.Collect$$libinit$$0000000C
    .ARM.Collect$$libinit$$0000000E
    .ARM.Collect$$libinit$$00000011
    .ARM.Collect$$libinit$$00000013
    .ARM.Collect$$libinit$$00000015
    .ARM.Collect$$libinit$$00000017
    .ARM.Collect$$libinit$$00000019
    .ARM.Collect$$libinit$$0000001B
    .ARM.Collect$$libinit$$0000001D
    .ARM.Collect$$libinit$$0000001F
    .ARM.Collect$$libinit$$00000021
    .ARM.Collect$$libinit$$00000023
    .ARM.Collect$$libinit$$00000025
    .ARM.Collect$$libinit$$0000002C
    .ARM.Collect$$libinit$$0000002E
    .ARM.Collect$$libinit$$00000030
    .ARM.Collect$$libinit$$00000032
    .ARM.Collect$$libinit$$00000033
    __rt_lib_init_alloca_1
    __rt_lib_init_argv_1
    __rt_lib_init_atexit_1
    __rt_lib_init_clock_1
    __rt_lib_init_cpp_1
    __rt_lib_init_exceptions_1
    __rt_lib_init_fp_trap_1
    __rt_lib_init_getenv_1
    __rt_lib_init_heap_1
    __rt_lib_init_lc_collate_1
    __rt_lib_init_lc_ctype_1
    __rt_lib_init_lc_monetary_1
    __rt_lib_init_lc_numeric_1
    __rt_lib_init_lc_time_1
    __rt_lib_init_preinit_1
    __rt_lib_init_rand_1
    __rt_lib_init_return
    __rt_lib_init_signal_1
    __rt_lib_init_stdio_1
    __rt_lib_init_user_alloc_1
        0x08000212:    bd1f        ..      POP      {r0-r4,pc}
    .ARM.Collect$$libshutdown$$00000000
    __rt_lib_shutdown
        0x08000214:    b510        ..      PUSH     {r4,lr}
    .ARM.Collect$$libshutdown$$00000002
    .ARM.Collect$$libshutdown$$00000004
    .ARM.Collect$$libshutdown$$00000006
    .ARM.Collect$$libshutdown$$00000009
    .ARM.Collect$$libshutdown$$0000000C
    .ARM.Collect$$libshutdown$$0000000E
    .ARM.Collect$$libshutdown$$00000011
    .ARM.Collect$$libshutdown$$00000012
    __rt_lib_shutdown_cpp_1
    __rt_lib_shutdown_fini_1
    __rt_lib_shutdown_fp_trap_1
    __rt_lib_shutdown_heap_1
    __rt_lib_shutdown_return
    __rt_lib_shutdown_signal_1
    __rt_lib_shutdown_stdio_1
    __rt_lib_shutdown_user_alloc_1
        0x08000216:    bd10        ..      POP      {r4,pc}
    .ARM.Collect$$rtentry$$00000000
    .ARM.Collect$$rtentry$$00000002
    .ARM.Collect$$rtentry$$00000004
    __rt_entry
    __rt_entry_presh_1
    __rt_entry_sh
        0x08000218:    f000f8cf    ....    BL       __user_setup_stackheap ; 0x80003ba
        0x0800021c:    4611        .F      MOV      r1,r2
    .ARM.Collect$$rtentry$$00000009
    .ARM.Collect$$rtentry$$0000000A
    __rt_entry_li
    __rt_entry_postsh_1
        0x0800021e:    f7fffff5    ....    BL       __rt_lib_init ; 0x800020c
    .ARM.Collect$$rtentry$$0000000C
    .ARM.Collect$$rtentry$$0000000D
    __rt_entry_main
    __rt_entry_postli_1
        0x08000222:    f001f98d    ....    BL       main ; 0x8001540
        0x08000226:    f000f8ed    ....    BL       exit ; 0x8000404
    .ARM.Collect$$rtexit$$00000000
    __rt_exit
        0x0800022a:    b403        ..      PUSH     {r0,r1}
    .ARM.Collect$$rtexit$$00000002
    .ARM.Collect$$rtexit$$00000003
    __rt_exit_ls
    __rt_exit_prels_1
        0x0800022c:    f7fffff2    ....    BL       __rt_lib_shutdown ; 0x8000214
    .ARM.Collect$$rtexit$$00000004
    __rt_exit_exit
        0x08000230:    bc03        ..      POP      {r0,r1}
        0x08000232:    f000f8f5    ....    BL       _sys_exit ; 0x8000420
        0x08000236:    0000        ..      MOVS     r0,r0
    .text
    $v0
    Reset_Handler
        0x08000238:    4809        .H      LDR      r0,[pc,#36] ; [0x8000260] = 0x8001421
        0x0800023a:    4780        .G      BLX      r0
        0x0800023c:    4809        .H      LDR      r0,[pc,#36] ; [0x8000264] = 0x8000199
        0x0800023e:    4700        .G      BX       r0
        0x08000240:    e7fe        ..      B        0x8000240 ; Reset_Handler + 8
        0x08000242:    e7fe        ..      B        0x8000242 ; Reset_Handler + 10
        0x08000244:    e7fe        ..      B        0x8000244 ; Reset_Handler + 12
        0x08000246:    e7fe        ..      B        0x8000246 ; Reset_Handler + 14
        0x08000248:    e7fe        ..      B        0x8000248 ; Reset_Handler + 16
        0x0800024a:    e7fe        ..      B        0x800024a ; Reset_Handler + 18
        0x0800024c:    e7fe        ..      B        0x800024c ; Reset_Handler + 20
        0x0800024e:    e7fe        ..      B        0x800024e ; Reset_Handler + 22
        0x08000250:    e7fe        ..      B        0x8000250 ; Reset_Handler + 24
    ADC_IRQHandler
    DMA1_Stream0_IRQHandler
    DMA1_Stream1_IRQHandler
    DMA1_Stream2_IRQHandler
    DMA1_Stream3_IRQHandler
    DMA1_Stream4_IRQHandler
    DMA1_Stream5_IRQHandler
    DMA1_Stream6_IRQHandler
    DMA1_Stream7_IRQHandler
    DMA2_Stream0_IRQHandler
    DMA2_Stream1_IRQHandler
    DMA2_Stream2_IRQHandler
    DMA2_Stream3_IRQHandler
    DMA2_Stream4_IRQHandler
    DMA2_Stream5_IRQHandler
    DMA2_Stream6_IRQHandler
    DMA2_Stream7_IRQHandler
    EXTI0_IRQHandler
    EXTI15_10_IRQHandler
    EXTI1_IRQHandler
    EXTI2_IRQHandler
    EXTI3_IRQHandler
    EXTI4_IRQHandler
    EXTI9_5_IRQHandler
    FLASH_IRQHandler
    FPU_IRQHandler
    I2C1_ER_IRQHandler
    I2C1_EV_IRQHandler
    I2C2_ER_IRQHandler
    I2C2_EV_IRQHandler
    I2C3_ER_IRQHandler
    I2C3_EV_IRQHandler
    OTG_FS_IRQHandler
    OTG_FS_WKUP_IRQHandler
    PVD_IRQHandler
    RCC_IRQHandler
    RTC_Alarm_IRQHandler
    RTC_WKUP_IRQHandler
    SDIO_IRQHandler
    SPI1_IRQHandler
    SPI2_IRQHandler
    SPI3_IRQHandler
    SPI4_IRQHandler
    SPI5_IRQHandler
    TAMP_STAMP_IRQHandler
    TIM1_BRK_TIM9_IRQHandler
    TIM1_CC_IRQHandler
    TIM1_TRG_COM_TIM11_IRQHandler
    TIM1_UP_TIM10_IRQHandler
    TIM2_IRQHandler
    TIM3_IRQHandler
    TIM4_IRQHandler
    TIM5_IRQHandler
    USART1_IRQHandler
    USART2_IRQHandler
    USART6_IRQHandler
    WWDG_IRQHandler
        0x08000252:    e7fe        ..      B        ADC_IRQHandler ; 0x8000252
    __user_initial_stackheap
        0x08000254:    4804        .H      LDR      r0,[pc,#16] ; [0x8000268] = 0x200000a0
        0x08000256:    4905        .I      LDR      r1,[pc,#20] ; [0x800026c] = 0x200006a0
        0x08000258:    4a05        .J      LDR      r2,[pc,#20] ; [0x8000270] = 0x200002a0
        0x0800025a:    4b06        .K      LDR      r3,[pc,#24] ; [0x8000274] = 0x200002a0
        0x0800025c:    4770        pG      BX       lr
    $d
        0x0800025e:    0000        ..      DCW    0
        0x08000260:    08001421    !...    DCD    134222881
        0x08000264:    08000199    ....    DCD    134218137
        0x08000268:    200000a0    ...     DCD    536871072
        0x0800026c:    200006a0    ...     DCD    536872608
        0x08000270:    200002a0    ...     DCD    536871584
        0x08000274:    200002a0    ...     DCD    536871584
    $t
    .text
    __aeabi_uldivmod
    _ll_udiv
        0x08000278:    ea530c02    S...    ORRS     r12,r3,r2
        0x0800027c:    f0008069    ..i.    BEQ.W    0x8000352 ; __aeabi_uldivmod + 218
        0x08000280:    e92d4bf0    -..K    PUSH     {r4-r9,r11,lr}
        0x08000284:    f04f0600    O...    MOV      r6,#0
        0x08000288:    2b00        .+      CMP      r3,#0
        0x0800028a:    bf1f        ..      ITTTT    NE
        0x0800028c:    fab3f583    ....    CLZNE    r5,r3
        0x08000290:    fa03f405    ....    LSLNE    r4,r3,r5
        0x08000294:    fa24f605    $...    LSRNE    r6,r4,r5
        0x08000298:    405e        ^@      EORNE    r6,r6,r3
        0x0800029a:    bf12        ..      ITEE     NE
        0x0800029c:    4316        .C      ORRNE    r6,r6,r2
        0x0800029e:    fab2f582    ....    CLZEQ    r5,r2
        0x080002a2:    fa02f405    ....    LSLEQ    r4,r2,r5
        0x080002a6:    f1c50520    .. .    RSB      r5,r5,#0x20
        0x080002aa:    bf1e        ..      ITTT     NE
        0x080002ac:    fa22fc05    "...    LSRNE    r12,r2,r5
        0x080002b0:    ea44040c    D...    ORRNE    r4,r4,r12
        0x080002b4:    3520         5      ADDNE    r5,r5,#0x20
        0x080002b6:    ea564c04    V..L    ORRS     r12,r6,r4,LSL #16
        0x080002ba:    ea4f4414    O..D    LSR      r4,r4,#16
        0x080002be:    bf18        ..      IT       NE
        0x080002c0:    1c64        d.      ADDNE    r4,r4,#1
        0x080002c2:    f04f0800    O...    MOV      r8,#0
        0x080002c6:    f04f0900    O...    MOV      r9,#0
        0x080002ca:    4290        .B      CMP      r0,r2
        0x080002cc:    eb710c03    q...    SBCS     r12,r1,r3
        0x080002d0:    d339        9.      BCC      0x8000346 ; __aeabi_uldivmod + 206
        0x080002d2:    2900        .)      CMP      r1,#0
        0x080002d4:    bf19        ..      ITTEE    NE
        0x080002d6:    fab1f781    ....    CLZNE    r7,r1
        0x080002da:    fa01f607    ....    LSLNE    r6,r1,r7
        0x080002de:    fab0f780    ....    CLZEQ    r7,r0
        0x080002e2:    fa00f607    ....    LSLEQ    r6,r0,r7
        0x080002e6:    f1c70720    .. .    RSB      r7,r7,#0x20
        0x080002ea:    bf1e        ..      ITTT     NE
        0x080002ec:    fa20fc07     ...    LSRNE    r12,r0,r7
        0x080002f0:    ea46060c    F...    ORRNE    r6,r6,r12
        0x080002f4:    3720         7      ADDNE    r7,r7,#0x20
        0x080002f6:    fbb6fcf4    ....    UDIV     r12,r6,r4
        0x080002fa:    eba70705    ....    SUB      r7,r7,r5
        0x080002fe:    3f10        .?      SUBS     r7,r7,#0x10
        0x08000300:    f0070b1f    ....    AND      r11,r7,#0x1f
        0x08000304:    f1cb0620    .. .    RSB      r6,r11,#0x20
        0x08000308:    fa0cfb0b    ....    LSL      r11,r12,r11
        0x0800030c:    fa2cf606    ,...    LSR      r6,r12,r6
        0x08000310:    bf44        D.      ITT      MI
        0x08000312:    46b3        .F      MOVMI    r11,r6
        0x08000314:    2600        .&      MOVMI    r6,#0
        0x08000316:    2f20         /      CMP      r7,#0x20
        0x08000318:    bfa4        ..      ITT      GE
        0x0800031a:    465e        ^F      MOVGE    r6,r11
        0x0800031c:    f04f0b00    O...    MOVGE    r11,#0
        0x08000320:    ea5b0c06    [...    ORRS     r12,r11,r6
        0x08000324:    bf08        ..      IT       EQ
        0x08000326:    f04f0b01    O...    MOVEQ    r11,#1
        0x0800032a:    eb19090b    ....    ADDS     r9,r9,r11
        0x0800032e:    fbab7c02    ...|    UMULL    r7,r12,r11,r2
        0x08000332:    eb480806    H...    ADC      r8,r8,r6
        0x08000336:    1bc0        ..      SUBS     r0,r0,r7
        0x08000338:    fb06cc02    ....    MLA      r12,r6,r2,r12
        0x0800033c:    fb0bcc03    ....    MLA      r12,r11,r3,r12
        0x08000340:    eb71010c    q...    SBCS     r1,r1,r12
        0x08000344:    e7c1        ..      B        0x80002ca ; __aeabi_uldivmod + 82
        0x08000346:    460b        .F      MOV      r3,r1
        0x08000348:    4602        .F      MOV      r2,r0
        0x0800034a:    4641        AF      MOV      r1,r8
        0x0800034c:    4648        HF      MOV      r0,r9
        0x0800034e:    e8bd8bf0    ....    POP      {r4-r9,r11,pc}
        0x08000352:    b513        ..      PUSH     {r0,r1,r4,lr}
        0x08000354:    f04f0000    O...    MOV      r0,#0
        0x08000358:    f04f0100    O...    MOV      r1,#0
        0x0800035c:    f3af8000    ....    NOP.W    
        0x08000360:    e8bd401c    ...@    POP      {r2-r4,lr}
        0x08000364:    4770        pG      BX       lr
    .text
    __aeabi_memclr4
    __aeabi_memclr8
    __rt_memclr_w
        0x08000366:    f04f0200    O...    MOV      r2,#0
    _memset_w
        0x0800036a:    b500        ..      PUSH     {lr}
        0x0800036c:    4613        .F      MOV      r3,r2
        0x0800036e:    4694        .F      MOV      r12,r2
        0x08000370:    4696        .F      MOV      lr,r2
        0x08000372:    3920         9      SUBS     r1,r1,#0x20
        0x08000374:    bf22        ".      ITTT     CS
        0x08000376:    e8a0500c    ...P    STMCS    r0!,{r2,r3,r12,lr}
        0x0800037a:    e8a0500c    ...P    STMCS    r0!,{r2,r3,r12,lr}
        0x0800037e:    f1b10120    .. .    SUBSCS   r1,r1,#0x20
        0x08000382:    f4bfaff7    ....    BCS.W    0x8000374 ; _memset_w + 10
        0x08000386:    0709        ..      LSLS     r1,r1,#28
        0x08000388:    bf28        (.      IT       CS
        0x0800038a:    e8a0500c    ...P    STMCS    r0!,{r2,r3,r12,lr}
        0x0800038e:    bf48        H.      IT       MI
        0x08000390:    c00c        ..      STMMI    r0!,{r2,r3}
        0x08000392:    f85deb04    ]...    POP      {lr}
        0x08000396:    0089        ..      LSLS     r1,r1,#2
        0x08000398:    bf28        (.      IT       CS
        0x0800039a:    f8402b04    @..+    STRCS    r2,[r0],#4
        0x0800039e:    bf08        ..      IT       EQ
        0x080003a0:    4770        pG      BXEQ     lr
        0x080003a2:    bf48        H.      IT       MI
        0x080003a4:    f8202b02     ..+    STRHMI   r2,[r0],#2
        0x080003a8:    f0114f80    ...O    TST      r1,#0x40000000
        0x080003ac:    bf18        ..      IT       NE
        0x080003ae:    f8002b01    ...+    STRBNE   r2,[r0],#1
        0x080003b2:    4770        pG      BX       lr
    .text
    __use_two_region_memory
        0x080003b4:    4770        pG      BX       lr
    __rt_heap_escrow$2region
        0x080003b6:    4770        pG      BX       lr
    __rt_heap_expand$2region
        0x080003b8:    4770        pG      BX       lr
    .text
    __user_setup_stackheap
        0x080003ba:    4675        uF      MOV      r5,lr
        0x080003bc:    f000f82c    ..,.    BL       __user_libspace ; 0x8000418
        0x080003c0:    46ae        .F      MOV      lr,r5
        0x080003c2:    0005        ..      MOVS     r5,r0
        0x080003c4:    4669        iF      MOV      r1,sp
        0x080003c6:    4653        SF      MOV      r3,r10
        0x080003c8:    f0200007     ...    BIC      r0,r0,#7
        0x080003cc:    4685        .F      MOV      sp,r0
        0x080003ce:    b018        ..      ADD      sp,sp,#0x60
        0x080003d0:    b520         .      PUSH     {r5,lr}
        0x080003d2:    f7ffff3f    ..?.    BL       __user_initial_stackheap ; 0x8000254
        0x080003d6:    e8bd4020    .. @    POP      {r5,lr}
        0x080003da:    f04f0600    O...    MOV      r6,#0
        0x080003de:    f04f0700    O...    MOV      r7,#0
        0x080003e2:    f04f0800    O...    MOV      r8,#0
        0x080003e6:    f04f0b00    O...    MOV      r11,#0
        0x080003ea:    f0210107    !...    BIC      r1,r1,#7
        0x080003ee:    46ac        .F      MOV      r12,r5
        0x080003f0:    e8ac09c0    ....    STM      r12!,{r6-r8,r11}
        0x080003f4:    e8ac09c0    ....    STM      r12!,{r6-r8,r11}
        0x080003f8:    e8ac09c0    ....    STM      r12!,{r6-r8,r11}
        0x080003fc:    e8ac09c0    ....    STM      r12!,{r6-r8,r11}
        0x08000400:    468d        .F      MOV      sp,r1
        0x08000402:    4770        pG      BX       lr
    .text
    exit
        0x08000404:    b510        ..      PUSH     {r4,lr}
        0x08000406:    4604        .F      MOV      r4,r0
        0x08000408:    f3af8000    ....    NOP.W    
        0x0800040c:    4620         F      MOV      r0,r4
        0x0800040e:    e8bd4010    ...@    POP      {r4,lr}
        0x08000412:    f7ffbf0a    ....    B.W      __rt_exit ; 0x800022a
        0x08000416:    0000        ..      MOVS     r0,r0
    .text
    __user_libspace
    __user_perproc_libspace
    __user_perthread_libspace
        0x08000418:    4800        .H      LDR      r0,[pc,#0] ; [0x800041c] = 0x20000040
        0x0800041a:    4770        pG      BX       lr
    $d
        0x0800041c:    20000040    @..     DCD    536870976
    $t
    .text
    _sys_exit
        0x08000420:    4901        .I      LDR      r1,[pc,#4] ; [0x8000428] = 0x20026
        0x08000422:    2018        .       MOVS     r0,#0x18
        0x08000424:    beab        ..      BKPT     #0xab
        0x08000426:    e7fe        ..      B        0x8000426 ; _sys_exit + 6
    $d
        0x08000428:    00020026    &...    DCD    131110
    $t
    .text
    __I$use$semihosting
    __use_no_semihosting_swi
        0x0800042c:    4770        pG      BX       lr
    i.BusFault_Handler
    .text
    BusFault_Handler
    __semihosting_library_function
        0x0800042e:    bf00        ..      NOP      
        0x08000430:    e7fe        ..      B        0x8000430 ; BusFault_Handler + 2
    i.DebugMon_Handler
    DebugMon_Handler
        0x08000432:    4770        pG      BX       lr
    i.Error_Handler
    Error_Handler
        0x08000434:    b672        r.      CPSID    i
        0x08000436:    bf00        ..      NOP      
        0x08000438:    e7fe        ..      B        0x8000438 ; Error_Handler + 4
        0x0800043a:    0000        ..      MOVS     r0,r0
    i.HAL_Delay
    HAL_Delay
        0x0800043c:    b570        p.      PUSH     {r4-r6,lr}
        0x0800043e:    4604        .F      MOV      r4,r0
        0x08000440:    f000f90c    ....    BL       HAL_GetTick ; 0x800065c
        0x08000444:    4606        .F      MOV      r6,r0
        0x08000446:    4625        %F      MOV      r5,r4
        0x08000448:    1c68        h.      ADDS     r0,r5,#1
        0x0800044a:    b110        ..      CBZ      r0,0x8000452 ; HAL_Delay + 22
        0x0800044c:    4804        .H      LDR      r0,[pc,#16] ; [0x8000460] = 0x20000018
        0x0800044e:    7800        .x      LDRB     r0,[r0,#0]
        0x08000450:    4405        .D      ADD      r5,r5,r0
        0x08000452:    bf00        ..      NOP      
        0x08000454:    f000f902    ....    BL       HAL_GetTick ; 0x800065c
        0x08000458:    1b80        ..      SUBS     r0,r0,r6
        0x0800045a:    42a8        .B      CMP      r0,r5
        0x0800045c:    d3fa        ..      BCC      0x8000454 ; HAL_Delay + 24
        0x0800045e:    bd70        p.      POP      {r4-r6,pc}
    $d
        0x08000460:    20000018    ...     DCD    536870936
    $t
    i.HAL_GPIO_Init
    HAL_GPIO_Init
        0x08000464:    b5f8        ..      PUSH     {r3-r7,lr}
        0x08000466:    4602        .F      MOV      r2,r0
        0x08000468:    460b        .F      MOV      r3,r1
        0x0800046a:    2500        .%      MOVS     r5,#0
        0x0800046c:    2400        .$      MOVS     r4,#0
        0x0800046e:    2000        .       MOVS     r0,#0
        0x08000470:    2100        .!      MOVS     r1,#0
        0x08000472:    e0c7        ..      B        0x8000604 ; HAL_GPIO_Init + 416
        0x08000474:    2601        .&      MOVS     r6,#1
        0x08000476:    fa06f501    ....    LSL      r5,r6,r1
        0x0800047a:    681e        .h      LDR      r6,[r3,#0]
        0x0800047c:    ea060405    ....    AND      r4,r6,r5
        0x08000480:    42ac        .B      CMP      r4,r5
        0x08000482:    d174        t.      BNE      0x800056e ; HAL_GPIO_Init + 266
        0x08000484:    791e        .y      LDRB     r6,[r3,#4]
        0x08000486:    f0060603    ....    AND      r6,r6,#3
        0x0800048a:    2e01        ..      CMP      r6,#1
        0x0800048c:    d004        ..      BEQ      0x8000498 ; HAL_GPIO_Init + 52
        0x0800048e:    791e        .y      LDRB     r6,[r3,#4]
        0x08000490:    f0060603    ....    AND      r6,r6,#3
        0x08000494:    2e02        ..      CMP      r6,#2
        0x08000496:    d113        ..      BNE      0x80004c0 ; HAL_GPIO_Init + 92
        0x08000498:    6890        .h      LDR      r0,[r2,#8]
        0x0800049a:    004f        O.      LSLS     r7,r1,#1
        0x0800049c:    2603        .&      MOVS     r6,#3
        0x0800049e:    40be        .@      LSLS     r6,r6,r7
        0x080004a0:    43b0        .C      BICS     r0,r0,r6
        0x080004a2:    004f        O.      LSLS     r7,r1,#1
        0x080004a4:    68de        .h      LDR      r6,[r3,#0xc]
        0x080004a6:    40be        .@      LSLS     r6,r6,r7
        0x080004a8:    4330        0C      ORRS     r0,r0,r6
        0x080004aa:    6090        .`      STR      r0,[r2,#8]
        0x080004ac:    6850        Ph      LDR      r0,[r2,#4]
        0x080004ae:    2601        .&      MOVS     r6,#1
        0x080004b0:    408e        .@      LSLS     r6,r6,r1
        0x080004b2:    43b0        .C      BICS     r0,r0,r6
        0x080004b4:    791e        .y      LDRB     r6,[r3,#4]
        0x080004b6:    f3c61600    ....    UBFX     r6,r6,#4,#1
        0x080004ba:    408e        .@      LSLS     r6,r6,r1
        0x080004bc:    4330        0C      ORRS     r0,r0,r6
        0x080004be:    6050        P`      STR      r0,[r2,#4]
        0x080004c0:    791e        .y      LDRB     r6,[r3,#4]
        0x080004c2:    f0060603    ....    AND      r6,r6,#3
        0x080004c6:    2e03        ..      CMP      r6,#3
        0x080004c8:    d009        ..      BEQ      0x80004de ; HAL_GPIO_Init + 122
        0x080004ca:    68d0        .h      LDR      r0,[r2,#0xc]
        0x080004cc:    004f        O.      LSLS     r7,r1,#1
        0x080004ce:    2603        .&      MOVS     r6,#3
        0x080004d0:    40be        .@      LSLS     r6,r6,r7
        0x080004d2:    43b0        .C      BICS     r0,r0,r6
        0x080004d4:    004f        O.      LSLS     r7,r1,#1
        0x080004d6:    689e        .h      LDR      r6,[r3,#8]
        0x080004d8:    40be        .@      LSLS     r6,r6,r7
        0x080004da:    4330        0C      ORRS     r0,r0,r6
        0x080004dc:    60d0        .`      STR      r0,[r2,#0xc]
        0x080004de:    791e        .y      LDRB     r6,[r3,#4]
        0x080004e0:    f0060603    ....    AND      r6,r6,#3
        0x080004e4:    2e02        ..      CMP      r6,#2
        0x080004e6:    d113        ..      BNE      0x8000510 ; HAL_GPIO_Init + 172
        0x080004e8:    08cf        ..      LSRS     r7,r1,#3
        0x080004ea:    f1020620    .. .    ADD      r6,r2,#0x20
        0x080004ee:    f8560027    V.'.    LDR      r0,[r6,r7,LSL #2]
        0x080004f2:    074e        N.      LSLS     r6,r1,#29
        0x080004f4:    0ef7        ..      LSRS     r7,r6,#27
        0x080004f6:    260f        .&      MOVS     r6,#0xf
        0x080004f8:    40be        .@      LSLS     r6,r6,r7
        0x080004fa:    43b0        .C      BICS     r0,r0,r6
        0x080004fc:    074f        O.      LSLS     r7,r1,#29
        0x080004fe:    0eff        ..      LSRS     r7,r7,#27
        0x08000500:    691e        .i      LDR      r6,[r3,#0x10]
        0x08000502:    40be        .@      LSLS     r6,r6,r7
        0x08000504:    4330        0C      ORRS     r0,r0,r6
        0x08000506:    08cf        ..      LSRS     r7,r1,#3
        0x08000508:    f1020620    .. .    ADD      r6,r2,#0x20
        0x0800050c:    f8460027    F.'.    STR      r0,[r6,r7,LSL #2]
        0x08000510:    6810        .h      LDR      r0,[r2,#0]
        0x08000512:    004f        O.      LSLS     r7,r1,#1
        0x08000514:    2603        .&      MOVS     r6,#3
        0x08000516:    40be        .@      LSLS     r6,r6,r7
        0x08000518:    43b0        .C      BICS     r0,r0,r6
        0x0800051a:    791e        .y      LDRB     r6,[r3,#4]
        0x0800051c:    f0060603    ....    AND      r6,r6,#3
        0x08000520:    004f        O.      LSLS     r7,r1,#1
        0x08000522:    40be        .@      LSLS     r6,r6,r7
        0x08000524:    4330        0C      ORRS     r0,r0,r6
        0x08000526:    6010        .`      STR      r0,[r2,#0]
        0x08000528:    685e        ^h      LDR      r6,[r3,#4]
        0x0800052a:    f4063640    ..@6    AND      r6,r6,#0x30000
        0x0800052e:    2e00        ..      CMP      r6,#0
        0x08000530:    d067        g.      BEQ      0x8000602 ; HAL_GPIO_Init + 414
        0x08000532:    bf00        ..      NOP      
        0x08000534:    2600        .&      MOVS     r6,#0
        0x08000536:    9600        ..      STR      r6,[sp,#0]
        0x08000538:    4e34        4N      LDR      r6,[pc,#208] ; [0x800060c] = 0x40023844
        0x0800053a:    6836        6h      LDR      r6,[r6,#0]
        0x0800053c:    f4464680    F..F    ORR      r6,r6,#0x4000
        0x08000540:    4f32        2O      LDR      r7,[pc,#200] ; [0x800060c] = 0x40023844
        0x08000542:    603e        >`      STR      r6,[r7,#0]
        0x08000544:    463e        >F      MOV      r6,r7
        0x08000546:    6836        6h      LDR      r6,[r6,#0]
        0x08000548:    f4064680    ...F    AND      r6,r6,#0x4000
        0x0800054c:    9600        ..      STR      r6,[sp,#0]
        0x0800054e:    bf00        ..      NOP      
        0x08000550:    bf00        ..      NOP      
        0x08000552:    4e2f        /N      LDR      r6,[pc,#188] ; [0x8000610] = 0x40013808
        0x08000554:    088f        ..      LSRS     r7,r1,#2
        0x08000556:    f8560027    V.'.    LDR      r0,[r6,r7,LSL #2]
        0x0800055a:    078e        ..      LSLS     r6,r1,#30
        0x0800055c:    0f37        7.      LSRS     r7,r6,#28
        0x0800055e:    260f        .&      MOVS     r6,#0xf
        0x08000560:    40be        .@      LSLS     r6,r6,r7
        0x08000562:    43b0        .C      BICS     r0,r0,r6
        0x08000564:    4e2b        +N      LDR      r6,[pc,#172] ; [0x8000614] = 0x40020000
        0x08000566:    42b2        .B      CMP      r2,r6
        0x08000568:    d102        ..      BNE      0x8000570 ; HAL_GPIO_Init + 268
        0x0800056a:    2600        .&      MOVS     r6,#0
        0x0800056c:    e015        ..      B        0x800059a ; HAL_GPIO_Init + 310
        0x0800056e:    e048        H.      B        0x8000602 ; HAL_GPIO_Init + 414
        0x08000570:    4e29        )N      LDR      r6,[pc,#164] ; [0x8000618] = 0x40020400
        0x08000572:    42b2        .B      CMP      r2,r6
        0x08000574:    d101        ..      BNE      0x800057a ; HAL_GPIO_Init + 278
        0x08000576:    2601        .&      MOVS     r6,#1
        0x08000578:    e00f        ..      B        0x800059a ; HAL_GPIO_Init + 310
        0x0800057a:    4e28        (N      LDR      r6,[pc,#160] ; [0x800061c] = 0x40020800
        0x0800057c:    42b2        .B      CMP      r2,r6
        0x0800057e:    d101        ..      BNE      0x8000584 ; HAL_GPIO_Init + 288
        0x08000580:    2602        .&      MOVS     r6,#2
        0x08000582:    e00a        ..      B        0x800059a ; HAL_GPIO_Init + 310
        0x08000584:    4e26        &N      LDR      r6,[pc,#152] ; [0x8000620] = 0x40020c00
        0x08000586:    42b2        .B      CMP      r2,r6
        0x08000588:    d101        ..      BNE      0x800058e ; HAL_GPIO_Init + 298
        0x0800058a:    2603        .&      MOVS     r6,#3
        0x0800058c:    e005        ..      B        0x800059a ; HAL_GPIO_Init + 310
        0x0800058e:    4e25        %N      LDR      r6,[pc,#148] ; [0x8000624] = 0x40021000
        0x08000590:    42b2        .B      CMP      r2,r6
        0x08000592:    d101        ..      BNE      0x8000598 ; HAL_GPIO_Init + 308
        0x08000594:    2604        .&      MOVS     r6,#4
        0x08000596:    e000        ..      B        0x800059a ; HAL_GPIO_Init + 310
        0x08000598:    2607        .&      MOVS     r6,#7
        0x0800059a:    078f        ..      LSLS     r7,r1,#30
        0x0800059c:    0f3f        ?.      LSRS     r7,r7,#28
        0x0800059e:    40be        .@      LSLS     r6,r6,r7
        0x080005a0:    4330        0C      ORRS     r0,r0,r6
        0x080005a2:    4e1b        .N      LDR      r6,[pc,#108] ; [0x8000610] = 0x40013808
        0x080005a4:    088f        ..      LSRS     r7,r1,#2
        0x080005a6:    f8460027    F.'.    STR      r0,[r6,r7,LSL #2]
        0x080005aa:    4e1f        .N      LDR      r6,[pc,#124] ; [0x8000628] = 0x40013c08
        0x080005ac:    6830        0h      LDR      r0,[r6,#0]
        0x080005ae:    43a0        .C      BICS     r0,r0,r4
        0x080005b0:    685e        ^h      LDR      r6,[r3,#4]
        0x080005b2:    f4061680    ....    AND      r6,r6,#0x100000
        0x080005b6:    b106        ..      CBZ      r6,0x80005ba ; HAL_GPIO_Init + 342
        0x080005b8:    4320         C      ORRS     r0,r0,r4
        0x080005ba:    4e1b        .N      LDR      r6,[pc,#108] ; [0x8000628] = 0x40013c08
        0x080005bc:    6030        0`      STR      r0,[r6,#0]
        0x080005be:    1d36        6.      ADDS     r6,r6,#4
        0x080005c0:    6830        0h      LDR      r0,[r6,#0]
        0x080005c2:    43a0        .C      BICS     r0,r0,r4
        0x080005c4:    685e        ^h      LDR      r6,[r3,#4]
        0x080005c6:    f4061600    ....    AND      r6,r6,#0x200000
        0x080005ca:    b106        ..      CBZ      r6,0x80005ce ; HAL_GPIO_Init + 362
        0x080005cc:    4320         C      ORRS     r0,r0,r4
        0x080005ce:    4e16        .N      LDR      r6,[pc,#88] ; [0x8000628] = 0x40013c08
        0x080005d0:    1d36        6.      ADDS     r6,r6,#4
        0x080005d2:    6030        0`      STR      r0,[r6,#0]
        0x080005d4:    4e14        .N      LDR      r6,[pc,#80] ; [0x8000628] = 0x40013c08
        0x080005d6:    1f36        6.      SUBS     r6,r6,#4
        0x080005d8:    6830        0h      LDR      r0,[r6,#0]
        0x080005da:    43a0        .C      BICS     r0,r0,r4
        0x080005dc:    685e        ^h      LDR      r6,[r3,#4]
        0x080005de:    f4063600    ...6    AND      r6,r6,#0x20000
        0x080005e2:    b106        ..      CBZ      r6,0x80005e6 ; HAL_GPIO_Init + 386
        0x080005e4:    4320         C      ORRS     r0,r0,r4
        0x080005e6:    4e10        .N      LDR      r6,[pc,#64] ; [0x8000628] = 0x40013c08
        0x080005e8:    1f36        6.      SUBS     r6,r6,#4
        0x080005ea:    6030        0`      STR      r0,[r6,#0]
        0x080005ec:    1f36        6.      SUBS     r6,r6,#4
        0x080005ee:    6830        0h      LDR      r0,[r6,#0]
        0x080005f0:    43a0        .C      BICS     r0,r0,r4
        0x080005f2:    685e        ^h      LDR      r6,[r3,#4]
        0x080005f4:    f4063680    ...6    AND      r6,r6,#0x10000
        0x080005f8:    b106        ..      CBZ      r6,0x80005fc ; HAL_GPIO_Init + 408
        0x080005fa:    4320         C      ORRS     r0,r0,r4
        0x080005fc:    4e0a        .N      LDR      r6,[pc,#40] ; [0x8000628] = 0x40013c08
        0x080005fe:    3e08        .>      SUBS     r6,r6,#8
        0x08000600:    6030        0`      STR      r0,[r6,#0]
        0x08000602:    1c49        I.      ADDS     r1,r1,#1
        0x08000604:    2910        .)      CMP      r1,#0x10
        0x08000606:    f4ffaf35    ..5.    BCC      0x8000474 ; HAL_GPIO_Init + 16
        0x0800060a:    bdf8        ..      POP      {r3-r7,pc}
    $d
        0x0800060c:    40023844    D8.@    DCD    1073887300
        0x08000610:    40013808    .8.@    DCD    1073821704
        0x08000614:    40020000    ...@    DCD    1073872896
        0x08000618:    40020400    ...@    DCD    1073873920
        0x0800061c:    40020800    ...@    DCD    1073874944
        0x08000620:    40020c00    ...@    DCD    1073875968
        0x08000624:    40021000    ...@    DCD    1073876992
        0x08000628:    40013c08    .<.@    DCD    1073822728
    $t
    i.HAL_GPIO_ReadPin
    HAL_GPIO_ReadPin
        0x0800062c:    4602        .F      MOV      r2,r0
        0x0800062e:    6913        .i      LDR      r3,[r2,#0x10]
        0x08000630:    400b        .@      ANDS     r3,r3,r1
        0x08000632:    b10b        ..      CBZ      r3,0x8000638 ; HAL_GPIO_ReadPin + 12
        0x08000634:    2001        .       MOVS     r0,#1
        0x08000636:    e000        ..      B        0x800063a ; HAL_GPIO_ReadPin + 14
        0x08000638:    2000        .       MOVS     r0,#0
        0x0800063a:    4770        pG      BX       lr
    i.HAL_GPIO_TogglePin
    HAL_GPIO_TogglePin
        0x0800063c:    b510        ..      PUSH     {r4,lr}
        0x0800063e:    6942        Bi      LDR      r2,[r0,#0x14]
        0x08000640:    ea210302    !...    BIC      r3,r1,r2
        0x08000644:    ea020401    ....    AND      r4,r2,r1
        0x08000648:    ea434304    C..C    ORR      r3,r3,r4,LSL #16
        0x0800064c:    6183        .a      STR      r3,[r0,#0x18]
        0x0800064e:    bd10        ..      POP      {r4,pc}
    i.HAL_GPIO_WritePin
    HAL_GPIO_WritePin
        0x08000650:    b10a        ..      CBZ      r2,0x8000656 ; HAL_GPIO_WritePin + 6
        0x08000652:    6181        .a      STR      r1,[r0,#0x18]
        0x08000654:    e001        ..      B        0x800065a ; HAL_GPIO_WritePin + 10
        0x08000656:    040b        ..      LSLS     r3,r1,#16
        0x08000658:    6183        .a      STR      r3,[r0,#0x18]
        0x0800065a:    4770        pG      BX       lr
    i.HAL_GetTick
    HAL_GetTick
        0x0800065c:    4801        .H      LDR      r0,[pc,#4] ; [0x8000664] = 0x20000010
        0x0800065e:    6800        .h      LDR      r0,[r0,#0]
        0x08000660:    4770        pG      BX       lr
    $d
        0x08000662:    0000        ..      DCW    0
        0x08000664:    20000010    ...     DCD    536870928
    $t
    i.HAL_IncTick
    HAL_IncTick
        0x08000668:    4803        .H      LDR      r0,[pc,#12] ; [0x8000678] = 0x20000010
        0x0800066a:    6800        .h      LDR      r0,[r0,#0]
        0x0800066c:    4903        .I      LDR      r1,[pc,#12] ; [0x800067c] = 0x20000018
        0x0800066e:    7809        .x      LDRB     r1,[r1,#0]
        0x08000670:    4408        .D      ADD      r0,r0,r1
        0x08000672:    4901        .I      LDR      r1,[pc,#4] ; [0x8000678] = 0x20000010
        0x08000674:    6008        .`      STR      r0,[r1,#0]
        0x08000676:    4770        pG      BX       lr
    $d
        0x08000678:    20000010    ...     DCD    536870928
        0x0800067c:    20000018    ...     DCD    536870936
    $t
    i.HAL_Init
    HAL_Init
        0x08000680:    b510        ..      PUSH     {r4,lr}
        0x08000682:    480d        .H      LDR      r0,[pc,#52] ; [0x80006b8] = 0x40023c00
        0x08000684:    6800        .h      LDR      r0,[r0,#0]
        0x08000686:    f4407000    @..p    ORR      r0,r0,#0x200
        0x0800068a:    490b        .I      LDR      r1,[pc,#44] ; [0x80006b8] = 0x40023c00
        0x0800068c:    6008        .`      STR      r0,[r1,#0]
        0x0800068e:    4608        .F      MOV      r0,r1
        0x08000690:    6800        .h      LDR      r0,[r0,#0]
        0x08000692:    f4406080    @..`    ORR      r0,r0,#0x400
        0x08000696:    6008        .`      STR      r0,[r1,#0]
        0x08000698:    4608        .F      MOV      r0,r1
        0x0800069a:    6800        .h      LDR      r0,[r0,#0]
        0x0800069c:    f4407080    @..p    ORR      r0,r0,#0x100
        0x080006a0:    6008        .`      STR      r0,[r1,#0]
        0x080006a2:    2003        .       MOVS     r0,#3
        0x080006a4:    f000f892    ....    BL       HAL_NVIC_SetPriorityGrouping ; 0x80007cc
        0x080006a8:    200f        .       MOVS     r0,#0xf
        0x080006aa:    f000f807    ....    BL       HAL_InitTick ; 0x80006bc
        0x080006ae:    f000f82b    ..+.    BL       HAL_MspInit ; 0x8000708
        0x080006b2:    2000        .       MOVS     r0,#0
        0x080006b4:    bd10        ..      POP      {r4,pc}
    $d
        0x080006b6:    0000        ..      DCW    0
        0x080006b8:    40023c00    .<.@    DCD    1073888256
    $t
    i.HAL_InitTick
    HAL_InitTick
        0x080006bc:    b570        p.      PUSH     {r4-r6,lr}
        0x080006be:    4604        .F      MOV      r4,r0
        0x080006c0:    480e        .H      LDR      r0,[pc,#56] ; [0x80006fc] = 0x20000018
        0x080006c2:    7800        .x      LDRB     r0,[r0,#0]
        0x080006c4:    f44f717a    O.zq    MOV      r1,#0x3e8
        0x080006c8:    fbb1f0f0    ....    UDIV     r0,r1,r0
        0x080006cc:    490c        .I      LDR      r1,[pc,#48] ; [0x8000700] = 0x2000001c
        0x080006ce:    6809        .h      LDR      r1,[r1,#0]
        0x080006d0:    fbb1f5f0    ....    UDIV     r5,r1,r0
        0x080006d4:    4628        (F      MOV      r0,r5
        0x080006d6:    f000fd65    ..e.    BL       HAL_SYSTICK_Config ; 0x80011a4
        0x080006da:    b108        ..      CBZ      r0,0x80006e0 ; HAL_InitTick + 36
        0x080006dc:    2001        .       MOVS     r0,#1
        0x080006de:    bd70        p.      POP      {r4-r6,pc}
        0x080006e0:    2c10        .,      CMP      r4,#0x10
        0x080006e2:    d207        ..      BCS      0x80006f4 ; HAL_InitTick + 56
        0x080006e4:    2200        ."      MOVS     r2,#0
        0x080006e6:    4621        !F      MOV      r1,r4
        0x080006e8:    1e50        P.      SUBS     r0,r2,#1
        0x080006ea:    f000f831    ..1.    BL       HAL_NVIC_SetPriority ; 0x8000750
        0x080006ee:    4805        .H      LDR      r0,[pc,#20] ; [0x8000704] = 0x20000014
        0x080006f0:    6004        .`      STR      r4,[r0,#0]
        0x080006f2:    e001        ..      B        0x80006f8 ; HAL_InitTick + 60
        0x080006f4:    2001        .       MOVS     r0,#1
        0x080006f6:    e7f2        ..      B        0x80006de ; HAL_InitTick + 34
        0x080006f8:    2000        .       MOVS     r0,#0
        0x080006fa:    e7f0        ..      B        0x80006de ; HAL_InitTick + 34
    $d
        0x080006fc:    20000018    ...     DCD    536870936
        0x08000700:    2000001c    ...     DCD    536870940
        0x08000704:    20000014    ...     DCD    536870932
    $t
    i.HAL_MspInit
    HAL_MspInit
        0x08000708:    b508        ..      PUSH     {r3,lr}
        0x0800070a:    bf00        ..      NOP      
        0x0800070c:    2000        .       MOVS     r0,#0
        0x0800070e:    9000        ..      STR      r0,[sp,#0]
        0x08000710:    480e        .H      LDR      r0,[pc,#56] ; [0x800074c] = 0x40023844
        0x08000712:    6800        .h      LDR      r0,[r0,#0]
        0x08000714:    f4404080    @..@    ORR      r0,r0,#0x4000
        0x08000718:    490c        .I      LDR      r1,[pc,#48] ; [0x800074c] = 0x40023844
        0x0800071a:    6008        .`      STR      r0,[r1,#0]
        0x0800071c:    4608        .F      MOV      r0,r1
        0x0800071e:    6800        .h      LDR      r0,[r0,#0]
        0x08000720:    f4004080    ...@    AND      r0,r0,#0x4000
        0x08000724:    9000        ..      STR      r0,[sp,#0]
        0x08000726:    bf00        ..      NOP      
        0x08000728:    bf00        ..      NOP      
        0x0800072a:    bf00        ..      NOP      
        0x0800072c:    2000        .       MOVS     r0,#0
        0x0800072e:    9000        ..      STR      r0,[sp,#0]
        0x08000730:    1f08        ..      SUBS     r0,r1,#4
        0x08000732:    6800        .h      LDR      r0,[r0,#0]
        0x08000734:    f0405080    @..P    ORR      r0,r0,#0x10000000
        0x08000738:    1f09        ..      SUBS     r1,r1,#4
        0x0800073a:    6008        .`      STR      r0,[r1,#0]
        0x0800073c:    4608        .F      MOV      r0,r1
        0x0800073e:    6800        .h      LDR      r0,[r0,#0]
        0x08000740:    f0005080    ...P    AND      r0,r0,#0x10000000
        0x08000744:    9000        ..      STR      r0,[sp,#0]
        0x08000746:    bf00        ..      NOP      
        0x08000748:    bf00        ..      NOP      
        0x0800074a:    bd08        ..      POP      {r3,pc}
    $d
        0x0800074c:    40023844    D8.@    DCD    1073887300
    $t
    i.HAL_NVIC_SetPriority
    HAL_NVIC_SetPriority
        0x08000750:    e92d5ff0    -.._    PUSH     {r4-r12,lr}
        0x08000754:    4680        .F      MOV      r8,r0
        0x08000756:    460d        .F      MOV      r5,r1
        0x08000758:    4616        .F      MOV      r6,r2
        0x0800075a:    2700        .'      MOVS     r7,#0
        0x0800075c:    f000fe6c    ..l.    BL       __NVIC_GetPriorityGrouping ; 0x8001438
        0x08000760:    4607        .F      MOV      r7,r0
        0x08000762:    4639        9F      MOV      r1,r7
        0x08000764:    462a        *F      MOV      r2,r5
        0x08000766:    4633        3F      MOV      r3,r6
        0x08000768:    f0010007    ....    AND      r0,r1,#7
        0x0800076c:    f1c00a07    ....    RSB      r10,r0,#7
        0x08000770:    f1ba0f04    ....    CMP      r10,#4
        0x08000774:    d902        ..      BLS      0x800077c ; HAL_NVIC_SetPriority + 44
        0x08000776:    f04f0a04    O...    MOV      r10,#4
        0x0800077a:    e001        ..      B        0x8000780 ; HAL_NVIC_SetPriority + 48
        0x0800077c:    f1c00a07    ....    RSB      r10,r0,#7
        0x08000780:    46d1        .F      MOV      r9,r10
        0x08000782:    f1000a04    ....    ADD      r10,r0,#4
        0x08000786:    f1ba0f07    ....    CMP      r10,#7
        0x0800078a:    d202        ..      BCS      0x8000792 ; HAL_NVIC_SetPriority + 66
        0x0800078c:    f04f0a00    O...    MOV      r10,#0
        0x08000790:    e001        ..      B        0x8000796 ; HAL_NVIC_SetPriority + 70
        0x08000792:    f1a00a03    ....    SUB      r10,r0,#3
        0x08000796:    46d4        .F      MOV      r12,r10
        0x08000798:    f04f0a01    O...    MOV      r10,#1
        0x0800079c:    fa0afa09    ....    LSL      r10,r10,r9
        0x080007a0:    f1aa0a01    ....    SUB      r10,r10,#1
        0x080007a4:    ea0a0a02    ....    AND      r10,r10,r2
        0x080007a8:    fa0afa0c    ....    LSL      r10,r10,r12
        0x080007ac:    f04f0b01    O...    MOV      r11,#1
        0x080007b0:    fa0bfb0c    ....    LSL      r11,r11,r12
        0x080007b4:    f1ab0b01    ....    SUB      r11,r11,#1
        0x080007b8:    ea0b0b03    ....    AND      r11,r11,r3
        0x080007bc:    ea4a040b    J...    ORR      r4,r10,r11
        0x080007c0:    4621        !F      MOV      r1,r4
        0x080007c2:    4640        @F      MOV      r0,r8
        0x080007c4:    f000fe40    ..@.    BL       __NVIC_SetPriority ; 0x8001448
        0x080007c8:    e8bd9ff0    ....    POP      {r4-r12,pc}
    i.HAL_NVIC_SetPriorityGrouping
    HAL_NVIC_SetPriorityGrouping
        0x080007cc:    bf00        ..      NOP      
        0x080007ce:    f0000207    ....    AND      r2,r0,#7
        0x080007d2:    4b06        .K      LDR      r3,[pc,#24] ; [0x80007ec] = 0xe000ed0c
        0x080007d4:    6819        .h      LDR      r1,[r3,#0]
        0x080007d6:    f64f03ff    O...    MOV      r3,#0xf8ff
        0x080007da:    4019        .@      ANDS     r1,r1,r3
        0x080007dc:    4b04        .K      LDR      r3,[pc,#16] ; [0x80007f0] = 0x5fa0000
        0x080007de:    430b        .C      ORRS     r3,r3,r1
        0x080007e0:    ea432102    C..!    ORR      r1,r3,r2,LSL #8
        0x080007e4:    4b01        .K      LDR      r3,[pc,#4] ; [0x80007ec] = 0xe000ed0c
        0x080007e6:    6019        .`      STR      r1,[r3,#0]
        0x080007e8:    bf00        ..      NOP      
        0x080007ea:    4770        pG      BX       lr
    $d
        0x080007ec:    e000ed0c    ....    DCD    3758157068
        0x080007f0:    05fa0000    ....    DCD    100270080
    $t
    i.HAL_RCCEx_PeriphCLKConfig
    HAL_RCCEx_PeriphCLKConfig
        0x080007f4:    b5f8        ..      PUSH     {r3-r7,lr}
        0x080007f6:    4604        .F      MOV      r4,r0
        0x080007f8:    2500        .%      MOVS     r5,#0
        0x080007fa:    2600        .&      MOVS     r6,#0
        0x080007fc:    7820         x      LDRB     r0,[r4,#0]
        0x080007fe:    f0000001    ....    AND      r0,r0,#1
        0x08000802:    b920         .      CBNZ     r0,0x800080e ; HAL_RCCEx_PeriphCLKConfig + 26
        0x08000804:    7820         x      LDRB     r0,[r4,#0]
        0x08000806:    f0000004    ....    AND      r0,r0,#4
        0x0800080a:    2804        .(      CMP      r0,#4
        0x0800080c:    d131        1.      BNE      0x8000872 ; HAL_RCCEx_PeriphCLKConfig + 126
        0x0800080e:    2000        .       MOVS     r0,#0
        0x08000810:    4960        `I      LDR      r1,[pc,#384] ; [0x8000994] = 0x42470000
        0x08000812:    6688        .f      STR      r0,[r1,#0x68]
        0x08000814:    f7ffff22    ..".    BL       HAL_GetTick ; 0x800065c
        0x08000818:    4605        .F      MOV      r5,r0
        0x0800081a:    e006        ..      B        0x800082a ; HAL_RCCEx_PeriphCLKConfig + 54
        0x0800081c:    f7ffff1e    ....    BL       HAL_GetTick ; 0x800065c
        0x08000820:    1b40        @.      SUBS     r0,r0,r5
        0x08000822:    2802        .(      CMP      r0,#2
        0x08000824:    d901        ..      BLS      0x800082a ; HAL_RCCEx_PeriphCLKConfig + 54
        0x08000826:    2003        .       MOVS     r0,#3
        0x08000828:    bdf8        ..      POP      {r3-r7,pc}
        0x0800082a:    485b        [H      LDR      r0,[pc,#364] ; [0x8000998] = 0x40023800
        0x0800082c:    6800        .h      LDR      r0,[r0,#0]
        0x0800082e:    f3c060c0    ...`    UBFX     r0,r0,#27,#1
        0x08000832:    2800        .(      CMP      r0,#0
        0x08000834:    d1f2        ..      BNE      0x800081c ; HAL_RCCEx_PeriphCLKConfig + 40
        0x08000836:    e9d41001    ....    LDRD     r1,r0,[r4,#4]
        0x0800083a:    ea411180    A...    ORR      r1,r1,r0,LSL #6
        0x0800083e:    7b20         {      LDRB     r0,[r4,#0xc]
        0x08000840:    ea417000    A..p    ORR      r0,r1,r0,LSL #28
        0x08000844:    4954        TI      LDR      r1,[pc,#336] ; [0x8000998] = 0x40023800
        0x08000846:    3184        .1      ADDS     r1,r1,#0x84
        0x08000848:    6008        .`      STR      r0,[r1,#0]
        0x0800084a:    2001        .       MOVS     r0,#1
        0x0800084c:    4951        QI      LDR      r1,[pc,#324] ; [0x8000994] = 0x42470000
        0x0800084e:    6688        .f      STR      r0,[r1,#0x68]
        0x08000850:    f7ffff04    ....    BL       HAL_GetTick ; 0x800065c
        0x08000854:    4605        .F      MOV      r5,r0
        0x08000856:    e006        ..      B        0x8000866 ; HAL_RCCEx_PeriphCLKConfig + 114
        0x08000858:    f7ffff00    ....    BL       HAL_GetTick ; 0x800065c
        0x0800085c:    1b40        @.      SUBS     r0,r0,r5
        0x0800085e:    2802        .(      CMP      r0,#2
        0x08000860:    d901        ..      BLS      0x8000866 ; HAL_RCCEx_PeriphCLKConfig + 114
        0x08000862:    2003        .       MOVS     r0,#3
        0x08000864:    e7e0        ..      B        0x8000828 ; HAL_RCCEx_PeriphCLKConfig + 52
        0x08000866:    484c        LH      LDR      r0,[pc,#304] ; [0x8000998] = 0x40023800
        0x08000868:    6800        .h      LDR      r0,[r0,#0]
        0x0800086a:    f3c060c0    ...`    UBFX     r0,r0,#27,#1
        0x0800086e:    2800        .(      CMP      r0,#0
        0x08000870:    d0f2        ..      BEQ      0x8000858 ; HAL_RCCEx_PeriphCLKConfig + 100
        0x08000872:    7820         x      LDRB     r0,[r4,#0]
        0x08000874:    f0000002    ....    AND      r0,r0,#2
        0x08000878:    2802        .(      CMP      r0,#2
        0x0800087a:    d17d        }.      BNE      0x8000978 ; HAL_RCCEx_PeriphCLKConfig + 388
        0x0800087c:    bf00        ..      NOP      
        0x0800087e:    2000        .       MOVS     r0,#0
        0x08000880:    9000        ..      STR      r0,[sp,#0]
        0x08000882:    4845        EH      LDR      r0,[pc,#276] ; [0x8000998] = 0x40023800
        0x08000884:    3040        @0      ADDS     r0,r0,#0x40
        0x08000886:    6800        .h      LDR      r0,[r0,#0]
        0x08000888:    f0405080    @..P    ORR      r0,r0,#0x10000000
        0x0800088c:    4942        BI      LDR      r1,[pc,#264] ; [0x8000998] = 0x40023800
        0x0800088e:    3140        @1      ADDS     r1,r1,#0x40
        0x08000890:    6008        .`      STR      r0,[r1,#0]
        0x08000892:    4608        .F      MOV      r0,r1
        0x08000894:    6800        .h      LDR      r0,[r0,#0]
        0x08000896:    f0005080    ...P    AND      r0,r0,#0x10000000
        0x0800089a:    9000        ..      STR      r0,[sp,#0]
        0x0800089c:    bf00        ..      NOP      
        0x0800089e:    bf00        ..      NOP      
        0x080008a0:    483e        >H      LDR      r0,[pc,#248] ; [0x800099c] = 0x40007000
        0x080008a2:    6800        .h      LDR      r0,[r0,#0]
        0x080008a4:    f4407080    @..p    ORR      r0,r0,#0x100
        0x080008a8:    493c        <I      LDR      r1,[pc,#240] ; [0x800099c] = 0x40007000
        0x080008aa:    6008        .`      STR      r0,[r1,#0]
        0x080008ac:    f7fffed6    ....    BL       HAL_GetTick ; 0x800065c
        0x080008b0:    4605        .F      MOV      r5,r0
        0x080008b2:    e006        ..      B        0x80008c2 ; HAL_RCCEx_PeriphCLKConfig + 206
        0x080008b4:    f7fffed2    ....    BL       HAL_GetTick ; 0x800065c
        0x080008b8:    1b40        @.      SUBS     r0,r0,r5
        0x080008ba:    2802        .(      CMP      r0,#2
        0x080008bc:    d901        ..      BLS      0x80008c2 ; HAL_RCCEx_PeriphCLKConfig + 206
        0x080008be:    2003        .       MOVS     r0,#3
        0x080008c0:    e7b2        ..      B        0x8000828 ; HAL_RCCEx_PeriphCLKConfig + 52
        0x080008c2:    4836        6H      LDR      r0,[pc,#216] ; [0x800099c] = 0x40007000
        0x080008c4:    6800        .h      LDR      r0,[r0,#0]
        0x080008c6:    f4007080    ...p    AND      r0,r0,#0x100
        0x080008ca:    2800        .(      CMP      r0,#0
        0x080008cc:    d0f2        ..      BEQ      0x80008b4 ; HAL_RCCEx_PeriphCLKConfig + 192
        0x080008ce:    4832        2H      LDR      r0,[pc,#200] ; [0x8000998] = 0x40023800
        0x080008d0:    3070        p0      ADDS     r0,r0,#0x70
        0x080008d2:    6800        .h      LDR      r0,[r0,#0]
        0x080008d4:    f4007640    ..@v    AND      r6,r0,#0x300
        0x080008d8:    b34e        N.      CBZ      r6,0x800092e ; HAL_RCCEx_PeriphCLKConfig + 314
        0x080008da:    8a20         .      LDRH     r0,[r4,#0x10]
        0x080008dc:    f4007040    ..@p    AND      r0,r0,#0x300
        0x080008e0:    42b0        .B      CMP      r0,r6
        0x080008e2:    d024        $.      BEQ      0x800092e ; HAL_RCCEx_PeriphCLKConfig + 314
        0x080008e4:    482c        ,H      LDR      r0,[pc,#176] ; [0x8000998] = 0x40023800
        0x080008e6:    3070        p0      ADDS     r0,r0,#0x70
        0x080008e8:    6800        .h      LDR      r0,[r0,#0]
        0x080008ea:    f4207640     .@v    BIC      r6,r0,#0x300
        0x080008ee:    2001        .       MOVS     r0,#1
        0x080008f0:    492b        +I      LDR      r1,[pc,#172] ; [0x80009a0] = 0x42470e40
        0x080008f2:    6008        .`      STR      r0,[r1,#0]
        0x080008f4:    2000        .       MOVS     r0,#0
        0x080008f6:    6008        .`      STR      r0,[r1,#0]
        0x080008f8:    4827        'H      LDR      r0,[pc,#156] ; [0x8000998] = 0x40023800
        0x080008fa:    3070        p0      ADDS     r0,r0,#0x70
        0x080008fc:    6006        .`      STR      r6,[r0,#0]
        0x080008fe:    6800        .h      LDR      r0,[r0,#0]
        0x08000900:    f0000001    ....    AND      r0,r0,#1
        0x08000904:    b198        ..      CBZ      r0,0x800092e ; HAL_RCCEx_PeriphCLKConfig + 314
        0x08000906:    f7fffea9    ....    BL       HAL_GetTick ; 0x800065c
        0x0800090a:    4605        .F      MOV      r5,r0
        0x0800090c:    e008        ..      B        0x8000920 ; HAL_RCCEx_PeriphCLKConfig + 300
        0x0800090e:    f7fffea5    ....    BL       HAL_GetTick ; 0x800065c
        0x08000912:    1b40        @.      SUBS     r0,r0,r5
        0x08000914:    f2413188    A..1    MOV      r1,#0x1388
        0x08000918:    4288        .B      CMP      r0,r1
        0x0800091a:    d901        ..      BLS      0x8000920 ; HAL_RCCEx_PeriphCLKConfig + 300
        0x0800091c:    2003        .       MOVS     r0,#3
        0x0800091e:    e783        ..      B        0x8000828 ; HAL_RCCEx_PeriphCLKConfig + 52
        0x08000920:    481d        .H      LDR      r0,[pc,#116] ; [0x8000998] = 0x40023800
        0x08000922:    3070        p0      ADDS     r0,r0,#0x70
        0x08000924:    6800        .h      LDR      r0,[r0,#0]
        0x08000926:    f3c00040    ..@.    UBFX     r0,r0,#1,#1
        0x0800092a:    2800        .(      CMP      r0,#0
        0x0800092c:    d0ef        ..      BEQ      0x800090e ; HAL_RCCEx_PeriphCLKConfig + 282
        0x0800092e:    bf00        ..      NOP      
        0x08000930:    8a20         .      LDRH     r0,[r4,#0x10]
        0x08000932:    f4007040    ..@p    AND      r0,r0,#0x300
        0x08000936:    f5b07f40    ..@.    CMP      r0,#0x300
        0x0800093a:    d10c        ..      BNE      0x8000956 ; HAL_RCCEx_PeriphCLKConfig + 354
        0x0800093c:    4816        .H      LDR      r0,[pc,#88] ; [0x8000998] = 0x40023800
        0x0800093e:    3008        .0      ADDS     r0,r0,#8
        0x08000940:    6800        .h      LDR      r0,[r0,#0]
        0x08000942:    f42010f8     ...    BIC      r0,r0,#0x1f0000
        0x08000946:    4a17        .J      LDR      r2,[pc,#92] ; [0x80009a4] = 0xffffcff
        0x08000948:    6921        !i      LDR      r1,[r4,#0x10]
        0x0800094a:    4011        .@      ANDS     r1,r1,r2
        0x0800094c:    4308        .C      ORRS     r0,r0,r1
        0x0800094e:    4912        .I      LDR      r1,[pc,#72] ; [0x8000998] = 0x40023800
        0x08000950:    3108        .1      ADDS     r1,r1,#8
        0x08000952:    6008        .`      STR      r0,[r1,#0]
        0x08000954:    e007        ..      B        0x8000966 ; HAL_RCCEx_PeriphCLKConfig + 370
        0x08000956:    4810        .H      LDR      r0,[pc,#64] ; [0x8000998] = 0x40023800
        0x08000958:    3008        .0      ADDS     r0,r0,#8
        0x0800095a:    6800        .h      LDR      r0,[r0,#0]
        0x0800095c:    f42010f8     ...    BIC      r0,r0,#0x1f0000
        0x08000960:    490d        .I      LDR      r1,[pc,#52] ; [0x8000998] = 0x40023800
        0x08000962:    3108        .1      ADDS     r1,r1,#8
        0x08000964:    6008        .`      STR      r0,[r1,#0]
        0x08000966:    480c        .H      LDR      r0,[pc,#48] ; [0x8000998] = 0x40023800
        0x08000968:    3070        p0      ADDS     r0,r0,#0x70
        0x0800096a:    6800        .h      LDR      r0,[r0,#0]
        0x0800096c:    8a21        !.      LDRH     r1,[r4,#0x10]
        0x0800096e:    f3c1010b    ....    UBFX     r1,r1,#0,#12
        0x08000972:    4308        .C      ORRS     r0,r0,r1
        0x08000974:    4908        .I      LDR      r1,[pc,#32] ; [0x8000998] = 0x40023800
        0x08000976:    e000        ..      B        0x800097a ; HAL_RCCEx_PeriphCLKConfig + 390
        0x08000978:    e002        ..      B        0x8000980 ; HAL_RCCEx_PeriphCLKConfig + 396
        0x0800097a:    3170        p1      ADDS     r1,r1,#0x70
        0x0800097c:    6008        .`      STR      r0,[r1,#0]
        0x0800097e:    bf00        ..      NOP      
        0x08000980:    7820         x      LDRB     r0,[r4,#0]
        0x08000982:    f0000008    ....    AND      r0,r0,#8
        0x08000986:    2808        .(      CMP      r0,#8
        0x08000988:    d102        ..      BNE      0x8000990 ; HAL_RCCEx_PeriphCLKConfig + 412
        0x0800098a:    7d20         }      LDRB     r0,[r4,#0x14]
        0x0800098c:    4906        .I      LDR      r1,[pc,#24] ; [0x80009a8] = 0x424711e0
        0x0800098e:    6008        .`      STR      r0,[r1,#0]
        0x08000990:    2000        .       MOVS     r0,#0
        0x08000992:    e749        I.      B        0x8000828 ; HAL_RCCEx_PeriphCLKConfig + 52
    $d
        0x08000994:    42470000    ..GB    DCD    1111949312
        0x08000998:    40023800    .8.@    DCD    1073887232
        0x0800099c:    40007000    .p.@    DCD    1073770496
        0x080009a0:    42470e40    @.GB    DCD    1111952960
        0x080009a4:    0ffffcff    ....    DCD    268434687
        0x080009a8:    424711e0    ..GB    DCD    1111953888
    $t
    i.HAL_RCC_ClockConfig
    HAL_RCC_ClockConfig
        0x080009ac:    b570        p.      PUSH     {r4-r6,lr}
        0x080009ae:    4604        .F      MOV      r4,r0
        0x080009b0:    460d        .F      MOV      r5,r1
        0x080009b2:    b90c        ..      CBNZ     r4,0x80009b8 ; HAL_RCC_ClockConfig + 12
        0x080009b4:    2001        .       MOVS     r0,#1
        0x080009b6:    bd70        p.      POP      {r4-r6,pc}
        0x080009b8:    4858        XH      LDR      r0,[pc,#352] ; [0x8000b1c] = 0x40023c00
        0x080009ba:    6800        .h      LDR      r0,[r0,#0]
        0x080009bc:    f0000007    ....    AND      r0,r0,#7
        0x080009c0:    42a8        .B      CMP      r0,r5
        0x080009c2:    d209        ..      BCS      0x80009d8 ; HAL_RCC_ClockConfig + 44
        0x080009c4:    4955        UI      LDR      r1,[pc,#340] ; [0x8000b1c] = 0x40023c00
        0x080009c6:    700d        .p      STRB     r5,[r1,#0]
        0x080009c8:    4608        .F      MOV      r0,r1
        0x080009ca:    6800        .h      LDR      r0,[r0,#0]
        0x080009cc:    f0000007    ....    AND      r0,r0,#7
        0x080009d0:    42a8        .B      CMP      r0,r5
        0x080009d2:    d001        ..      BEQ      0x80009d8 ; HAL_RCC_ClockConfig + 44
        0x080009d4:    2001        .       MOVS     r0,#1
        0x080009d6:    e7ee        ..      B        0x80009b6 ; HAL_RCC_ClockConfig + 10
        0x080009d8:    7820         x      LDRB     r0,[r4,#0]
        0x080009da:    f0000002    ....    AND      r0,r0,#2
        0x080009de:    2802        .(      CMP      r0,#2
        0x080009e0:    d11d        ..      BNE      0x8000a1e ; HAL_RCC_ClockConfig + 114
        0x080009e2:    7820         x      LDRB     r0,[r4,#0]
        0x080009e4:    f0000004    ....    AND      r0,r0,#4
        0x080009e8:    2804        .(      CMP      r0,#4
        0x080009ea:    d105        ..      BNE      0x80009f8 ; HAL_RCC_ClockConfig + 76
        0x080009ec:    484c        LH      LDR      r0,[pc,#304] ; [0x8000b20] = 0x40023808
        0x080009ee:    6800        .h      LDR      r0,[r0,#0]
        0x080009f0:    f44050e0    @..P    ORR      r0,r0,#0x1c00
        0x080009f4:    494a        JI      LDR      r1,[pc,#296] ; [0x8000b20] = 0x40023808
        0x080009f6:    6008        .`      STR      r0,[r1,#0]
        0x080009f8:    7820         x      LDRB     r0,[r4,#0]
        0x080009fa:    f0000008    ....    AND      r0,r0,#8
        0x080009fe:    2808        .(      CMP      r0,#8
        0x08000a00:    d105        ..      BNE      0x8000a0e ; HAL_RCC_ClockConfig + 98
        0x08000a02:    4847        GH      LDR      r0,[pc,#284] ; [0x8000b20] = 0x40023808
        0x08000a04:    6800        .h      LDR      r0,[r0,#0]
        0x08000a06:    f4404060    @.`@    ORR      r0,r0,#0xe000
        0x08000a0a:    4945        EI      LDR      r1,[pc,#276] ; [0x8000b20] = 0x40023808
        0x08000a0c:    6008        .`      STR      r0,[r1,#0]
        0x08000a0e:    4844        DH      LDR      r0,[pc,#272] ; [0x8000b20] = 0x40023808
        0x08000a10:    6800        .h      LDR      r0,[r0,#0]
        0x08000a12:    f02000f0     ...    BIC      r0,r0,#0xf0
        0x08000a16:    68a1        .h      LDR      r1,[r4,#8]
        0x08000a18:    4308        .C      ORRS     r0,r0,r1
        0x08000a1a:    4941        AI      LDR      r1,[pc,#260] ; [0x8000b20] = 0x40023808
        0x08000a1c:    6008        .`      STR      r0,[r1,#0]
        0x08000a1e:    7820         x      LDRB     r0,[r4,#0]
        0x08000a20:    f0000001    ....    AND      r0,r0,#1
        0x08000a24:    b3a8        ..      CBZ      r0,0x8000a92 ; HAL_RCC_ClockConfig + 230
        0x08000a26:    6860        `h      LDR      r0,[r4,#4]
        0x08000a28:    2801        .(      CMP      r0,#1
        0x08000a2a:    d107        ..      BNE      0x8000a3c ; HAL_RCC_ClockConfig + 144
        0x08000a2c:    483c        <H      LDR      r0,[pc,#240] ; [0x8000b20] = 0x40023808
        0x08000a2e:    3808        .8      SUBS     r0,r0,#8
        0x08000a30:    6800        .h      LDR      r0,[r0,#0]
        0x08000a32:    f3c04040    ..@@    UBFX     r0,r0,#17,#1
        0x08000a36:    b9b8        ..      CBNZ     r0,0x8000a68 ; HAL_RCC_ClockConfig + 188
        0x08000a38:    2001        .       MOVS     r0,#1
        0x08000a3a:    e7bc        ..      B        0x80009b6 ; HAL_RCC_ClockConfig + 10
        0x08000a3c:    6860        `h      LDR      r0,[r4,#4]
        0x08000a3e:    2802        .(      CMP      r0,#2
        0x08000a40:    d002        ..      BEQ      0x8000a48 ; HAL_RCC_ClockConfig + 156
        0x08000a42:    6860        `h      LDR      r0,[r4,#4]
        0x08000a44:    2803        .(      CMP      r0,#3
        0x08000a46:    d107        ..      BNE      0x8000a58 ; HAL_RCC_ClockConfig + 172
        0x08000a48:    4835        5H      LDR      r0,[pc,#212] ; [0x8000b20] = 0x40023808
        0x08000a4a:    3808        .8      SUBS     r0,r0,#8
        0x08000a4c:    6800        .h      LDR      r0,[r0,#0]
        0x08000a4e:    f3c06040    ..@`    UBFX     r0,r0,#25,#1
        0x08000a52:    b948        H.      CBNZ     r0,0x8000a68 ; HAL_RCC_ClockConfig + 188
        0x08000a54:    2001        .       MOVS     r0,#1
        0x08000a56:    e7ae        ..      B        0x80009b6 ; HAL_RCC_ClockConfig + 10
        0x08000a58:    4831        1H      LDR      r0,[pc,#196] ; [0x8000b20] = 0x40023808
        0x08000a5a:    3808        .8      SUBS     r0,r0,#8
        0x08000a5c:    6800        .h      LDR      r0,[r0,#0]
        0x08000a5e:    f3c00040    ..@.    UBFX     r0,r0,#1,#1
        0x08000a62:    b908        ..      CBNZ     r0,0x8000a68 ; HAL_RCC_ClockConfig + 188
        0x08000a64:    2001        .       MOVS     r0,#1
        0x08000a66:    e7a6        ..      B        0x80009b6 ; HAL_RCC_ClockConfig + 10
        0x08000a68:    482d        -H      LDR      r0,[pc,#180] ; [0x8000b20] = 0x40023808
        0x08000a6a:    6800        .h      LDR      r0,[r0,#0]
        0x08000a6c:    f0200003     ...    BIC      r0,r0,#3
        0x08000a70:    6861        ah      LDR      r1,[r4,#4]
        0x08000a72:    4308        .C      ORRS     r0,r0,r1
        0x08000a74:    492a        *I      LDR      r1,[pc,#168] ; [0x8000b20] = 0x40023808
        0x08000a76:    6008        .`      STR      r0,[r1,#0]
        0x08000a78:    f7fffdf0    ....    BL       HAL_GetTick ; 0x800065c
        0x08000a7c:    4606        .F      MOV      r6,r0
        0x08000a7e:    e009        ..      B        0x8000a94 ; HAL_RCC_ClockConfig + 232
        0x08000a80:    f7fffdec    ....    BL       HAL_GetTick ; 0x800065c
        0x08000a84:    1b80        ..      SUBS     r0,r0,r6
        0x08000a86:    f2413188    A..1    MOV      r1,#0x1388
        0x08000a8a:    4288        .B      CMP      r0,r1
        0x08000a8c:    d902        ..      BLS      0x8000a94 ; HAL_RCC_ClockConfig + 232
        0x08000a8e:    2003        .       MOVS     r0,#3
        0x08000a90:    e791        ..      B        0x80009b6 ; HAL_RCC_ClockConfig + 10
        0x08000a92:    e007        ..      B        0x8000aa4 ; HAL_RCC_ClockConfig + 248
        0x08000a94:    4822        "H      LDR      r0,[pc,#136] ; [0x8000b20] = 0x40023808
        0x08000a96:    6800        .h      LDR      r0,[r0,#0]
        0x08000a98:    f000000c    ....    AND      r0,r0,#0xc
        0x08000a9c:    6861        ah      LDR      r1,[r4,#4]
        0x08000a9e:    ebb00f81    ....    CMP      r0,r1,LSL #2
        0x08000aa2:    d1ed        ..      BNE      0x8000a80 ; HAL_RCC_ClockConfig + 212
        0x08000aa4:    481d        .H      LDR      r0,[pc,#116] ; [0x8000b1c] = 0x40023c00
        0x08000aa6:    6800        .h      LDR      r0,[r0,#0]
        0x08000aa8:    f0000007    ....    AND      r0,r0,#7
        0x08000aac:    42a8        .B      CMP      r0,r5
        0x08000aae:    d909        ..      BLS      0x8000ac4 ; HAL_RCC_ClockConfig + 280
        0x08000ab0:    491a        .I      LDR      r1,[pc,#104] ; [0x8000b1c] = 0x40023c00
        0x08000ab2:    700d        .p      STRB     r5,[r1,#0]
        0x08000ab4:    4608        .F      MOV      r0,r1
        0x08000ab6:    6800        .h      LDR      r0,[r0,#0]
        0x08000ab8:    f0000007    ....    AND      r0,r0,#7
        0x08000abc:    42a8        .B      CMP      r0,r5
        0x08000abe:    d001        ..      BEQ      0x8000ac4 ; HAL_RCC_ClockConfig + 280
        0x08000ac0:    2001        .       MOVS     r0,#1
        0x08000ac2:    e778        x.      B        0x80009b6 ; HAL_RCC_ClockConfig + 10
        0x08000ac4:    7820         x      LDRB     r0,[r4,#0]
        0x08000ac6:    f0000004    ....    AND      r0,r0,#4
        0x08000aca:    2804        .(      CMP      r0,#4
        0x08000acc:    d107        ..      BNE      0x8000ade ; HAL_RCC_ClockConfig + 306
        0x08000ace:    4814        .H      LDR      r0,[pc,#80] ; [0x8000b20] = 0x40023808
        0x08000ad0:    6800        .h      LDR      r0,[r0,#0]
        0x08000ad2:    f42050e0     ..P    BIC      r0,r0,#0x1c00
        0x08000ad6:    68e1        .h      LDR      r1,[r4,#0xc]
        0x08000ad8:    4308        .C      ORRS     r0,r0,r1
        0x08000ada:    4911        .I      LDR      r1,[pc,#68] ; [0x8000b20] = 0x40023808
        0x08000adc:    6008        .`      STR      r0,[r1,#0]
        0x08000ade:    7820         x      LDRB     r0,[r4,#0]
        0x08000ae0:    f0000008    ....    AND      r0,r0,#8
        0x08000ae4:    2808        .(      CMP      r0,#8
        0x08000ae6:    d108        ..      BNE      0x8000afa ; HAL_RCC_ClockConfig + 334
        0x08000ae8:    480d        .H      LDR      r0,[pc,#52] ; [0x8000b20] = 0x40023808
        0x08000aea:    6800        .h      LDR      r0,[r0,#0]
        0x08000aec:    f4204060     .`@    BIC      r0,r0,#0xe000
        0x08000af0:    6921        !i      LDR      r1,[r4,#0x10]
        0x08000af2:    ea4000c1    @...    ORR      r0,r0,r1,LSL #3
        0x08000af6:    490a        .I      LDR      r1,[pc,#40] ; [0x8000b20] = 0x40023808
        0x08000af8:    6008        .`      STR      r0,[r1,#0]
        0x08000afa:    f000f819    ....    BL       HAL_RCC_GetSysClockFreq ; 0x8000b30
        0x08000afe:    4908        .I      LDR      r1,[pc,#32] ; [0x8000b20] = 0x40023808
        0x08000b00:    6809        .h      LDR      r1,[r1,#0]
        0x08000b02:    f3c11103    ....    UBFX     r1,r1,#4,#4
        0x08000b06:    4a07        .J      LDR      r2,[pc,#28] ; [0x8000b24] = 0x8001566
        0x08000b08:    5c51        Q\      LDRB     r1,[r2,r1]
        0x08000b0a:    40c8        .@      LSRS     r0,r0,r1
        0x08000b0c:    4906        .I      LDR      r1,[pc,#24] ; [0x8000b28] = 0x2000001c
        0x08000b0e:    6008        .`      STR      r0,[r1,#0]
        0x08000b10:    4806        .H      LDR      r0,[pc,#24] ; [0x8000b2c] = 0x20000014
        0x08000b12:    6800        .h      LDR      r0,[r0,#0]
        0x08000b14:    f7fffdd2    ....    BL       HAL_InitTick ; 0x80006bc
        0x08000b18:    2000        .       MOVS     r0,#0
        0x08000b1a:    e74c        L.      B        0x80009b6 ; HAL_RCC_ClockConfig + 10
    $d
        0x08000b1c:    40023c00    .<.@    DCD    1073888256
        0x08000b20:    40023808    .8.@    DCD    1073887240
        0x08000b24:    08001566    f...    DCD    134223206
        0x08000b28:    2000001c    ...     DCD    536870940
        0x08000b2c:    20000014    ...     DCD    536870932
    $t
    i.HAL_RCC_GetSysClockFreq
    HAL_RCC_GetSysClockFreq
        0x08000b30:    e92d47f0    -..G    PUSH     {r4-r10,lr}
        0x08000b34:    2400        .$      MOVS     r4,#0
        0x08000b36:    2500        .%      MOVS     r5,#0
        0x08000b38:    2600        .&      MOVS     r6,#0
        0x08000b3a:    46a1        .F      MOV      r9,r4
        0x08000b3c:    4825        %H      LDR      r0,[pc,#148] ; [0x8000bd4] = 0x40023808
        0x08000b3e:    6800        .h      LDR      r0,[r0,#0]
        0x08000b40:    f000000c    ....    AND      r0,r0,#0xc
        0x08000b44:    b120         .      CBZ      r0,0x8000b50 ; HAL_RCC_GetSysClockFreq + 32
        0x08000b46:    2804        .(      CMP      r0,#4
        0x08000b48:    d005        ..      BEQ      0x8000b56 ; HAL_RCC_GetSysClockFreq + 38
        0x08000b4a:    2808        .(      CMP      r0,#8
        0x08000b4c:    d13a        :.      BNE      0x8000bc4 ; HAL_RCC_GetSysClockFreq + 148
        0x08000b4e:    e005        ..      B        0x8000b5c ; HAL_RCC_GetSysClockFreq + 44
        0x08000b50:    f8df9084    ....    LDR      r9,[pc,#132] ; [0x8000bd8] = 0xf42400
        0x08000b54:    e039        9.      B        0x8000bca ; HAL_RCC_GetSysClockFreq + 154
        0x08000b56:    f8df9084    ....    LDR      r9,[pc,#132] ; [0x8000bdc] = 0x17d7840
        0x08000b5a:    e036        6.      B        0x8000bca ; HAL_RCC_GetSysClockFreq + 154
        0x08000b5c:    481d        .H      LDR      r0,[pc,#116] ; [0x8000bd4] = 0x40023808
        0x08000b5e:    1f00        ..      SUBS     r0,r0,#4
        0x08000b60:    6800        .h      LDR      r0,[r0,#0]
        0x08000b62:    f000043f    ..?.    AND      r4,r0,#0x3f
        0x08000b66:    481b        .H      LDR      r0,[pc,#108] ; [0x8000bd4] = 0x40023808
        0x08000b68:    1f00        ..      SUBS     r0,r0,#4
        0x08000b6a:    6800        .h      LDR      r0,[r0,#0]
        0x08000b6c:    f4000080    ....    AND      r0,r0,#0x400000
        0x08000b70:    b178        x.      CBZ      r0,0x8000b92 ; HAL_RCC_GetSysClockFreq + 98
        0x08000b72:    481a        .H      LDR      r0,[pc,#104] ; [0x8000bdc] = 0x17d7840
        0x08000b74:    4917        .I      LDR      r1,[pc,#92] ; [0x8000bd4] = 0x40023808
        0x08000b76:    1f09        ..      SUBS     r1,r1,#4
        0x08000b78:    6809        .h      LDR      r1,[r1,#0]
        0x08000b7a:    f3c11188    ....    UBFX     r1,r1,#6,#9
        0x08000b7e:    fba07001    ...p    UMULL    r7,r0,r0,r1
        0x08000b82:    4601        .F      MOV      r1,r0
        0x08000b84:    4622        "F      MOV      r2,r4
        0x08000b86:    2300        .#      MOVS     r3,#0
        0x08000b88:    4638        8F      MOV      r0,r7
        0x08000b8a:    f7fffb75    ..u.    BL       __aeabi_uldivmod ; 0x8000278
        0x08000b8e:    4605        .F      MOV      r5,r0
        0x08000b90:    e00e        ..      B        0x8000bb0 ; HAL_RCC_GetSysClockFreq + 128
        0x08000b92:    4811        .H      LDR      r0,[pc,#68] ; [0x8000bd8] = 0xf42400
        0x08000b94:    490f        .I      LDR      r1,[pc,#60] ; [0x8000bd4] = 0x40023808
        0x08000b96:    1f09        ..      SUBS     r1,r1,#4
        0x08000b98:    6809        .h      LDR      r1,[r1,#0]
        0x08000b9a:    f3c11188    ....    UBFX     r1,r1,#6,#9
        0x08000b9e:    fba07001    ...p    UMULL    r7,r0,r0,r1
        0x08000ba2:    4601        .F      MOV      r1,r0
        0x08000ba4:    4622        "F      MOV      r2,r4
        0x08000ba6:    2300        .#      MOVS     r3,#0
        0x08000ba8:    4638        8F      MOV      r0,r7
        0x08000baa:    f7fffb65    ..e.    BL       __aeabi_uldivmod ; 0x8000278
        0x08000bae:    4605        .F      MOV      r5,r0
        0x08000bb0:    4808        .H      LDR      r0,[pc,#32] ; [0x8000bd4] = 0x40023808
        0x08000bb2:    1f00        ..      SUBS     r0,r0,#4
        0x08000bb4:    6800        .h      LDR      r0,[r0,#0]
        0x08000bb6:    f3c04001    ...@    UBFX     r0,r0,#16,#2
        0x08000bba:    1c40        @.      ADDS     r0,r0,#1
        0x08000bbc:    0046        F.      LSLS     r6,r0,#1
        0x08000bbe:    fbb5f9f6    ....    UDIV     r9,r5,r6
        0x08000bc2:    e002        ..      B        0x8000bca ; HAL_RCC_GetSysClockFreq + 154
        0x08000bc4:    f8df9010    ....    LDR      r9,[pc,#16] ; [0x8000bd8] = 0xf42400
        0x08000bc8:    bf00        ..      NOP      
        0x08000bca:    bf00        ..      NOP      
        0x08000bcc:    4648        HF      MOV      r0,r9
        0x08000bce:    e8bd87f0    ....    POP      {r4-r10,pc}
    $d
        0x08000bd2:    0000        ..      DCW    0
        0x08000bd4:    40023808    .8.@    DCD    1073887240
        0x08000bd8:    00f42400    .$..    DCD    16000000
        0x08000bdc:    017d7840    @x}.    DCD    25000000
    $t
    i.HAL_RCC_OscConfig
    HAL_RCC_OscConfig
        0x08000be0:    b5f8        ..      PUSH     {r3-r7,lr}
        0x08000be2:    4604        .F      MOV      r4,r0
        0x08000be4:    b90c        ..      CBNZ     r4,0x8000bea ; HAL_RCC_OscConfig + 10
        0x08000be6:    2001        .       MOVS     r0,#1
        0x08000be8:    bdf8        ..      POP      {r3-r7,pc}
        0x08000bea:    7820         x      LDRB     r0,[r4,#0]
        0x08000bec:    f0000001    ....    AND      r0,r0,#1
        0x08000bf0:    2800        .(      CMP      r0,#0
        0x08000bf2:    d074        t.      BEQ      0x8000cde ; HAL_RCC_OscConfig + 254
        0x08000bf4:    48f9        .H      LDR      r0,[pc,#996] ; [0x8000fdc] = 0x40023808
        0x08000bf6:    6800        .h      LDR      r0,[r0,#0]
        0x08000bf8:    f000000c    ....    AND      r0,r0,#0xc
        0x08000bfc:    2804        .(      CMP      r0,#4
        0x08000bfe:    d00d        ..      BEQ      0x8000c1c ; HAL_RCC_OscConfig + 60
        0x08000c00:    48f6        .H      LDR      r0,[pc,#984] ; [0x8000fdc] = 0x40023808
        0x08000c02:    6800        .h      LDR      r0,[r0,#0]
        0x08000c04:    f000000c    ....    AND      r0,r0,#0xc
        0x08000c08:    2808        .(      CMP      r0,#8
        0x08000c0a:    d113        ..      BNE      0x8000c34 ; HAL_RCC_OscConfig + 84
        0x08000c0c:    48f3        .H      LDR      r0,[pc,#972] ; [0x8000fdc] = 0x40023808
        0x08000c0e:    1f00        ..      SUBS     r0,r0,#4
        0x08000c10:    6800        .h      LDR      r0,[r0,#0]
        0x08000c12:    f4000080    ....    AND      r0,r0,#0x400000
        0x08000c16:    f5b00f80    ....    CMP      r0,#0x400000
        0x08000c1a:    d10b        ..      BNE      0x8000c34 ; HAL_RCC_OscConfig + 84
        0x08000c1c:    48ef        .H      LDR      r0,[pc,#956] ; [0x8000fdc] = 0x40023808
        0x08000c1e:    3808        .8      SUBS     r0,r0,#8
        0x08000c20:    6800        .h      LDR      r0,[r0,#0]
        0x08000c22:    f3c04040    ..@@    UBFX     r0,r0,#17,#1
        0x08000c26:    2800        .(      CMP      r0,#0
        0x08000c28:    d059        Y.      BEQ      0x8000cde ; HAL_RCC_OscConfig + 254
        0x08000c2a:    6860        `h      LDR      r0,[r4,#4]
        0x08000c2c:    2800        .(      CMP      r0,#0
        0x08000c2e:    d156        V.      BNE      0x8000cde ; HAL_RCC_OscConfig + 254
        0x08000c30:    2001        .       MOVS     r0,#1
        0x08000c32:    e7d9        ..      B        0x8000be8 ; HAL_RCC_OscConfig + 8
        0x08000c34:    bf00        ..      NOP      
        0x08000c36:    6860        `h      LDR      r0,[r4,#4]
        0x08000c38:    f5b03f80    ...?    CMP      r0,#0x10000
        0x08000c3c:    d108        ..      BNE      0x8000c50 ; HAL_RCC_OscConfig + 112
        0x08000c3e:    48e7        .H      LDR      r0,[pc,#924] ; [0x8000fdc] = 0x40023808
        0x08000c40:    3808        .8      SUBS     r0,r0,#8
        0x08000c42:    6800        .h      LDR      r0,[r0,#0]
        0x08000c44:    f4403080    @..0    ORR      r0,r0,#0x10000
        0x08000c48:    49e4        .I      LDR      r1,[pc,#912] ; [0x8000fdc] = 0x40023808
        0x08000c4a:    3908        .9      SUBS     r1,r1,#8
        0x08000c4c:    6008        .`      STR      r0,[r1,#0]
        0x08000c4e:    e01e        ..      B        0x8000c8e ; HAL_RCC_OscConfig + 174
        0x08000c50:    6860        `h      LDR      r0,[r4,#4]
        0x08000c52:    f5b02fa0    .../    CMP      r0,#0x50000
        0x08000c56:    d10d        ..      BNE      0x8000c74 ; HAL_RCC_OscConfig + 148
        0x08000c58:    48e0        .H      LDR      r0,[pc,#896] ; [0x8000fdc] = 0x40023808
        0x08000c5a:    3808        .8      SUBS     r0,r0,#8
        0x08000c5c:    6800        .h      LDR      r0,[r0,#0]
        0x08000c5e:    f4402080    @..     ORR      r0,r0,#0x40000
        0x08000c62:    49de        .I      LDR      r1,[pc,#888] ; [0x8000fdc] = 0x40023808
        0x08000c64:    3908        .9      SUBS     r1,r1,#8
        0x08000c66:    6008        .`      STR      r0,[r1,#0]
        0x08000c68:    4608        .F      MOV      r0,r1
        0x08000c6a:    6800        .h      LDR      r0,[r0,#0]
        0x08000c6c:    f4403080    @..0    ORR      r0,r0,#0x10000
        0x08000c70:    6008        .`      STR      r0,[r1,#0]
        0x08000c72:    e00c        ..      B        0x8000c8e ; HAL_RCC_OscConfig + 174
        0x08000c74:    48d9        .H      LDR      r0,[pc,#868] ; [0x8000fdc] = 0x40023808
        0x08000c76:    3808        .8      SUBS     r0,r0,#8
        0x08000c78:    6800        .h      LDR      r0,[r0,#0]
        0x08000c7a:    f4203080     ..0    BIC      r0,r0,#0x10000
        0x08000c7e:    49d7        .I      LDR      r1,[pc,#860] ; [0x8000fdc] = 0x40023808
        0x08000c80:    3908        .9      SUBS     r1,r1,#8
        0x08000c82:    6008        .`      STR      r0,[r1,#0]
        0x08000c84:    4608        .F      MOV      r0,r1
        0x08000c86:    6800        .h      LDR      r0,[r0,#0]
        0x08000c88:    f4202080     ..     BIC      r0,r0,#0x40000
        0x08000c8c:    6008        .`      STR      r0,[r1,#0]
        0x08000c8e:    bf00        ..      NOP      
        0x08000c90:    6860        `h      LDR      r0,[r4,#4]
        0x08000c92:    b190        ..      CBZ      r0,0x8000cba ; HAL_RCC_OscConfig + 218
        0x08000c94:    f7fffce2    ....    BL       HAL_GetTick ; 0x800065c
        0x08000c98:    4605        .F      MOV      r5,r0
        0x08000c9a:    e006        ..      B        0x8000caa ; HAL_RCC_OscConfig + 202
        0x08000c9c:    f7fffcde    ....    BL       HAL_GetTick ; 0x800065c
        0x08000ca0:    1b40        @.      SUBS     r0,r0,r5
        0x08000ca2:    2864        d(      CMP      r0,#0x64
        0x08000ca4:    d901        ..      BLS      0x8000caa ; HAL_RCC_OscConfig + 202
        0x08000ca6:    2003        .       MOVS     r0,#3
        0x08000ca8:    e79e        ..      B        0x8000be8 ; HAL_RCC_OscConfig + 8
        0x08000caa:    48cc        .H      LDR      r0,[pc,#816] ; [0x8000fdc] = 0x40023808
        0x08000cac:    3808        .8      SUBS     r0,r0,#8
        0x08000cae:    6800        .h      LDR      r0,[r0,#0]
        0x08000cb0:    f3c04040    ..@@    UBFX     r0,r0,#17,#1
        0x08000cb4:    2800        .(      CMP      r0,#0
        0x08000cb6:    d0f1        ..      BEQ      0x8000c9c ; HAL_RCC_OscConfig + 188
        0x08000cb8:    e011        ..      B        0x8000cde ; HAL_RCC_OscConfig + 254
        0x08000cba:    f7fffccf    ....    BL       HAL_GetTick ; 0x800065c
        0x08000cbe:    4605        .F      MOV      r5,r0
        0x08000cc0:    e006        ..      B        0x8000cd0 ; HAL_RCC_OscConfig + 240
        0x08000cc2:    f7fffccb    ....    BL       HAL_GetTick ; 0x800065c
        0x08000cc6:    1b40        @.      SUBS     r0,r0,r5
        0x08000cc8:    2864        d(      CMP      r0,#0x64
        0x08000cca:    d901        ..      BLS      0x8000cd0 ; HAL_RCC_OscConfig + 240
        0x08000ccc:    2003        .       MOVS     r0,#3
        0x08000cce:    e78b        ..      B        0x8000be8 ; HAL_RCC_OscConfig + 8
        0x08000cd0:    48c2        .H      LDR      r0,[pc,#776] ; [0x8000fdc] = 0x40023808
        0x08000cd2:    3808        .8      SUBS     r0,r0,#8
        0x08000cd4:    6800        .h      LDR      r0,[r0,#0]
        0x08000cd6:    f3c04040    ..@@    UBFX     r0,r0,#17,#1
        0x08000cda:    2800        .(      CMP      r0,#0
        0x08000cdc:    d1f1        ..      BNE      0x8000cc2 ; HAL_RCC_OscConfig + 226
        0x08000cde:    7820         x      LDRB     r0,[r4,#0]
        0x08000ce0:    f0000002    ....    AND      r0,r0,#2
        0x08000ce4:    2802        .(      CMP      r0,#2
        0x08000ce6:    d15f        _.      BNE      0x8000da8 ; HAL_RCC_OscConfig + 456
        0x08000ce8:    48bc        .H      LDR      r0,[pc,#752] ; [0x8000fdc] = 0x40023808
        0x08000cea:    6800        .h      LDR      r0,[r0,#0]
        0x08000cec:    f000000c    ....    AND      r0,r0,#0xc
        0x08000cf0:    b158        X.      CBZ      r0,0x8000d0a ; HAL_RCC_OscConfig + 298
        0x08000cf2:    48ba        .H      LDR      r0,[pc,#744] ; [0x8000fdc] = 0x40023808
        0x08000cf4:    6800        .h      LDR      r0,[r0,#0]
        0x08000cf6:    f000000c    ....    AND      r0,r0,#0xc
        0x08000cfa:    2808        .(      CMP      r0,#8
        0x08000cfc:    d11c        ..      BNE      0x8000d38 ; HAL_RCC_OscConfig + 344
        0x08000cfe:    48b7        .H      LDR      r0,[pc,#732] ; [0x8000fdc] = 0x40023808
        0x08000d00:    1f00        ..      SUBS     r0,r0,#4
        0x08000d02:    6800        .h      LDR      r0,[r0,#0]
        0x08000d04:    f4000080    ....    AND      r0,r0,#0x400000
        0x08000d08:    b9b0        ..      CBNZ     r0,0x8000d38 ; HAL_RCC_OscConfig + 344
        0x08000d0a:    48b4        .H      LDR      r0,[pc,#720] ; [0x8000fdc] = 0x40023808
        0x08000d0c:    3808        .8      SUBS     r0,r0,#8
        0x08000d0e:    6800        .h      LDR      r0,[r0,#0]
        0x08000d10:    f3c00040    ..@.    UBFX     r0,r0,#1,#1
        0x08000d14:    b120         .      CBZ      r0,0x8000d20 ; HAL_RCC_OscConfig + 320
        0x08000d16:    68e0        .h      LDR      r0,[r4,#0xc]
        0x08000d18:    2801        .(      CMP      r0,#1
        0x08000d1a:    d001        ..      BEQ      0x8000d20 ; HAL_RCC_OscConfig + 320
        0x08000d1c:    2001        .       MOVS     r0,#1
        0x08000d1e:    e763        c.      B        0x8000be8 ; HAL_RCC_OscConfig + 8
        0x08000d20:    48ae        .H      LDR      r0,[pc,#696] ; [0x8000fdc] = 0x40023808
        0x08000d22:    3808        .8      SUBS     r0,r0,#8
        0x08000d24:    6800        .h      LDR      r0,[r0,#0]
        0x08000d26:    f02000f8     ...    BIC      r0,r0,#0xf8
        0x08000d2a:    6921        !i      LDR      r1,[r4,#0x10]
        0x08000d2c:    ea4000c1    @...    ORR      r0,r0,r1,LSL #3
        0x08000d30:    49aa        .I      LDR      r1,[pc,#680] ; [0x8000fdc] = 0x40023808
        0x08000d32:    3908        .9      SUBS     r1,r1,#8
        0x08000d34:    6008        .`      STR      r0,[r1,#0]
        0x08000d36:    e037        7.      B        0x8000da8 ; HAL_RCC_OscConfig + 456
        0x08000d38:    68e0        .h      LDR      r0,[r4,#0xc]
        0x08000d3a:    b300        ..      CBZ      r0,0x8000d7e ; HAL_RCC_OscConfig + 414
        0x08000d3c:    2001        .       MOVS     r0,#1
        0x08000d3e:    49a8        .I      LDR      r1,[pc,#672] ; [0x8000fe0] = 0x42470000
        0x08000d40:    6008        .`      STR      r0,[r1,#0]
        0x08000d42:    f7fffc8b    ....    BL       HAL_GetTick ; 0x800065c
        0x08000d46:    4605        .F      MOV      r5,r0
        0x08000d48:    e006        ..      B        0x8000d58 ; HAL_RCC_OscConfig + 376
        0x08000d4a:    f7fffc87    ....    BL       HAL_GetTick ; 0x800065c
        0x08000d4e:    1b40        @.      SUBS     r0,r0,r5
        0x08000d50:    2802        .(      CMP      r0,#2
        0x08000d52:    d901        ..      BLS      0x8000d58 ; HAL_RCC_OscConfig + 376
        0x08000d54:    2003        .       MOVS     r0,#3
        0x08000d56:    e747        G.      B        0x8000be8 ; HAL_RCC_OscConfig + 8
        0x08000d58:    48a0        .H      LDR      r0,[pc,#640] ; [0x8000fdc] = 0x40023808
        0x08000d5a:    3808        .8      SUBS     r0,r0,#8
        0x08000d5c:    6800        .h      LDR      r0,[r0,#0]
        0x08000d5e:    f3c00040    ..@.    UBFX     r0,r0,#1,#1
        0x08000d62:    2800        .(      CMP      r0,#0
        0x08000d64:    d0f1        ..      BEQ      0x8000d4a ; HAL_RCC_OscConfig + 362
        0x08000d66:    489d        .H      LDR      r0,[pc,#628] ; [0x8000fdc] = 0x40023808
        0x08000d68:    3808        .8      SUBS     r0,r0,#8
        0x08000d6a:    6800        .h      LDR      r0,[r0,#0]
        0x08000d6c:    f02000f8     ...    BIC      r0,r0,#0xf8
        0x08000d70:    6921        !i      LDR      r1,[r4,#0x10]
        0x08000d72:    ea4000c1    @...    ORR      r0,r0,r1,LSL #3
        0x08000d76:    4999        .I      LDR      r1,[pc,#612] ; [0x8000fdc] = 0x40023808
        0x08000d78:    3908        .9      SUBS     r1,r1,#8
        0x08000d7a:    6008        .`      STR      r0,[r1,#0]
        0x08000d7c:    e014        ..      B        0x8000da8 ; HAL_RCC_OscConfig + 456
        0x08000d7e:    2000        .       MOVS     r0,#0
        0x08000d80:    4997        .I      LDR      r1,[pc,#604] ; [0x8000fe0] = 0x42470000
        0x08000d82:    6008        .`      STR      r0,[r1,#0]
        0x08000d84:    f7fffc6a    ..j.    BL       HAL_GetTick ; 0x800065c
        0x08000d88:    4605        .F      MOV      r5,r0
        0x08000d8a:    e006        ..      B        0x8000d9a ; HAL_RCC_OscConfig + 442
        0x08000d8c:    f7fffc66    ..f.    BL       HAL_GetTick ; 0x800065c
        0x08000d90:    1b40        @.      SUBS     r0,r0,r5
        0x08000d92:    2802        .(      CMP      r0,#2
        0x08000d94:    d901        ..      BLS      0x8000d9a ; HAL_RCC_OscConfig + 442
        0x08000d96:    2003        .       MOVS     r0,#3
        0x08000d98:    e726        &.      B        0x8000be8 ; HAL_RCC_OscConfig + 8
        0x08000d9a:    4890        .H      LDR      r0,[pc,#576] ; [0x8000fdc] = 0x40023808
        0x08000d9c:    3808        .8      SUBS     r0,r0,#8
        0x08000d9e:    6800        .h      LDR      r0,[r0,#0]
        0x08000da0:    f3c00040    ..@.    UBFX     r0,r0,#1,#1
        0x08000da4:    2800        .(      CMP      r0,#0
        0x08000da6:    d1f1        ..      BNE      0x8000d8c ; HAL_RCC_OscConfig + 428
        0x08000da8:    7820         x      LDRB     r0,[r4,#0]
        0x08000daa:    f0000008    ....    AND      r0,r0,#8
        0x08000dae:    2808        .(      CMP      r0,#8
        0x08000db0:    d12c        ,.      BNE      0x8000e0c ; HAL_RCC_OscConfig + 556
        0x08000db2:    6960        `i      LDR      r0,[r4,#0x14]
        0x08000db4:    b1a8        ..      CBZ      r0,0x8000de2 ; HAL_RCC_OscConfig + 514
        0x08000db6:    2001        .       MOVS     r0,#1
        0x08000db8:    498a        .I      LDR      r1,[pc,#552] ; [0x8000fe4] = 0x42470e80
        0x08000dba:    6008        .`      STR      r0,[r1,#0]
        0x08000dbc:    f7fffc4e    ..N.    BL       HAL_GetTick ; 0x800065c
        0x08000dc0:    4605        .F      MOV      r5,r0
        0x08000dc2:    e006        ..      B        0x8000dd2 ; HAL_RCC_OscConfig + 498
        0x08000dc4:    f7fffc4a    ..J.    BL       HAL_GetTick ; 0x800065c
        0x08000dc8:    1b40        @.      SUBS     r0,r0,r5
        0x08000dca:    2802        .(      CMP      r0,#2
        0x08000dcc:    d901        ..      BLS      0x8000dd2 ; HAL_RCC_OscConfig + 498
        0x08000dce:    2003        .       MOVS     r0,#3
        0x08000dd0:    e70a        ..      B        0x8000be8 ; HAL_RCC_OscConfig + 8
        0x08000dd2:    4882        .H      LDR      r0,[pc,#520] ; [0x8000fdc] = 0x40023808
        0x08000dd4:    306c        l0      ADDS     r0,r0,#0x6c
        0x08000dd6:    6800        .h      LDR      r0,[r0,#0]
        0x08000dd8:    f3c00040    ..@.    UBFX     r0,r0,#1,#1
        0x08000ddc:    2800        .(      CMP      r0,#0
        0x08000dde:    d0f1        ..      BEQ      0x8000dc4 ; HAL_RCC_OscConfig + 484
        0x08000de0:    e014        ..      B        0x8000e0c ; HAL_RCC_OscConfig + 556
        0x08000de2:    2000        .       MOVS     r0,#0
        0x08000de4:    497f        .I      LDR      r1,[pc,#508] ; [0x8000fe4] = 0x42470e80
        0x08000de6:    6008        .`      STR      r0,[r1,#0]
        0x08000de8:    f7fffc38    ..8.    BL       HAL_GetTick ; 0x800065c
        0x08000dec:    4605        .F      MOV      r5,r0
        0x08000dee:    e006        ..      B        0x8000dfe ; HAL_RCC_OscConfig + 542
        0x08000df0:    f7fffc34    ..4.    BL       HAL_GetTick ; 0x800065c
        0x08000df4:    1b40        @.      SUBS     r0,r0,r5
        0x08000df6:    2802        .(      CMP      r0,#2
        0x08000df8:    d901        ..      BLS      0x8000dfe ; HAL_RCC_OscConfig + 542
        0x08000dfa:    2003        .       MOVS     r0,#3
        0x08000dfc:    e6f4        ..      B        0x8000be8 ; HAL_RCC_OscConfig + 8
        0x08000dfe:    4877        wH      LDR      r0,[pc,#476] ; [0x8000fdc] = 0x40023808
        0x08000e00:    306c        l0      ADDS     r0,r0,#0x6c
        0x08000e02:    6800        .h      LDR      r0,[r0,#0]
        0x08000e04:    f3c00040    ..@.    UBFX     r0,r0,#1,#1
        0x08000e08:    2800        .(      CMP      r0,#0
        0x08000e0a:    d1f1        ..      BNE      0x8000df0 ; HAL_RCC_OscConfig + 528
        0x08000e0c:    7820         x      LDRB     r0,[r4,#0]
        0x08000e0e:    f0000004    ....    AND      r0,r0,#4
        0x08000e12:    2804        .(      CMP      r0,#4
        0x08000e14:    d170        p.      BNE      0x8000ef8 ; HAL_RCC_OscConfig + 792
        0x08000e16:    2700        .'      MOVS     r7,#0
        0x08000e18:    4870        pH      LDR      r0,[pc,#448] ; [0x8000fdc] = 0x40023808
        0x08000e1a:    3038        80      ADDS     r0,r0,#0x38
        0x08000e1c:    6800        .h      LDR      r0,[r0,#0]
        0x08000e1e:    f0005080    ...P    AND      r0,r0,#0x10000000
        0x08000e22:    b990        ..      CBNZ     r0,0x8000e4a ; HAL_RCC_OscConfig + 618
        0x08000e24:    bf00        ..      NOP      
        0x08000e26:    2000        .       MOVS     r0,#0
        0x08000e28:    9000        ..      STR      r0,[sp,#0]
        0x08000e2a:    486c        lH      LDR      r0,[pc,#432] ; [0x8000fdc] = 0x40023808
        0x08000e2c:    3038        80      ADDS     r0,r0,#0x38
        0x08000e2e:    6800        .h      LDR      r0,[r0,#0]
        0x08000e30:    f0405080    @..P    ORR      r0,r0,#0x10000000
        0x08000e34:    4969        iI      LDR      r1,[pc,#420] ; [0x8000fdc] = 0x40023808
        0x08000e36:    3138        81      ADDS     r1,r1,#0x38
        0x08000e38:    6008        .`      STR      r0,[r1,#0]
        0x08000e3a:    4608        .F      MOV      r0,r1
        0x08000e3c:    6800        .h      LDR      r0,[r0,#0]
        0x08000e3e:    f0005080    ...P    AND      r0,r0,#0x10000000
        0x08000e42:    9000        ..      STR      r0,[sp,#0]
        0x08000e44:    bf00        ..      NOP      
        0x08000e46:    bf00        ..      NOP      
        0x08000e48:    2701        .'      MOVS     r7,#1
        0x08000e4a:    4867        gH      LDR      r0,[pc,#412] ; [0x8000fe8] = 0x40007000
        0x08000e4c:    6800        .h      LDR      r0,[r0,#0]
        0x08000e4e:    f4007080    ...p    AND      r0,r0,#0x100
        0x08000e52:    b9b0        ..      CBNZ     r0,0x8000e82 ; HAL_RCC_OscConfig + 674
        0x08000e54:    4864        dH      LDR      r0,[pc,#400] ; [0x8000fe8] = 0x40007000
        0x08000e56:    6800        .h      LDR      r0,[r0,#0]
        0x08000e58:    f4407080    @..p    ORR      r0,r0,#0x100
        0x08000e5c:    4962        bI      LDR      r1,[pc,#392] ; [0x8000fe8] = 0x40007000
        0x08000e5e:    6008        .`      STR      r0,[r1,#0]
        0x08000e60:    f7fffbfc    ....    BL       HAL_GetTick ; 0x800065c
        0x08000e64:    4605        .F      MOV      r5,r0
        0x08000e66:    e006        ..      B        0x8000e76 ; HAL_RCC_OscConfig + 662
        0x08000e68:    f7fffbf8    ....    BL       HAL_GetTick ; 0x800065c
        0x08000e6c:    1b40        @.      SUBS     r0,r0,r5
        0x08000e6e:    2802        .(      CMP      r0,#2
        0x08000e70:    d901        ..      BLS      0x8000e76 ; HAL_RCC_OscConfig + 662
        0x08000e72:    2003        .       MOVS     r0,#3
        0x08000e74:    e6b8        ..      B        0x8000be8 ; HAL_RCC_OscConfig + 8
        0x08000e76:    485c        \H      LDR      r0,[pc,#368] ; [0x8000fe8] = 0x40007000
        0x08000e78:    6800        .h      LDR      r0,[r0,#0]
        0x08000e7a:    f4007080    ...p    AND      r0,r0,#0x100
        0x08000e7e:    2800        .(      CMP      r0,#0
        0x08000e80:    d0f2        ..      BEQ      0x8000e68 ; HAL_RCC_OscConfig + 648
        0x08000e82:    bf00        ..      NOP      
        0x08000e84:    68a0        .h      LDR      r0,[r4,#8]
        0x08000e86:    2801        .(      CMP      r0,#1
        0x08000e88:    d108        ..      BNE      0x8000e9c ; HAL_RCC_OscConfig + 700
        0x08000e8a:    4854        TH      LDR      r0,[pc,#336] ; [0x8000fdc] = 0x40023808
        0x08000e8c:    3068        h0      ADDS     r0,r0,#0x68
        0x08000e8e:    6800        .h      LDR      r0,[r0,#0]
        0x08000e90:    f0400001    @...    ORR      r0,r0,#1
        0x08000e94:    4951        QI      LDR      r1,[pc,#324] ; [0x8000fdc] = 0x40023808
        0x08000e96:    3168        h1      ADDS     r1,r1,#0x68
        0x08000e98:    6008        .`      STR      r0,[r1,#0]
        0x08000e9a:    e01d        ..      B        0x8000ed8 ; HAL_RCC_OscConfig + 760
        0x08000e9c:    68a0        .h      LDR      r0,[r4,#8]
        0x08000e9e:    2805        .(      CMP      r0,#5
        0x08000ea0:    d10d        ..      BNE      0x8000ebe ; HAL_RCC_OscConfig + 734
        0x08000ea2:    484e        NH      LDR      r0,[pc,#312] ; [0x8000fdc] = 0x40023808
        0x08000ea4:    3068        h0      ADDS     r0,r0,#0x68
        0x08000ea6:    6800        .h      LDR      r0,[r0,#0]
        0x08000ea8:    f0400004    @...    ORR      r0,r0,#4
        0x08000eac:    494b        KI      LDR      r1,[pc,#300] ; [0x8000fdc] = 0x40023808
        0x08000eae:    3168        h1      ADDS     r1,r1,#0x68
        0x08000eb0:    6008        .`      STR      r0,[r1,#0]
        0x08000eb2:    4608        .F      MOV      r0,r1
        0x08000eb4:    6800        .h      LDR      r0,[r0,#0]
        0x08000eb6:    f0400001    @...    ORR      r0,r0,#1
        0x08000eba:    6008        .`      STR      r0,[r1,#0]
        0x08000ebc:    e00c        ..      B        0x8000ed8 ; HAL_RCC_OscConfig + 760
        0x08000ebe:    4847        GH      LDR      r0,[pc,#284] ; [0x8000fdc] = 0x40023808
        0x08000ec0:    3068        h0      ADDS     r0,r0,#0x68
        0x08000ec2:    6800        .h      LDR      r0,[r0,#0]
        0x08000ec4:    f0200001     ...    BIC      r0,r0,#1
        0x08000ec8:    4944        DI      LDR      r1,[pc,#272] ; [0x8000fdc] = 0x40023808
        0x08000eca:    3168        h1      ADDS     r1,r1,#0x68
        0x08000ecc:    6008        .`      STR      r0,[r1,#0]
        0x08000ece:    4608        .F      MOV      r0,r1
        0x08000ed0:    6800        .h      LDR      r0,[r0,#0]
        0x08000ed2:    f0200004     ...    BIC      r0,r0,#4
        0x08000ed6:    6008        .`      STR      r0,[r1,#0]
        0x08000ed8:    bf00        ..      NOP      
        0x08000eda:    68a0        .h      LDR      r0,[r4,#8]
        0x08000edc:    b1a8        ..      CBZ      r0,0x8000f0a ; HAL_RCC_OscConfig + 810
        0x08000ede:    f7fffbbd    ....    BL       HAL_GetTick ; 0x800065c
        0x08000ee2:    4605        .F      MOV      r5,r0
        0x08000ee4:    e009        ..      B        0x8000efa ; HAL_RCC_OscConfig + 794
        0x08000ee6:    f7fffbb9    ....    BL       HAL_GetTick ; 0x800065c
        0x08000eea:    1b40        @.      SUBS     r0,r0,r5
        0x08000eec:    f2413188    A..1    MOV      r1,#0x1388
        0x08000ef0:    4288        .B      CMP      r0,r1
        0x08000ef2:    d902        ..      BLS      0x8000efa ; HAL_RCC_OscConfig + 794
        0x08000ef4:    2003        .       MOVS     r0,#3
        0x08000ef6:    e677        w.      B        0x8000be8 ; HAL_RCC_OscConfig + 8
        0x08000ef8:    e026        &.      B        0x8000f48 ; HAL_RCC_OscConfig + 872
        0x08000efa:    4838        8H      LDR      r0,[pc,#224] ; [0x8000fdc] = 0x40023808
        0x08000efc:    3068        h0      ADDS     r0,r0,#0x68
        0x08000efe:    6800        .h      LDR      r0,[r0,#0]
        0x08000f00:    f3c00040    ..@.    UBFX     r0,r0,#1,#1
        0x08000f04:    2800        .(      CMP      r0,#0
        0x08000f06:    d0ee        ..      BEQ      0x8000ee6 ; HAL_RCC_OscConfig + 774
        0x08000f08:    e013        ..      B        0x8000f32 ; HAL_RCC_OscConfig + 850
        0x08000f0a:    f7fffba7    ....    BL       HAL_GetTick ; 0x800065c
        0x08000f0e:    4605        .F      MOV      r5,r0
        0x08000f10:    e008        ..      B        0x8000f24 ; HAL_RCC_OscConfig + 836
        0x08000f12:    f7fffba3    ....    BL       HAL_GetTick ; 0x800065c
        0x08000f16:    1b40        @.      SUBS     r0,r0,r5
        0x08000f18:    f2413188    A..1    MOV      r1,#0x1388
        0x08000f1c:    4288        .B      CMP      r0,r1
        0x08000f1e:    d901        ..      BLS      0x8000f24 ; HAL_RCC_OscConfig + 836
        0x08000f20:    2003        .       MOVS     r0,#3
        0x08000f22:    e661        a.      B        0x8000be8 ; HAL_RCC_OscConfig + 8
        0x08000f24:    482d        -H      LDR      r0,[pc,#180] ; [0x8000fdc] = 0x40023808
        0x08000f26:    3068        h0      ADDS     r0,r0,#0x68
        0x08000f28:    6800        .h      LDR      r0,[r0,#0]
        0x08000f2a:    f3c00040    ..@.    UBFX     r0,r0,#1,#1
        0x08000f2e:    2800        .(      CMP      r0,#0
        0x08000f30:    d1ef        ..      BNE      0x8000f12 ; HAL_RCC_OscConfig + 818
        0x08000f32:    2f01        ./      CMP      r7,#1
        0x08000f34:    d107        ..      BNE      0x8000f46 ; HAL_RCC_OscConfig + 870
        0x08000f36:    4829        )H      LDR      r0,[pc,#164] ; [0x8000fdc] = 0x40023808
        0x08000f38:    3038        80      ADDS     r0,r0,#0x38
        0x08000f3a:    6800        .h      LDR      r0,[r0,#0]
        0x08000f3c:    f0205080     ..P    BIC      r0,r0,#0x10000000
        0x08000f40:    4926        &I      LDR      r1,[pc,#152] ; [0x8000fdc] = 0x40023808
        0x08000f42:    3138        81      ADDS     r1,r1,#0x38
        0x08000f44:    6008        .`      STR      r0,[r1,#0]
        0x08000f46:    bf00        ..      NOP      
        0x08000f48:    69a0        .i      LDR      r0,[r4,#0x18]
        0x08000f4a:    2800        .(      CMP      r0,#0
        0x08000f4c:    d045        E.      BEQ      0x8000fda ; HAL_RCC_OscConfig + 1018
        0x08000f4e:    4823        #H      LDR      r0,[pc,#140] ; [0x8000fdc] = 0x40023808
        0x08000f50:    6800        .h      LDR      r0,[r0,#0]
        0x08000f52:    f000000c    ....    AND      r0,r0,#0xc
        0x08000f56:    2808        .(      CMP      r0,#8
        0x08000f58:    d05d        ].      BEQ      0x8001016 ; HAL_RCC_OscConfig + 1078
        0x08000f5a:    69a0        .i      LDR      r0,[r4,#0x18]
        0x08000f5c:    2802        .(      CMP      r0,#2
        0x08000f5e:    d145        E.      BNE      0x8000fec ; HAL_RCC_OscConfig + 1036
        0x08000f60:    2000        .       MOVS     r0,#0
        0x08000f62:    491f        .I      LDR      r1,[pc,#124] ; [0x8000fe0] = 0x42470000
        0x08000f64:    6608        .f      STR      r0,[r1,#0x60]
        0x08000f66:    f7fffb79    ..y.    BL       HAL_GetTick ; 0x800065c
        0x08000f6a:    4605        .F      MOV      r5,r0
        0x08000f6c:    e006        ..      B        0x8000f7c ; HAL_RCC_OscConfig + 924
        0x08000f6e:    f7fffb75    ..u.    BL       HAL_GetTick ; 0x800065c
        0x08000f72:    1b40        @.      SUBS     r0,r0,r5
        0x08000f74:    2802        .(      CMP      r0,#2
        0x08000f76:    d901        ..      BLS      0x8000f7c ; HAL_RCC_OscConfig + 924
        0x08000f78:    2003        .       MOVS     r0,#3
        0x08000f7a:    e635        5.      B        0x8000be8 ; HAL_RCC_OscConfig + 8
        0x08000f7c:    4817        .H      LDR      r0,[pc,#92] ; [0x8000fdc] = 0x40023808
        0x08000f7e:    3808        .8      SUBS     r0,r0,#8
        0x08000f80:    6800        .h      LDR      r0,[r0,#0]
        0x08000f82:    f3c06040    ..@`    UBFX     r0,r0,#25,#1
        0x08000f86:    2800        .(      CMP      r0,#0
        0x08000f88:    d1f1        ..      BNE      0x8000f6e ; HAL_RCC_OscConfig + 910
        0x08000f8a:    e9d40107    ....    LDRD     r0,r1,[r4,#0x1c]
        0x08000f8e:    4308        .C      ORRS     r0,r0,r1
        0x08000f90:    6a61        aj      LDR      r1,[r4,#0x24]
        0x08000f92:    ea401181    @...    ORR      r1,r0,r1,LSL #6
        0x08000f96:    2201        ."      MOVS     r2,#1
        0x08000f98:    6aa0        .j      LDR      r0,[r4,#0x28]
        0x08000f9a:    ebc20050    ..P.    RSB      r0,r2,r0,LSR #1
        0x08000f9e:    ea414100    A..A    ORR      r1,r1,r0,LSL #16
        0x08000fa2:    202c        ,       MOVS     r0,#0x2c
        0x08000fa4:    5d00        .]      LDRB     r0,[r0,r4]
        0x08000fa6:    ea416000    A..`    ORR      r0,r1,r0,LSL #24
        0x08000faa:    490c        .I      LDR      r1,[pc,#48] ; [0x8000fdc] = 0x40023808
        0x08000fac:    1f09        ..      SUBS     r1,r1,#4
        0x08000fae:    6008        .`      STR      r0,[r1,#0]
        0x08000fb0:    2001        .       MOVS     r0,#1
        0x08000fb2:    490b        .I      LDR      r1,[pc,#44] ; [0x8000fe0] = 0x42470000
        0x08000fb4:    6608        .f      STR      r0,[r1,#0x60]
        0x08000fb6:    f7fffb51    ..Q.    BL       HAL_GetTick ; 0x800065c
        0x08000fba:    4605        .F      MOV      r5,r0
        0x08000fbc:    e006        ..      B        0x8000fcc ; HAL_RCC_OscConfig + 1004
        0x08000fbe:    f7fffb4d    ..M.    BL       HAL_GetTick ; 0x800065c
        0x08000fc2:    1b40        @.      SUBS     r0,r0,r5
        0x08000fc4:    2802        .(      CMP      r0,#2
        0x08000fc6:    d901        ..      BLS      0x8000fcc ; HAL_RCC_OscConfig + 1004
        0x08000fc8:    2003        .       MOVS     r0,#3
        0x08000fca:    e60d        ..      B        0x8000be8 ; HAL_RCC_OscConfig + 8
        0x08000fcc:    4803        .H      LDR      r0,[pc,#12] ; [0x8000fdc] = 0x40023808
        0x08000fce:    3808        .8      SUBS     r0,r0,#8
        0x08000fd0:    6800        .h      LDR      r0,[r0,#0]
        0x08000fd2:    f3c06040    ..@`    UBFX     r0,r0,#25,#1
        0x08000fd6:    2800        .(      CMP      r0,#0
        0x08000fd8:    d0f1        ..      BEQ      0x8000fbe ; HAL_RCC_OscConfig + 990
        0x08000fda:    e049        I.      B        0x8001070 ; HAL_RCC_OscConfig + 1168
    $d
        0x08000fdc:    40023808    .8.@    DCD    1073887240
        0x08000fe0:    42470000    ..GB    DCD    1111949312
        0x08000fe4:    42470e80    ..GB    DCD    1111953024
        0x08000fe8:    40007000    .p.@    DCD    1073770496
    $t
        0x08000fec:    2000        .       MOVS     r0,#0
        0x08000fee:    4921        !I      LDR      r1,[pc,#132] ; [0x8001074] = 0x42470000
        0x08000ff0:    6608        .f      STR      r0,[r1,#0x60]
        0x08000ff2:    f7fffb33    ..3.    BL       HAL_GetTick ; 0x800065c
        0x08000ff6:    4605        .F      MOV      r5,r0
        0x08000ff8:    e006        ..      B        0x8001008 ; HAL_RCC_OscConfig + 1064
        0x08000ffa:    f7fffb2f    ../.    BL       HAL_GetTick ; 0x800065c
        0x08000ffe:    1b40        @.      SUBS     r0,r0,r5
        0x08001000:    2802        .(      CMP      r0,#2
        0x08001002:    d901        ..      BLS      0x8001008 ; HAL_RCC_OscConfig + 1064
        0x08001004:    2003        .       MOVS     r0,#3
        0x08001006:    e5ef        ..      B        0x8000be8 ; HAL_RCC_OscConfig + 8
        0x08001008:    481b        .H      LDR      r0,[pc,#108] ; [0x8001078] = 0x40023800
        0x0800100a:    6800        .h      LDR      r0,[r0,#0]
        0x0800100c:    f3c06040    ..@`    UBFX     r0,r0,#25,#1
        0x08001010:    2800        .(      CMP      r0,#0
        0x08001012:    d1f2        ..      BNE      0x8000ffa ; HAL_RCC_OscConfig + 1050
        0x08001014:    e02c        ,.      B        0x8001070 ; HAL_RCC_OscConfig + 1168
        0x08001016:    69a0        .i      LDR      r0,[r4,#0x18]
        0x08001018:    2801        .(      CMP      r0,#1
        0x0800101a:    d100        ..      BNE      0x800101e ; HAL_RCC_OscConfig + 1086
        0x0800101c:    e5e4        ..      B        0x8000be8 ; HAL_RCC_OscConfig + 8
        0x0800101e:    4816        .H      LDR      r0,[pc,#88] ; [0x8001078] = 0x40023800
        0x08001020:    1d00        ..      ADDS     r0,r0,#4
        0x08001022:    6806        .h      LDR      r6,[r0,#0]
        0x08001024:    69a0        .i      LDR      r0,[r4,#0x18]
        0x08001026:    2801        .(      CMP      r0,#1
        0x08001028:    d020         .      BEQ      0x800106c ; HAL_RCC_OscConfig + 1164
        0x0800102a:    f4060180    ....    AND      r1,r6,#0x400000
        0x0800102e:    69e0        .i      LDR      r0,[r4,#0x1c]
        0x08001030:    4281        .B      CMP      r1,r0
        0x08001032:    d11b        ..      BNE      0x800106c ; HAL_RCC_OscConfig + 1164
        0x08001034:    f006013f    ..?.    AND      r1,r6,#0x3f
        0x08001038:    6a20         j      LDR      r0,[r4,#0x20]
        0x0800103a:    4281        .B      CMP      r1,r0
        0x0800103c:    d116        ..      BNE      0x800106c ; HAL_RCC_OscConfig + 1164
        0x0800103e:    f64770c0    G..p    MOV      r0,#0x7fc0
        0x08001042:    4030        0@      ANDS     r0,r0,r6
        0x08001044:    6a61        aj      LDR      r1,[r4,#0x24]
        0x08001046:    ebb01f81    ....    CMP      r0,r1,LSL #6
        0x0800104a:    d10f        ..      BNE      0x800106c ; HAL_RCC_OscConfig + 1164
        0x0800104c:    f4063140    ..@1    AND      r1,r6,#0x30000
        0x08001050:    2201        ."      MOVS     r2,#1
        0x08001052:    6aa0        .j      LDR      r0,[r4,#0x28]
        0x08001054:    ebc20050    ..P.    RSB      r0,r2,r0,LSR #1
        0x08001058:    ebb14f00    ...O    CMP      r1,r0,LSL #16
        0x0800105c:    d106        ..      BNE      0x800106c ; HAL_RCC_OscConfig + 1164
        0x0800105e:    f0066170    ..pa    AND      r1,r6,#0xf000000
        0x08001062:    202c        ,       MOVS     r0,#0x2c
        0x08001064:    5d00        .]      LDRB     r0,[r0,r4]
        0x08001066:    ebb16f00    ...o    CMP      r1,r0,LSL #24
        0x0800106a:    d001        ..      BEQ      0x8001070 ; HAL_RCC_OscConfig + 1168
        0x0800106c:    2001        .       MOVS     r0,#1
        0x0800106e:    e5bb        ..      B        0x8000be8 ; HAL_RCC_OscConfig + 8
        0x08001070:    2000        .       MOVS     r0,#0
        0x08001072:    e5b9        ..      B        0x8000be8 ; HAL_RCC_OscConfig + 8
    $d
        0x08001074:    42470000    ..GB    DCD    1111949312
        0x08001078:    40023800    .8.@    DCD    1073887232
    $t
    i.HAL_RTC_Init
    HAL_RTC_Init
        0x0800107c:    b570        p.      PUSH     {r4-r6,lr}
        0x0800107e:    4604        .F      MOV      r4,r0
        0x08001080:    2501        .%      MOVS     r5,#1
        0x08001082:    b90c        ..      CBNZ     r4,0x8001088 ; HAL_RTC_Init + 12
        0x08001084:    2001        .       MOVS     r0,#1
        0x08001086:    bd70        p.      POP      {r4-r6,pc}
        0x08001088:    7f60        `.      LDRB     r0,[r4,#0x1d]
        0x0800108a:    b920         .      CBNZ     r0,0x8001096 ; HAL_RTC_Init + 26
        0x0800108c:    2000        .       MOVS     r0,#0
        0x0800108e:    7720         w      STRB     r0,[r4,#0x1c]
        0x08001090:    4620         F      MOV      r0,r4
        0x08001092:    f000f84d    ..M.    BL       HAL_RTC_MspInit ; 0x8001130
        0x08001096:    2002        .       MOVS     r0,#2
        0x08001098:    7760        `w      STRB     r0,[r4,#0x1d]
        0x0800109a:    6820         h      LDR      r0,[r4,#0]
        0x0800109c:    68c0        .h      LDR      r0,[r0,#0xc]
        0x0800109e:    f3c01000    ....    UBFX     r0,r0,#4,#1
        0x080010a2:    2800        .(      CMP      r0,#0
        0x080010a4:    d13c        <.      BNE      0x8001120 ; HAL_RTC_Init + 164
        0x080010a6:    bf00        ..      NOP      
        0x080010a8:    20ca        .       MOVS     r0,#0xca
        0x080010aa:    6821        !h      LDR      r1,[r4,#0]
        0x080010ac:    6248        Hb      STR      r0,[r1,#0x24]
        0x080010ae:    2053        S       MOVS     r0,#0x53
        0x080010b0:    6821        !h      LDR      r1,[r4,#0]
        0x080010b2:    6248        Hb      STR      r0,[r1,#0x24]
        0x080010b4:    bf00        ..      NOP      
        0x080010b6:    4620         F      MOV      r0,r4
        0x080010b8:    f000f915    ....    BL       RTC_EnterInitMode ; 0x80012e6
        0x080010bc:    4605        .F      MOV      r5,r0
        0x080010be:    b9ed        ..      CBNZ     r5,0x80010fc ; HAL_RTC_Init + 128
        0x080010c0:    6820         h      LDR      r0,[r4,#0]
        0x080010c2:    6880        .h      LDR      r0,[r0,#8]
        0x080010c4:    4919        .I      LDR      r1,[pc,#100] ; [0x800112c] = 0xff8fffbf
        0x080010c6:    4008        .@      ANDS     r0,r0,r1
        0x080010c8:    6821        !h      LDR      r1,[r4,#0]
        0x080010ca:    6088        .`      STR      r0,[r1,#8]
        0x080010cc:    6921        !i      LDR      r1,[r4,#0x10]
        0x080010ce:    6860        `h      LDR      r0,[r4,#4]
        0x080010d0:    4308        .C      ORRS     r0,r0,r1
        0x080010d2:    6961        ai      LDR      r1,[r4,#0x14]
        0x080010d4:    4308        .C      ORRS     r0,r0,r1
        0x080010d6:    6821        !h      LDR      r1,[r4,#0]
        0x080010d8:    6889        .h      LDR      r1,[r1,#8]
        0x080010da:    4308        .C      ORRS     r0,r0,r1
        0x080010dc:    6821        !h      LDR      r1,[r4,#0]
        0x080010de:    6088        .`      STR      r0,[r1,#8]
        0x080010e0:    6821        !h      LDR      r1,[r4,#0]
        0x080010e2:    68e0        .h      LDR      r0,[r4,#0xc]
        0x080010e4:    6108        .a      STR      r0,[r1,#0x10]
        0x080010e6:    6820         h      LDR      r0,[r4,#0]
        0x080010e8:    6901        .i      LDR      r1,[r0,#0x10]
        0x080010ea:    8920         .      LDRH     r0,[r4,#8]
        0x080010ec:    ea414000    A..@    ORR      r0,r1,r0,LSL #16
        0x080010f0:    6821        !h      LDR      r1,[r4,#0]
        0x080010f2:    6108        .a      STR      r0,[r1,#0x10]
        0x080010f4:    4620         F      MOV      r0,r4
        0x080010f6:    f000f91b    ....    BL       RTC_ExitInitMode ; 0x8001330
        0x080010fa:    4605        .F      MOV      r5,r0
        0x080010fc:    b95d        ].      CBNZ     r5,0x8001116 ; HAL_RTC_Init + 154
        0x080010fe:    6820         h      LDR      r0,[r4,#0]
        0x08001100:    6c00        .l      LDR      r0,[r0,#0x40]
        0x08001102:    f4202080     ..     BIC      r0,r0,#0x40000
        0x08001106:    6821        !h      LDR      r1,[r4,#0]
        0x08001108:    6408        .d      STR      r0,[r1,#0x40]
        0x0800110a:    6820         h      LDR      r0,[r4,#0]
        0x0800110c:    6c00        .l      LDR      r0,[r0,#0x40]
        0x0800110e:    69a1        .i      LDR      r1,[r4,#0x18]
        0x08001110:    4308        .C      ORRS     r0,r0,r1
        0x08001112:    6821        !h      LDR      r1,[r4,#0]
        0x08001114:    6408        .d      STR      r0,[r1,#0x40]
        0x08001116:    bf00        ..      NOP      
        0x08001118:    20ff        .       MOVS     r0,#0xff
        0x0800111a:    6821        !h      LDR      r1,[r4,#0]
        0x0800111c:    6248        Hb      STR      r0,[r1,#0x24]
        0x0800111e:    e000        ..      B        0x8001122 ; HAL_RTC_Init + 166
        0x08001120:    2500        .%      MOVS     r5,#0
        0x08001122:    b90d        ..      CBNZ     r5,0x8001128 ; HAL_RTC_Init + 172
        0x08001124:    2001        .       MOVS     r0,#1
        0x08001126:    7760        `w      STRB     r0,[r4,#0x1d]
        0x08001128:    4628        (F      MOV      r0,r5
        0x0800112a:    e7ac        ..      B        0x8001086 ; HAL_RTC_Init + 10
    $d
        0x0800112c:    ff8fffbf    ....    DCD    4287627199
    $t
    i.HAL_RTC_MspInit
    HAL_RTC_MspInit
        0x08001130:    b510        ..      PUSH     {r4,lr}
        0x08001132:    b086        ..      SUB      sp,sp,#0x18
        0x08001134:    4604        .F      MOV      r4,r0
        0x08001136:    2118        .!      MOVS     r1,#0x18
        0x08001138:    4668        hF      MOV      r0,sp
        0x0800113a:    f7fff914    ....    BL       __aeabi_memclr4 ; 0x8000366
        0x0800113e:    4909        .I      LDR      r1,[pc,#36] ; [0x8001164] = 0x40002800
        0x08001140:    6820         h      LDR      r0,[r4,#0]
        0x08001142:    4288        .B      CMP      r0,r1
        0x08001144:    d10c        ..      BNE      0x8001160 ; HAL_RTC_MspInit + 48
        0x08001146:    2002        .       MOVS     r0,#2
        0x08001148:    9000        ..      STR      r0,[sp,#0]
        0x0800114a:    0200        ..      LSLS     r0,r0,#8
        0x0800114c:    9004        ..      STR      r0,[sp,#0x10]
        0x0800114e:    4668        hF      MOV      r0,sp
        0x08001150:    f7fffb50    ..P.    BL       HAL_RCCEx_PeriphCLKConfig ; 0x80007f4
        0x08001154:    b108        ..      CBZ      r0,0x800115a ; HAL_RTC_MspInit + 42
        0x08001156:    f7fff96d    ..m.    BL       Error_Handler ; 0x8000434
        0x0800115a:    2001        .       MOVS     r0,#1
        0x0800115c:    4902        .I      LDR      r1,[pc,#8] ; [0x8001168] = 0x42470e3c
        0x0800115e:    6008        .`      STR      r0,[r1,#0]
        0x08001160:    b006        ..      ADD      sp,sp,#0x18
        0x08001162:    bd10        ..      POP      {r4,pc}
    $d
        0x08001164:    40002800    .(.@    DCD    1073752064
        0x08001168:    42470e3c    <.GB    DCD    1111952956
    $t
    i.HAL_RTC_WaitForSynchro
    HAL_RTC_WaitForSynchro
        0x0800116c:    b570        p.      PUSH     {r4-r6,lr}
        0x0800116e:    4604        .F      MOV      r4,r0
        0x08001170:    2500        .%      MOVS     r5,#0
        0x08001172:    480b        .H      LDR      r0,[pc,#44] ; [0x80011a0] = 0x13f5f
        0x08001174:    6821        !h      LDR      r1,[r4,#0]
        0x08001176:    60c8        .`      STR      r0,[r1,#0xc]
        0x08001178:    f7fffa70    ..p.    BL       HAL_GetTick ; 0x800065c
        0x0800117c:    4605        .F      MOV      r5,r0
        0x0800117e:    e007        ..      B        0x8001190 ; HAL_RTC_WaitForSynchro + 36
        0x08001180:    f7fffa6c    ..l.    BL       HAL_GetTick ; 0x800065c
        0x08001184:    1b40        @.      SUBS     r0,r0,r5
        0x08001186:    f5b07f7a    ..z.    CMP      r0,#0x3e8
        0x0800118a:    d901        ..      BLS      0x8001190 ; HAL_RTC_WaitForSynchro + 36
        0x0800118c:    2003        .       MOVS     r0,#3
        0x0800118e:    bd70        p.      POP      {r4-r6,pc}
        0x08001190:    6820         h      LDR      r0,[r4,#0]
        0x08001192:    68c0        .h      LDR      r0,[r0,#0xc]
        0x08001194:    f0000020    .. .    AND      r0,r0,#0x20
        0x08001198:    2800        .(      CMP      r0,#0
        0x0800119a:    d0f1        ..      BEQ      0x8001180 ; HAL_RTC_WaitForSynchro + 20
        0x0800119c:    2000        .       MOVS     r0,#0
        0x0800119e:    e7f6        ..      B        0x800118e ; HAL_RTC_WaitForSynchro + 34
    $d
        0x080011a0:    00013f5f    _?..    DCD    81759
    $t
    i.HAL_SYSTICK_Config
    HAL_SYSTICK_Config
        0x080011a4:    b570        p.      PUSH     {r4-r6,lr}
        0x080011a6:    4604        .F      MOV      r4,r0
        0x080011a8:    4625        %F      MOV      r5,r4
        0x080011aa:    1e68        h.      SUBS     r0,r5,#1
        0x080011ac:    f1b07f80    ....    CMP      r0,#0x1000000
        0x080011b0:    d301        ..      BCC      0x80011b6 ; HAL_SYSTICK_Config + 18
        0x080011b2:    2001        .       MOVS     r0,#1
        0x080011b4:    e00f        ..      B        0x80011d6 ; HAL_SYSTICK_Config + 50
        0x080011b6:    1e68        h.      SUBS     r0,r5,#1
        0x080011b8:    f04f21e0    O..!    MOV      r1,#0xe000e000
        0x080011bc:    6148        Ha      STR      r0,[r1,#0x14]
        0x080011be:    210f        .!      MOVS     r1,#0xf
        0x080011c0:    f04f30ff    O..0    MOV      r0,#0xffffffff
        0x080011c4:    f000f940    ..@.    BL       __NVIC_SetPriority ; 0x8001448
        0x080011c8:    2000        .       MOVS     r0,#0
        0x080011ca:    f04f21e0    O..!    MOV      r1,#0xe000e000
        0x080011ce:    6188        .a      STR      r0,[r1,#0x18]
        0x080011d0:    2007        .       MOVS     r0,#7
        0x080011d2:    6108        .a      STR      r0,[r1,#0x10]
        0x080011d4:    2000        .       MOVS     r0,#0
        0x080011d6:    bd70        p.      POP      {r4-r6,pc}
    i.HardFault_Handler
    HardFault_Handler
        0x080011d8:    bf00        ..      NOP      
        0x080011da:    e7fe        ..      B        0x80011da ; HardFault_Handler + 2
    i.Key_GetState
    Key_GetState
        0x080011dc:    b510        ..      PUSH     {r4,lr}
        0x080011de:    2101        .!      MOVS     r1,#1
        0x080011e0:    4803        .H      LDR      r0,[pc,#12] ; [0x80011f0] = 0x40020000
        0x080011e2:    f7fffa23    ..#.    BL       HAL_GPIO_ReadPin ; 0x800062c
        0x080011e6:    2801        .(      CMP      r0,#1
        0x080011e8:    d100        ..      BNE      0x80011ec ; Key_GetState + 16
        0x080011ea:    bd10        ..      POP      {r4,pc}
        0x080011ec:    2000        .       MOVS     r0,#0
        0x080011ee:    e7fc        ..      B        0x80011ea ; Key_GetState + 14
    $d
        0x080011f0:    40020000    ...@    DCD    1073872896
    $t
    i.Key_Init
    Key_Init
        0x080011f4:    2000        .       MOVS     r0,#0
        0x080011f6:    4770        pG      BX       lr
    i.MX_GPIO_Init
    MX_GPIO_Init
        0x080011f8:    b500        ..      PUSH     {lr}
        0x080011fa:    b087        ..      SUB      sp,sp,#0x1c
        0x080011fc:    2114        .!      MOVS     r1,#0x14
        0x080011fe:    a802        ..      ADD      r0,sp,#8
        0x08001200:    f7fff8b1    ....    BL       __aeabi_memclr4 ; 0x8000366
        0x08001204:    bf00        ..      NOP      
        0x08001206:    2000        .       MOVS     r0,#0
        0x08001208:    9001        ..      STR      r0,[sp,#4]
        0x0800120a:    4824        $H      LDR      r0,[pc,#144] ; [0x800129c] = 0x40023830
        0x0800120c:    6800        .h      LDR      r0,[r0,#0]
        0x0800120e:    f0400004    @...    ORR      r0,r0,#4
        0x08001212:    4922        "I      LDR      r1,[pc,#136] ; [0x800129c] = 0x40023830
        0x08001214:    6008        .`      STR      r0,[r1,#0]
        0x08001216:    4608        .F      MOV      r0,r1
        0x08001218:    6800        .h      LDR      r0,[r0,#0]
        0x0800121a:    f0000004    ....    AND      r0,r0,#4
        0x0800121e:    9001        ..      STR      r0,[sp,#4]
        0x08001220:    bf00        ..      NOP      
        0x08001222:    bf00        ..      NOP      
        0x08001224:    bf00        ..      NOP      
        0x08001226:    2000        .       MOVS     r0,#0
        0x08001228:    9001        ..      STR      r0,[sp,#4]
        0x0800122a:    4608        .F      MOV      r0,r1
        0x0800122c:    6800        .h      LDR      r0,[r0,#0]
        0x0800122e:    f0400080    @...    ORR      r0,r0,#0x80
        0x08001232:    6008        .`      STR      r0,[r1,#0]
        0x08001234:    4608        .F      MOV      r0,r1
        0x08001236:    6800        .h      LDR      r0,[r0,#0]
        0x08001238:    f0000080    ....    AND      r0,r0,#0x80
        0x0800123c:    9001        ..      STR      r0,[sp,#4]
        0x0800123e:    bf00        ..      NOP      
        0x08001240:    bf00        ..      NOP      
        0x08001242:    bf00        ..      NOP      
        0x08001244:    2000        .       MOVS     r0,#0
        0x08001246:    9001        ..      STR      r0,[sp,#4]
        0x08001248:    4608        .F      MOV      r0,r1
        0x0800124a:    6800        .h      LDR      r0,[r0,#0]
        0x0800124c:    f0400001    @...    ORR      r0,r0,#1
        0x08001250:    6008        .`      STR      r0,[r1,#0]
        0x08001252:    4608        .F      MOV      r0,r1
        0x08001254:    6800        .h      LDR      r0,[r0,#0]
        0x08001256:    f0000001    ....    AND      r0,r0,#1
        0x0800125a:    9001        ..      STR      r0,[sp,#4]
        0x0800125c:    bf00        ..      NOP      
        0x0800125e:    bf00        ..      NOP      
        0x08001260:    2200        ."      MOVS     r2,#0
        0x08001262:    f44f5100    O..Q    MOV      r1,#0x2000
        0x08001266:    480e        .H      LDR      r0,[pc,#56] ; [0x80012a0] = 0x40020800
        0x08001268:    f7fff9f2    ....    BL       HAL_GPIO_WritePin ; 0x8000650
        0x0800126c:    f44f5000    O..P    MOV      r0,#0x2000
        0x08001270:    9002        ..      STR      r0,[sp,#8]
        0x08001272:    2001        .       MOVS     r0,#1
        0x08001274:    9003        ..      STR      r0,[sp,#0xc]
        0x08001276:    2000        .       MOVS     r0,#0
        0x08001278:    9004        ..      STR      r0,[sp,#0x10]
        0x0800127a:    9005        ..      STR      r0,[sp,#0x14]
        0x0800127c:    a902        ..      ADD      r1,sp,#8
        0x0800127e:    4808        .H      LDR      r0,[pc,#32] ; [0x80012a0] = 0x40020800
        0x08001280:    f7fff8f0    ....    BL       HAL_GPIO_Init ; 0x8000464
        0x08001284:    2001        .       MOVS     r0,#1
        0x08001286:    9002        ..      STR      r0,[sp,#8]
        0x08001288:    2000        .       MOVS     r0,#0
        0x0800128a:    9003        ..      STR      r0,[sp,#0xc]
        0x0800128c:    2001        .       MOVS     r0,#1
        0x0800128e:    9004        ..      STR      r0,[sp,#0x10]
        0x08001290:    a902        ..      ADD      r1,sp,#8
        0x08001292:    4804        .H      LDR      r0,[pc,#16] ; [0x80012a4] = 0x40020000
        0x08001294:    f7fff8e6    ....    BL       HAL_GPIO_Init ; 0x8000464
        0x08001298:    b007        ..      ADD      sp,sp,#0x1c
        0x0800129a:    bd00        ..      POP      {pc}
    $d
        0x0800129c:    40023830    08.@    DCD    1073887280
        0x080012a0:    40020800    ...@    DCD    1073874944
        0x080012a4:    40020000    ...@    DCD    1073872896
    $t
    i.MX_RTC_Init
    MX_RTC_Init
        0x080012a8:    b510        ..      PUSH     {r4,lr}
        0x080012aa:    480a        .H      LDR      r0,[pc,#40] ; [0x80012d4] = 0x40002800
        0x080012ac:    490a        .I      LDR      r1,[pc,#40] ; [0x80012d8] = 0x20000020
        0x080012ae:    6008        .`      STR      r0,[r1,#0]
        0x080012b0:    2000        .       MOVS     r0,#0
        0x080012b2:    6048        H`      STR      r0,[r1,#4]
        0x080012b4:    217f        .!      MOVS     r1,#0x7f
        0x080012b6:    4808        .H      LDR      r0,[pc,#32] ; [0x80012d8] = 0x20000020
        0x080012b8:    6081        .`      STR      r1,[r0,#8]
        0x080012ba:    21ff        .!      MOVS     r1,#0xff
        0x080012bc:    60c1        .`      STR      r1,[r0,#0xc]
        0x080012be:    2100        .!      MOVS     r1,#0
        0x080012c0:    6101        .a      STR      r1,[r0,#0x10]
        0x080012c2:    6141        Aa      STR      r1,[r0,#0x14]
        0x080012c4:    6181        .a      STR      r1,[r0,#0x18]
        0x080012c6:    f7fffed9    ....    BL       HAL_RTC_Init ; 0x800107c
        0x080012ca:    b108        ..      CBZ      r0,0x80012d0 ; MX_RTC_Init + 40
        0x080012cc:    f7fff8b2    ....    BL       Error_Handler ; 0x8000434
        0x080012d0:    bd10        ..      POP      {r4,pc}
    $d
        0x080012d2:    0000        ..      DCW    0
        0x080012d4:    40002800    .(.@    DCD    1073752064
        0x080012d8:    20000020     ..     DCD    536870944
    $t
    i.MemManage_Handler
    MemManage_Handler
        0x080012dc:    bf00        ..      NOP      
        0x080012de:    e7fe        ..      B        0x80012de ; MemManage_Handler + 2
    i.NMI_Handler
    NMI_Handler
        0x080012e0:    bf00        ..      NOP      
        0x080012e2:    e7fe        ..      B        0x80012e2 ; NMI_Handler + 2
    i.PendSV_Handler
    PendSV_Handler
        0x080012e4:    4770        pG      BX       lr
    i.RTC_EnterInitMode
    RTC_EnterInitMode
        0x080012e6:    b570        p.      PUSH     {r4-r6,lr}
        0x080012e8:    4604        .F      MOV      r4,r0
        0x080012ea:    2600        .&      MOVS     r6,#0
        0x080012ec:    2500        .%      MOVS     r5,#0
        0x080012ee:    6820         h      LDR      r0,[r4,#0]
        0x080012f0:    68c0        .h      LDR      r0,[r0,#0xc]
        0x080012f2:    f0000040    ..@.    AND      r0,r0,#0x40
        0x080012f6:    b9c8        ..      CBNZ     r0,0x800132c ; RTC_EnterInitMode + 70
        0x080012f8:    6820         h      LDR      r0,[r4,#0]
        0x080012fa:    68c0        .h      LDR      r0,[r0,#0xc]
        0x080012fc:    f0400080    @...    ORR      r0,r0,#0x80
        0x08001300:    6821        !h      LDR      r1,[r4,#0]
        0x08001302:    60c8        .`      STR      r0,[r1,#0xc]
        0x08001304:    f7fff9aa    ....    BL       HAL_GetTick ; 0x800065c
        0x08001308:    4606        .F      MOV      r6,r0
        0x0800130a:    e008        ..      B        0x800131e ; RTC_EnterInitMode + 56
        0x0800130c:    f7fff9a6    ....    BL       HAL_GetTick ; 0x800065c
        0x08001310:    1b80        ..      SUBS     r0,r0,r6
        0x08001312:    f5b07f7a    ..z.    CMP      r0,#0x3e8
        0x08001316:    d902        ..      BLS      0x800131e ; RTC_EnterInitMode + 56
        0x08001318:    2004        .       MOVS     r0,#4
        0x0800131a:    7760        `w      STRB     r0,[r4,#0x1d]
        0x0800131c:    2501        .%      MOVS     r5,#1
        0x0800131e:    6820         h      LDR      r0,[r4,#0]
        0x08001320:    68c0        .h      LDR      r0,[r0,#0xc]
        0x08001322:    f0000040    ..@.    AND      r0,r0,#0x40
        0x08001326:    b908        ..      CBNZ     r0,0x800132c ; RTC_EnterInitMode + 70
        0x08001328:    2d01        .-      CMP      r5,#1
        0x0800132a:    d1ef        ..      BNE      0x800130c ; RTC_EnterInitMode + 38
        0x0800132c:    4628        (F      MOV      r0,r5
        0x0800132e:    bd70        p.      POP      {r4-r6,pc}
    i.RTC_ExitInitMode
    RTC_ExitInitMode
        0x08001330:    b570        p.      PUSH     {r4-r6,lr}
        0x08001332:    4604        .F      MOV      r4,r0
        0x08001334:    2500        .%      MOVS     r5,#0
        0x08001336:    6820         h      LDR      r0,[r4,#0]
        0x08001338:    68c0        .h      LDR      r0,[r0,#0xc]
        0x0800133a:    f0200080     ...    BIC      r0,r0,#0x80
        0x0800133e:    6821        !h      LDR      r1,[r4,#0]
        0x08001340:    60c8        .`      STR      r0,[r1,#0xc]
        0x08001342:    6820         h      LDR      r0,[r4,#0]
        0x08001344:    6880        .h      LDR      r0,[r0,#8]
        0x08001346:    f0000020    .. .    AND      r0,r0,#0x20
        0x0800134a:    b930        0.      CBNZ     r0,0x800135a ; RTC_ExitInitMode + 42
        0x0800134c:    4620         F      MOV      r0,r4
        0x0800134e:    f7ffff0d    ....    BL       HAL_RTC_WaitForSynchro ; 0x800116c
        0x08001352:    b110        ..      CBZ      r0,0x800135a ; RTC_ExitInitMode + 42
        0x08001354:    2004        .       MOVS     r0,#4
        0x08001356:    7760        `w      STRB     r0,[r4,#0x1d]
        0x08001358:    2501        .%      MOVS     r5,#1
        0x0800135a:    4628        (F      MOV      r0,r5
        0x0800135c:    bd70        p.      POP      {r4-r6,pc}
    i.SVC_Handler
    SVC_Handler
        0x0800135e:    4770        pG      BX       lr
    i.SysTick_Handler
    SysTick_Handler
        0x08001360:    b510        ..      PUSH     {r4,lr}
        0x08001362:    f7fff981    ....    BL       HAL_IncTick ; 0x8000668
        0x08001366:    bd10        ..      POP      {r4,pc}
    i.SystemClock_Config
    SystemClock_Config
        0x08001368:    b500        ..      PUSH     {lr}
        0x0800136a:    b093        ..      SUB      sp,sp,#0x4c
        0x0800136c:    2130        0!      MOVS     r1,#0x30
        0x0800136e:    a807        ..      ADD      r0,sp,#0x1c
        0x08001370:    f7fefff9    ....    BL       __aeabi_memclr4 ; 0x8000366
        0x08001374:    2114        .!      MOVS     r1,#0x14
        0x08001376:    a802        ..      ADD      r0,sp,#8
        0x08001378:    f7fefff5    ....    BL       __aeabi_memclr4 ; 0x8000366
        0x0800137c:    bf00        ..      NOP      
        0x0800137e:    2000        .       MOVS     r0,#0
        0x08001380:    9001        ..      STR      r0,[sp,#4]
        0x08001382:    4825        %H      LDR      r0,[pc,#148] ; [0x8001418] = 0x40023840
        0x08001384:    6800        .h      LDR      r0,[r0,#0]
        0x08001386:    f0405080    @..P    ORR      r0,r0,#0x10000000
        0x0800138a:    4923        #I      LDR      r1,[pc,#140] ; [0x8001418] = 0x40023840
        0x0800138c:    6008        .`      STR      r0,[r1,#0]
        0x0800138e:    4608        .F      MOV      r0,r1
        0x08001390:    6800        .h      LDR      r0,[r0,#0]
        0x08001392:    f0005080    ...P    AND      r0,r0,#0x10000000
        0x08001396:    9001        ..      STR      r0,[sp,#4]
        0x08001398:    bf00        ..      NOP      
        0x0800139a:    bf00        ..      NOP      
        0x0800139c:    bf00        ..      NOP      
        0x0800139e:    2000        .       MOVS     r0,#0
        0x080013a0:    9001        ..      STR      r0,[sp,#4]
        0x080013a2:    481e        .H      LDR      r0,[pc,#120] ; [0x800141c] = 0x40007000
        0x080013a4:    6800        .h      LDR      r0,[r0,#0]
        0x080013a6:    f4404040    @.@@    ORR      r0,r0,#0xc000
        0x080013aa:    491c        .I      LDR      r1,[pc,#112] ; [0x800141c] = 0x40007000
        0x080013ac:    6008        .`      STR      r0,[r1,#0]
        0x080013ae:    4608        .F      MOV      r0,r1
        0x080013b0:    6800        .h      LDR      r0,[r0,#0]
        0x080013b2:    f4004040    ..@@    AND      r0,r0,#0xc000
        0x080013b6:    9001        ..      STR      r0,[sp,#4]
        0x080013b8:    bf00        ..      NOP      
        0x080013ba:    bf00        ..      NOP      
        0x080013bc:    2009        .       MOVS     r0,#9
        0x080013be:    9007        ..      STR      r0,[sp,#0x1c]
        0x080013c0:    f44f3080    O..0    MOV      r0,#0x10000
        0x080013c4:    9008        ..      STR      r0,[sp,#0x20]
        0x080013c6:    2001        .       MOVS     r0,#1
        0x080013c8:    900c        ..      STR      r0,[sp,#0x30]
        0x080013ca:    2002        .       MOVS     r0,#2
        0x080013cc:    900d        ..      STR      r0,[sp,#0x34]
        0x080013ce:    0541        A.      LSLS     r1,r0,#21
        0x080013d0:    910e        ..      STR      r1,[sp,#0x38]
        0x080013d2:    210c        .!      MOVS     r1,#0xc
        0x080013d4:    910f        ..      STR      r1,[sp,#0x3c]
        0x080013d6:    2160        `!      MOVS     r1,#0x60
        0x080013d8:    9110        ..      STR      r1,[sp,#0x40]
        0x080013da:    2102        .!      MOVS     r1,#2
        0x080013dc:    9111        ..      STR      r1,[sp,#0x44]
        0x080013de:    2104        .!      MOVS     r1,#4
        0x080013e0:    9112        ..      STR      r1,[sp,#0x48]
        0x080013e2:    a807        ..      ADD      r0,sp,#0x1c
        0x080013e4:    f7fffbfc    ....    BL       HAL_RCC_OscConfig ; 0x8000be0
        0x080013e8:    b108        ..      CBZ      r0,0x80013ee ; SystemClock_Config + 134
        0x080013ea:    f7fff823    ..#.    BL       Error_Handler ; 0x8000434
        0x080013ee:    200f        .       MOVS     r0,#0xf
        0x080013f0:    9002        ..      STR      r0,[sp,#8]
        0x080013f2:    2002        .       MOVS     r0,#2
        0x080013f4:    9003        ..      STR      r0,[sp,#0xc]
        0x080013f6:    2000        .       MOVS     r0,#0
        0x080013f8:    9004        ..      STR      r0,[sp,#0x10]
        0x080013fa:    f44f5080    O..P    MOV      r0,#0x1000
        0x080013fe:    9005        ..      STR      r0,[sp,#0x14]
        0x08001400:    2000        .       MOVS     r0,#0
        0x08001402:    9006        ..      STR      r0,[sp,#0x18]
        0x08001404:    2103        .!      MOVS     r1,#3
        0x08001406:    a802        ..      ADD      r0,sp,#8
        0x08001408:    f7fffad0    ....    BL       HAL_RCC_ClockConfig ; 0x80009ac
        0x0800140c:    b108        ..      CBZ      r0,0x8001412 ; SystemClock_Config + 170
        0x0800140e:    f7fff811    ....    BL       Error_Handler ; 0x8000434
        0x08001412:    b013        ..      ADD      sp,sp,#0x4c
        0x08001414:    bd00        ..      POP      {pc}
    $d
        0x08001416:    0000        ..      DCW    0
        0x08001418:    40023840    @8.@    DCD    1073887296
        0x0800141c:    40007000    .p.@    DCD    1073770496
    $t
    i.SystemInit
    SystemInit
        0x08001420:    4803        .H      LDR      r0,[pc,#12] ; [0x8001430] = 0xe000ed88
        0x08001422:    6800        .h      LDR      r0,[r0,#0]
        0x08001424:    f4400070    @.p.    ORR      r0,r0,#0xf00000
        0x08001428:    4901        .I      LDR      r1,[pc,#4] ; [0x8001430] = 0xe000ed88
        0x0800142a:    6008        .`      STR      r0,[r1,#0]
        0x0800142c:    4770        pG      BX       lr
    $d
        0x0800142e:    0000        ..      DCW    0
        0x08001430:    e000ed88    ....    DCD    3758157192
    $t
    i.UsageFault_Handler
    UsageFault_Handler
        0x08001434:    bf00        ..      NOP      
        0x08001436:    e7fe        ..      B        0x8001436 ; UsageFault_Handler + 2
    i.__NVIC_GetPriorityGrouping
    __NVIC_GetPriorityGrouping
        0x08001438:    4802        .H      LDR      r0,[pc,#8] ; [0x8001444] = 0xe000ed0c
        0x0800143a:    6800        .h      LDR      r0,[r0,#0]
        0x0800143c:    f3c02002    ...     UBFX     r0,r0,#8,#3
        0x08001440:    4770        pG      BX       lr
    $d
        0x08001442:    0000        ..      DCW    0
        0x08001444:    e000ed0c    ....    DCD    3758157068
    $t
    i.__NVIC_SetPriority
    __NVIC_SetPriority
        0x08001448:    b510        ..      PUSH     {r4,lr}
        0x0800144a:    2800        .(      CMP      r0,#0
        0x0800144c:    db04        ..      BLT      0x8001458 ; __NVIC_SetPriority + 16
        0x0800144e:    070a        ..      LSLS     r2,r1,#28
        0x08001450:    0e13        ..      LSRS     r3,r2,#24
        0x08001452:    4a05        .J      LDR      r2,[pc,#20] ; [0x8001468] = 0xe000e400
        0x08001454:    5413        .T      STRB     r3,[r2,r0]
        0x08001456:    e006        ..      B        0x8001466 ; __NVIC_SetPriority + 30
        0x08001458:    070a        ..      LSLS     r2,r1,#28
        0x0800145a:    0e14        ..      LSRS     r4,r2,#24
        0x0800145c:    4a03        .J      LDR      r2,[pc,#12] ; [0x800146c] = 0xe000ed18
        0x0800145e:    f000030f    ....    AND      r3,r0,#0xf
        0x08001462:    1f1b        ..      SUBS     r3,r3,#4
        0x08001464:    54d4        .T      STRB     r4,[r2,r3]
        0x08001466:    bd10        ..      POP      {r4,pc}
    $d
        0x08001468:    e000e400    ....    DCD    3758154752
        0x0800146c:    e000ed18    ....    DCD    3758157080
    $t
    i.key_task_runnable
    key_task_runnable
        0x08001470:    b510        ..      PUSH     {r4,lr}
        0x08001472:    2400        .$      MOVS     r4,#0
        0x08001474:    4811        .H      LDR      r0,[pc,#68] ; [0x80014bc] = 0x20000001
        0x08001476:    7800        .x      LDRB     r0,[r0,#0]
        0x08001478:    b930        0.      CBNZ     r0,0x8001488 ; key_task_runnable + 24
        0x0800147a:    f7fffebb    ....    BL       Key_Init ; 0x80011f4
        0x0800147e:    b9e0        ..      CBNZ     r0,0x80014ba ; key_task_runnable + 74
        0x08001480:    2001        .       MOVS     r0,#1
        0x08001482:    490e        .I      LDR      r1,[pc,#56] ; [0x80014bc] = 0x20000001
        0x08001484:    7008        .p      STRB     r0,[r1,#0]
        0x08001486:    e018        ..      B        0x80014ba ; key_task_runnable + 74
        0x08001488:    f7fffea8    ....    BL       Key_GetState ; 0x80011dc
        0x0800148c:    4604        .F      MOV      r4,r0
        0x0800148e:    b98c        ..      CBNZ     r4,0x80014b4 ; key_task_runnable + 68
        0x08001490:    480b        .H      LDR      r0,[pc,#44] ; [0x80014c0] = 0x20000000
        0x08001492:    7800        .x      LDRB     r0,[r0,#0]
        0x08001494:    b988        ..      CBNZ     r0,0x80014ba ; key_task_runnable + 74
        0x08001496:    200a        .       MOVS     r0,#0xa
        0x08001498:    f7feffd0    ....    BL       HAL_Delay ; 0x800043c
        0x0800149c:    f7fffe9e    ....    BL       Key_GetState ; 0x80011dc
        0x080014a0:    4604        .F      MOV      r4,r0
        0x080014a2:    b91c        ..      CBNZ     r4,0x80014ac ; key_task_runnable + 60
        0x080014a4:    2001        .       MOVS     r0,#1
        0x080014a6:    4906        .I      LDR      r1,[pc,#24] ; [0x80014c0] = 0x20000000
        0x080014a8:    7008        .p      STRB     r0,[r1,#0]
        0x080014aa:    e006        ..      B        0x80014ba ; key_task_runnable + 74
        0x080014ac:    2000        .       MOVS     r0,#0
        0x080014ae:    4904        .I      LDR      r1,[pc,#16] ; [0x80014c0] = 0x20000000
        0x080014b0:    7008        .p      STRB     r0,[r1,#0]
        0x080014b2:    e002        ..      B        0x80014ba ; key_task_runnable + 74
        0x080014b4:    2000        .       MOVS     r0,#0
        0x080014b6:    4902        .I      LDR      r1,[pc,#8] ; [0x80014c0] = 0x20000000
        0x080014b8:    7008        .p      STRB     r0,[r1,#0]
        0x080014ba:    bd10        ..      POP      {r4,pc}
    $d
        0x080014bc:    20000001    ...     DCD    536870913
        0x080014c0:    20000000    ...     DCD    536870912
    $t
    i.led_init
    led_init
        0x080014c4:    2000        .       MOVS     r0,#0
        0x080014c6:    4770        pG      BX       lr
    i.led_task_runnable
    led_task_runnable
        0x080014c8:    b510        ..      PUSH     {r4,lr}
        0x080014ca:    4814        .H      LDR      r0,[pc,#80] ; [0x800151c] = 0x20000004
        0x080014cc:    7800        .x      LDRB     r0,[r0,#0]
        0x080014ce:    b930        0.      CBNZ     r0,0x80014de ; led_task_runnable + 22
        0x080014d0:    f7fffff8    ....    BL       led_init ; 0x80014c4
        0x080014d4:    bb00        ..      CBNZ     r0,0x8001518 ; led_task_runnable + 80
        0x080014d6:    2001        .       MOVS     r0,#1
        0x080014d8:    4910        .I      LDR      r1,[pc,#64] ; [0x800151c] = 0x20000004
        0x080014da:    7008        .p      STRB     r0,[r1,#0]
        0x080014dc:    e01c        ..      B        0x8001518 ; led_task_runnable + 80
        0x080014de:    4810        .H      LDR      r0,[pc,#64] ; [0x8001520] = 0x20000000
        0x080014e0:    7800        .x      LDRB     r0,[r0,#0]
        0x080014e2:    2801        .(      CMP      r0,#1
        0x080014e4:    d102        ..      BNE      0x80014ec ; led_task_runnable + 36
        0x080014e6:    490f        .I      LDR      r1,[pc,#60] ; [0x8001524] = 0x2000000c
        0x080014e8:    7008        .p      STRB     r0,[r1,#0]
        0x080014ea:    e002        ..      B        0x80014f2 ; led_task_runnable + 42
        0x080014ec:    2000        .       MOVS     r0,#0
        0x080014ee:    490d        .I      LDR      r1,[pc,#52] ; [0x8001524] = 0x2000000c
        0x080014f0:    7008        .p      STRB     r0,[r1,#0]
        0x080014f2:    480c        .H      LDR      r0,[pc,#48] ; [0x8001524] = 0x2000000c
        0x080014f4:    7800        .x      LDRB     r0,[r0,#0]
        0x080014f6:    2801        .(      CMP      r0,#1
        0x080014f8:    d105        ..      BNE      0x8001506 ; led_task_runnable + 62
        0x080014fa:    480b        .H      LDR      r0,[pc,#44] ; [0x8001528] = 0x20000008
        0x080014fc:    6800        .h      LDR      r0,[r0,#0]
        0x080014fe:    1c40        @.      ADDS     r0,r0,#1
        0x08001500:    4909        .I      LDR      r1,[pc,#36] ; [0x8001528] = 0x20000008
        0x08001502:    6008        .`      STR      r0,[r1,#0]
        0x08001504:    e008        ..      B        0x8001518 ; led_task_runnable + 80
        0x08001506:    4808        .H      LDR      r0,[pc,#32] ; [0x8001528] = 0x20000008
        0x08001508:    6800        .h      LDR      r0,[r0,#0]
        0x0800150a:    2864        d(      CMP      r0,#0x64
        0x0800150c:    d301        ..      BCC      0x8001512 ; led_task_runnable + 74
        0x0800150e:    f000f80d    ....    BL       led_toggle ; 0x800152c
        0x08001512:    2000        .       MOVS     r0,#0
        0x08001514:    4904        .I      LDR      r1,[pc,#16] ; [0x8001528] = 0x20000008
        0x08001516:    6008        .`      STR      r0,[r1,#0]
        0x08001518:    bd10        ..      POP      {r4,pc}
    $d
        0x0800151a:    0000        ..      DCW    0
        0x0800151c:    20000004    ...     DCD    536870916
        0x08001520:    20000000    ...     DCD    536870912
        0x08001524:    2000000c    ...     DCD    536870924
        0x08001528:    20000008    ...     DCD    536870920
    $t
    i.led_toggle
    led_toggle
        0x0800152c:    b510        ..      PUSH     {r4,lr}
        0x0800152e:    f44f5100    O..Q    MOV      r1,#0x2000
        0x08001532:    4802        .H      LDR      r0,[pc,#8] ; [0x800153c] = 0x40020800
        0x08001534:    f7fff882    ....    BL       HAL_GPIO_TogglePin ; 0x800063c
        0x08001538:    bd10        ..      POP      {r4,pc}
    $d
        0x0800153a:    0000        ..      DCW    0
        0x0800153c:    40020800    ...@    DCD    1073874944
    $t
    i.main
    main
        0x08001540:    f7fff89e    ....    BL       HAL_Init ; 0x8000680
        0x08001544:    f7ffff10    ....    BL       SystemClock_Config ; 0x8001368
        0x08001548:    f7fffe56    ..V.    BL       MX_GPIO_Init ; 0x80011f8
        0x0800154c:    f7fffeac    ....    BL       MX_RTC_Init ; 0x80012a8
        0x08001550:    e003        ..      B        0x800155a ; main + 26
        0x08001552:    f7ffff8d    ....    BL       key_task_runnable ; 0x8001470
        0x08001556:    f7ffffb7    ....    BL       led_task_runnable ; 0x80014c8
        0x0800155a:    e7fa        ..      B        0x8001552 ; main + 18
    x$fpl$fpinit
    $v0
    _fp_init
        0x0800155c:    f04f7040    O.@p    MOV      r0,#0x3000000
        0x08001560:    eee10a10    ....    VMSR     FPSCR,r0
    __fplib_config_fpu_vfp
    __fplib_config_pureend_doubles
        0x08001564:    4770        pG      BX       lr
    $d.realdata
    .constdata
    AHBPrescTable
        0x08001566:    0000        ..      DCW    0
        0x08001568:    00000000    ....    DCD    0
        0x0800156c:    02010000    ....    DCD    33619968
        0x08001570:    07060403    ....    DCD    117834755
        0x08001574:    0908        ..      DCW    2312
    APBPrescTable
        0x08001576:    0000        ..      DCW    0
        0x08001578:    02010000    ....    DCD    33619968
        0x0800157c:    00000403    ....    DCD    1027
    Region$$Table$$Base
        0x08001580:    080015a0    ....    DCD    134223264
        0x08001584:    20000000    ...     DCD    536870912
        0x08001588:    00000020     ...    DCD    32
        0x0800158c:    080001d4    ....    DCD    134218196
        0x08001590:    080015c0    ....    DCD    134223296
        0x08001594:    20000020     ..     DCD    536870944
        0x08001598:    00000680    ....    DCD    1664
        0x0800159c:    080001f0    ....    DCD    134218224
    Region$$Table$$Limit

** Section #2 'RW_IRAM1' (SHT_PROGBITS) [SHF_ALLOC + SHF_WRITE]
    Size   : 32 bytes (alignment 4)
    Address: 0x20000000


** Section #3 'RW_IRAM1' (SHT_NOBITS) [SHF_ALLOC + SHF_WRITE]
    Size   : 1664 bytes (alignment 8)
    Address: 0x20000020


** Section #4 '.debug_abbrev' (SHT_PROGBITS)
    Size   : 1476 bytes


** Section #5 '.debug_frame' (SHT_PROGBITS)
    Size   : 2428 bytes


** Section #6 '.debug_info' (SHT_PROGBITS)
    Size   : 32512 bytes


** Section #7 '.debug_line' (SHT_PROGBITS)
    Size   : 10072 bytes


** Section #8 '.debug_loc' (SHT_PROGBITS)
    Size   : 2568 bytes


** Section #9 '.debug_macinfo' (SHT_PROGBITS)
    Size   : 393268 bytes


** Section #10 '.debug_pubnames' (SHT_PROGBITS)
    Size   : 1723 bytes


** Section #11 '.symtab' (SHT_SYMTAB)
    Size   : 7744 bytes (alignment 4)
    String table #12 '.strtab'
    Last local symbol no. 298


** Section #12 '.strtab' (SHT_STRTAB)
    Size   : 8880 bytes


** Section #13 '.note' (SHT_NOTE)
    Size   : 28 bytes (alignment 4)


** Section #14 '.comment' (SHT_PROGBITS)
    Size   : 35260 bytes


** Section #15 '.shstrtab' (SHT_STRTAB)
    Size   : 156 bytes


address     size       variable name                            type
0x08001566  0x10       AHBPrescTable                            array[16] of const uint8_t

address     size       variable name                            type
0x08001576  0x8        APBPrescTable                            array[8] of const uint8_t

address     size       variable name                            type
0x2000001c  0x4        SystemCoreClock                          uint32_t

address     size       variable name                            type
0x20000010  0x4        uwTick                                   volatile uint32_t

address     size       variable name                            type
0x20000018  0x1        uwTickFreq                               HAL_TickFreqTypeDef

address     size       variable name                            type
0x20000014  0x4        uwTickPrio                               uint32_t

address     size       variable name                            type
0x20000020  0x20       hrtc                                     RTC_HandleTypeDef
0x20000020  0x4        hrtc.Instance                            pointer to RTC_TypeDef
0x20000024  0x18       hrtc.Init                                RTC_InitTypeDef
0x20000024  0x4        hrtc.Init.HourFormat                     uint32_t
0x20000028  0x4        hrtc.Init.AsynchPrediv                   uint32_t
0x2000002c  0x4        hrtc.Init.SynchPrediv                    uint32_t
0x20000030  0x4        hrtc.Init.OutPut                         uint32_t
0x20000034  0x4        hrtc.Init.OutPutPolarity                 uint32_t
0x20000038  0x4        hrtc.Init.OutPutType                     uint32_t
0x2000003c  0x1        hrtc.Lock                                HAL_LockTypeDef
0x2000003d  0x1        hrtc.State                               volatile HAL_RTCStateTypeDef

address     size       variable name                            type
0x20000000  0x1        g_E_key_state                            KeyState

